TN:
SF:/home/obmetko/proga/Lab_Tests/Tests/C++/Array.cpp
FNL:0,16,21
FNA:0,8,_ZN5ArrayC2Ei
FNL:1,23,32
FNA:1,1,_ZN5ArrayC2ERKNSt7__cxx1112basic_stringIcSt11char_traitsIcESaIcEEE
FNL:2,3,14
FNA:2,1,_ZN5Array11extendArrayEv
FNL:3,34,39
FNA:3,8,_ZN5ArrayD2Ev
FNL:4,41,46
FNA:4,10,_ZN5Array10getElementB5cxx11Ei
FNL:5,48,53
FNA:5,2,_ZN5Array10setElementERKNSt7__cxx1112basic_stringIcSt11char_traitsIcESaIcEEEi
FNL:6,55,63
FNA:6,2,_ZN5Array13deleteElementEi
FNL:7,65,77
FNA:7,2,_ZN5Array17addElementAtIndexERKNSt7__cxx1112basic_stringIcSt11char_traitsIcESaIcEEEi
FNL:8,79,85
FNA:8,18,_ZN5Array13addElementEndERKNSt7__cxx1112basic_stringIcSt11char_traitsIcESaIcEEE
FNL:9,87,89
FNA:9,6,_ZNK5Array9getLengthEv
FNL:10,91,93
FNA:10,1,_ZN5Array7getHeadEv
FNL:11,95,97
FNA:11,2,_ZNK5Array7getSizeEv
FNL:12,99,106
FNA:12,2,_ZNK5Array9isInArrayERKNSt7__cxx1112basic_stringIcSt11char_traitsIcESaIcEEE
FNF:13
FNH:13
DA:3,1
DA:4,1
DA:5,5
DA:7,3
DA:8,2
DA:11,3
DA:12,1
DA:13,1
DA:14,1
DA:16,8
DA:17,8
DA:18,1
DA:20,30
DA:21,7
DA:23,1
DA:24,1
DA:25,0
DA:27,6
DA:29,10
DA:30,8
DA:32,1
DA:34,8
DA:35,38
DA:36,8
DA:37,8
DA:38,8
DA:39,8
DA:41,10
DA:42,10
DA:43,1
DA:45,9
DA:48,2
DA:49,2
DA:50,1
DA:52,1
DA:53,1
DA:55,2
DA:56,2
DA:57,1
DA:59,2
DA:60,1
DA:62,1
DA:63,1
DA:65,2
DA:66,2
DA:67,1
DA:69,1
DA:70,0
DA:72,2
DA:73,1
DA:75,1
DA:76,1
DA:77,1
DA:79,18
DA:80,18
DA:81,1
DA:83,18
DA:84,18
DA:85,18
DA:87,6
DA:88,6
DA:91,1
DA:92,1
DA:95,2
DA:96,2
DA:99,2
DA:100,6
DA:101,5
DA:102,1
DA:105,1
LF:70
LH:68
end_of_record
TN:
SF:/home/obmetko/proga/Lab_Tests/Tests/C++/Array.h
FNF:0
FNH:0
LF:0
LH:0
end_of_record
TN:
SF:/home/obmetko/proga/Lab_Tests/Tests/C++/BlackRedTree.cpp
FNL:0,111,130
FNA:0,42,_ZN6RBTree6insertEi
FNL:1,13,33
FNA:1,11,_ZN6RBTree10leftRotateEP7RBTNode
FNL:2,132,144
FNA:2,28,_ZN6RBTree8findNodeEi
FNL:3,146,158
FNA:3,10,_ZN6RBTree10transplantEP7RBTNodeS1_
FNL:4,160,251
FNA:4,7,_ZN6RBTree9fixDeleteEP7RBTNodeS1_
FNL:5,253,316
FNA:5,12,_ZN6RBTree3delEi
FNL:6,3,11
FNA:6,68,_ZN6RBTree16findNodePositionEP7RBTNodei
FNL:7,318,324
FNA:7,18,_ZN6RBTree3getEi
FNL:8,326,338
FNA:8,32,_ZN6RBTree16deleteBRTreeNodeEP7RBTNode
FNL:9,340,340
FNA:9,9,_ZN6RBTreeC2Ev
FNL:10,342,344
FNA:10,9,_ZN6RBTreeD2Ev
FNL:11,35,55
FNA:11,5,_ZN6RBTree11rightRotateEP7RBTNode
FNL:12,57,109
FNA:12,33,_ZN6RBTree12fixViolationEP7RBTNode
FNF:13
FNH:13
DA:3,68
DA:4,68
DA:5,24
DA:7,44
DA:8,43
DA:10,1
DA:13,11
DA:14,11
DA:15,11
DA:17,11
DA:18,3
DA:21,11
DA:23,11
DA:24,4
DA:25,7
DA:26,2
DA:28,5
DA:31,11
DA:32,11
DA:33,11
DA:35,5
DA:36,5
DA:37,5
DA:39,5
DA:40,1
DA:43,5
DA:45,5
DA:46,1
DA:47,4
DA:48,2
DA:50,2
DA:53,5
DA:54,5
DA:55,5
DA:57,33
DA:58,33
DA:60,52
DA:62,19
DA:63,7
DA:66,7
DA:67,5
DA:68,5
DA:69,5
DA:70,5
DA:73,2
DA:74,1
DA:75,1
DA:79,2
DA:80,2
DA:81,2
DA:85,12
DA:88,12
DA:89,6
DA:90,6
DA:91,6
DA:92,6
DA:95,6
DA:96,1
DA:97,1
DA:101,6
DA:102,6
DA:103,6
DA:108,33
DA:111,42
DA:112,42
DA:114,42
DA:115,8
DA:116,8
DA:117,8
DA:120,34
DA:121,33
DA:123,33
DA:124,14
DA:126,19
DA:129,33
DA:132,28
DA:133,28
DA:134,78
DA:135,68
DA:136,18
DA:137,50
DA:138,33
DA:140,17
DA:143,10
DA:146,10
DA:147,10
DA:148,1
DA:149,9
DA:150,5
DA:152,4
DA:155,10
DA:156,4
DA:158,10
DA:160,7
DA:161,15
DA:162,8
DA:163,0
DA:166,8
DA:167,5
DA:169,5
DA:171,1
DA:172,1
DA:173,1
DA:174,1
DA:177,5
DA:179,5
DA:180,4
DA:182,2
DA:183,2
DA:184,2
DA:186,3
DA:188,1
DA:189,1
DA:191,1
DA:192,1
DA:193,1
DA:197,3
DA:198,3
DA:199,3
DA:200,3
DA:203,3
DA:204,3
DA:205,3
DA:209,3
DA:211,3
DA:212,1
DA:213,1
DA:214,1
DA:215,1
DA:218,3
DA:220,3
DA:221,3
DA:222,3
DA:223,3
DA:224,3
DA:226,0
DA:227,0
DA:228,0
DA:230,0
DA:231,0
DA:232,0
DA:235,0
DA:236,0
DA:237,0
DA:238,0
DA:241,0
DA:242,0
DA:243,0
DA:248,7
DA:249,7
DA:251,7
DA:253,12
DA:254,12
DA:255,1
DA:258,11
DA:259,11
DA:260,1
DA:263,10
DA:264,10
DA:265,10
DA:266,10
DA:268,10
DA:270,6
DA:271,6
DA:272,6
DA:273,4
DA:275,1
DA:276,1
DA:277,1
DA:280,3
DA:281,3
DA:282,0
DA:285,3
DA:286,3
DA:287,3
DA:289,3
DA:290,3
DA:291,0
DA:293,3
DA:295,0
DA:296,0
DA:297,0
DA:298,0
DA:300,0
DA:303,3
DA:304,3
DA:305,3
DA:306,3
DA:308,3
DA:311,10
DA:313,10
DA:314,7
DA:316,10
DA:318,18
DA:319,18
DA:320,1
DA:322,17
DA:323,17
DA:326,32
DA:327,32
DA:328,31
DA:329,31
DA:330,31
DA:331,14
DA:333,31
DA:334,9
DA:337,32
DA:338,32
DA:340,9
DA:342,9
DA:343,9
DA:344,9
LF:212
LH:191
end_of_record
TN:
SF:/home/obmetko/proga/Lab_Tests/Tests/C++/ChainMap.cpp
FNL:0,11,21
FNA:0,9,_ZN8ChainMapD2Ev
FNL:1,117,129
FNA:1,9,_ZN8ChainMap9isContainERKNSt7__cxx1112basic_stringIcSt11char_traitsIcESaIcEEE
FNL:2,131,143
FNA:2,6,_ZN8ChainMap4findERKNSt7__cxx1112basic_stringIcSt11char_traitsIcESaIcEEE
FNL:3,145,160
FNA:3,1,_ZNK8ChainMap13printContentsEv
FNL:4,23,25
FNA:4,36,_ZN8ChainMap12hashFunctionERKNSt7__cxx1112basic_stringIcSt11char_traitsIcESaIcEEE
FNL:5,27,47
FNA:5,1,_ZN8ChainMap6rehashEv
FNL:6,3,3
FNA:6,19,_ZN9ChainNodeC2ERKNSt7__cxx1112basic_stringIcSt11char_traitsIcESaIcEEEi
FNL:7,49,57
FNA:7,2,_ZNK8ChainMap10getAllKeysERS_
FNL:8,5,5
FNA:8,81,_ZN6BucketC2Ev
FNL:9,59,72
FNA:9,1,_ZNK8ChainMap18getAllKeysAsStringB5cxx11Ev
FNL:10,7,9
FNA:10,9,_ZN8ChainMapC2Em
FNL:11,74,94
FNA:11,20,_ZN8ChainMap3addERKNSt7__cxx1112basic_stringIcSt11char_traitsIcESaIcEEEi
FNL:12,96,115
FNA:12,1,_ZN8ChainMap3delERKNSt7__cxx1112basic_stringIcSt11char_traitsIcESaIcEEE
FNF:13
FNH:13
DA:3,19
DA:5,81
DA:7,18
DA:8,9
DA:9,86
DA:11,9
DA:12,88
DA:13,79
DA:14,97
DA:15,18
DA:16,18
DA:17,18
DA:20,9
DA:21,9
DA:23,36
DA:24,36
DA:27,1
DA:28,1
DA:29,5
DA:31,3
DA:32,2
DA:33,4
DA:34,2
DA:35,2
DA:37,2
DA:38,2
DA:40,2
DA:44,1
DA:45,1
DA:46,1
DA:47,1
DA:49,2
DA:50,22
DA:51,20
DA:52,26
DA:53,6
DA:54,6
DA:57,2
DA:59,1
DA:60,1
DA:61,1
DA:62,1
DA:64,11
DA:65,10
DA:66,13
DA:67,3
DA:68,3
DA:71,1
DA:72,1
DA:74,20
DA:75,20
DA:76,1
DA:79,20
DA:80,20
DA:82,25
DA:83,6
DA:84,1
DA:85,1
DA:87,5
DA:90,19
DA:91,19
DA:92,19
DA:93,19
DA:96,1
DA:97,1
DA:98,1
DA:99,1
DA:101,1
DA:102,1
DA:103,1
DA:104,1
DA:106,0
DA:108,1
DA:109,1
DA:110,1
DA:112,0
DA:113,0
DA:117,9
DA:118,9
DA:119,9
DA:121,11
DA:122,10
DA:123,8
DA:125,2
DA:128,1
DA:131,6
DA:132,6
DA:133,6
DA:135,6
DA:136,5
DA:137,5
DA:139,0
DA:142,1
DA:145,1
DA:146,1
DA:147,6
DA:148,5
DA:149,5
DA:150,5
DA:151,2
DA:152,0
DA:153,0
DA:155,2
DA:157,5
DA:159,1
DA:160,1
LF:106
LH:100
end_of_record
TN:
SF:/home/obmetko/proga/Lab_Tests/Tests/C++/ChainMap.h
FNF:0
FNH:0
LF:0
LH:0
end_of_record
TN:
SF:/home/obmetko/proga/Lab_Tests/Tests/C++/DoubleList.cpp
FNL:0,108,122
FNA:0,1,_ZN10DoubleList10deleteHeadEv
FNL:1,124,138
FNA:1,1,_ZN10DoubleList10deleteTailEv
FNL:2,14,19
FNA:2,26,_ZNK10DoubleList13validateIndexEib
FNL:3,140,153
FNA:3,2,_ZN10DoubleList13deleteByValueERKNSt7__cxx1112basic_stringIcSt11char_traitsIcESaIcEEE
FNL:4,155,157
FNA:4,15,_ZNK10DoubleList10getElementB5cxx11Ei
FNL:5,159,163
FNA:5,2,_ZN10DoubleList10popElementB5cxx11Ei
FNL:6,165,172
FNA:6,2,_ZNK10DoubleList11findByValueERKNSt7__cxx1112basic_stringIcSt11char_traitsIcESaIcEEE
FNL:7,174,176
FNA:7,3,_ZNK10DoubleList7isEmptyEv
FNL:8,178,180
FNA:8,6,_ZNK10DoubleList9getLengthEv
FNL:9,21,37
FNA:9,20,_ZNK10DoubleList9getNodeAtEi
FNL:10,39,56
FNA:10,2,_ZN10DoubleList8addAfterERKNSt7__cxx1112basic_stringIcSt11char_traitsIcESaIcEEEi
FNL:11,5,12
FNA:11,7,_ZN10DoubleListD2Ev
FNL:12,58,64
FNA:12,1,_ZN10DoubleList9addBeforeERKNSt7__cxx1112basic_stringIcSt11char_traitsIcESaIcEEEi
FNL:13,66,77
FNA:13,5,_ZN10DoubleList7addHeadERKNSt7__cxx1112basic_stringIcSt11char_traitsIcESaIcEEE
FNL:14,79,90
FNA:14,17,_ZN10DoubleList7addTailERKNSt7__cxx1112basic_stringIcSt11char_traitsIcESaIcEEE
FNL:15,92,106
FNA:15,4,_ZN10DoubleList8deleteAtEi
FNF:16
FNH:16
DA:5,7
DA:6,7
DA:7,26
DA:8,19
DA:9,19
DA:10,19
DA:12,7
DA:14,26
DA:15,26
DA:16,26
DA:17,3
DA:19,23
DA:21,20
DA:22,20
DA:24,18
DA:25,15
DA:26,29
DA:27,14
DA:29,15
DA:31,3
DA:32,3
DA:33,0
DA:35,3
DA:39,2
DA:40,2
DA:42,2
DA:43,2
DA:45,2
DA:46,2
DA:48,2
DA:49,1
DA:51,1
DA:53,2
DA:55,2
DA:56,2
DA:58,1
DA:59,1
DA:60,1
DA:62,0
DA:64,1
DA:66,5
DA:67,5
DA:68,5
DA:70,5
DA:71,1
DA:73,4
DA:75,5
DA:76,5
DA:77,5
DA:79,17
DA:80,17
DA:81,17
DA:83,17
DA:84,14
DA:86,3
DA:88,17
DA:89,17
DA:90,17
DA:92,4
DA:93,4
DA:95,3
DA:96,0
DA:97,3
DA:98,0
DA:100,3
DA:101,3
DA:102,3
DA:103,3
DA:104,3
DA:106,3
DA:108,1
DA:109,1
DA:111,1
DA:112,1
DA:114,1
DA:115,0
DA:117,1
DA:120,1
DA:121,1
DA:124,1
DA:125,1
DA:127,1
DA:128,1
DA:130,1
DA:131,0
DA:133,1
DA:136,1
DA:137,1
DA:140,2
DA:141,2
DA:142,2
DA:144,5
DA:145,4
DA:146,1
DA:147,1
DA:149,3
DA:150,3
DA:152,1
DA:155,15
DA:156,15
DA:159,2
DA:160,2
DA:161,1
DA:162,1
DA:163,0
DA:165,2
DA:166,2
DA:167,5
DA:168,4
DA:169,3
DA:171,1
DA:174,3
DA:175,3
DA:178,6
DA:179,6
LF:115
LH:108
end_of_record
TN:
SF:/home/obmetko/proga/Lab_Tests/Tests/C++/DoubleList.h
FNF:0
FNH:0
LF:0
LH:0
end_of_record
TN:
SF:/home/obmetko/proga/Lab_Tests/Tests/C++/ForwardList.cpp
FNL:0,107,126
FNA:0,2,_ZN11ForwardList7popBackEv
FNL:1,128,142
FNA:1,2,_ZN11ForwardList11removeAfterEP6FWNode
FNL:2,144,171
FNA:2,2,_ZN11ForwardList13removeByValueERKNSt7__cxx1112basic_stringIcSt11char_traitsIcESaIcEEE
FNL:3,173,178
FNA:3,3,_ZNK11ForwardList5frontB5cxx11Ev
FNL:4,18,23
FNA:4,11,_ZNK11ForwardList16validatePositionEib
FNL:5,180,185
FNA:5,3,_ZNK11ForwardList4backB5cxx11Ev
FNL:6,187,189
FNA:6,7,_ZNK11ForwardList5getAtB5cxx11Em
FNL:7,191,198
FNA:7,3,_ZNK11ForwardList11findByValueERKNSt7__cxx1112basic_stringIcSt11char_traitsIcESaIcEEE
FNL:8,200,202
FNA:8,1,_ZNK11ForwardList7isEmptyEv
FNL:9,204,206
FNA:9,4,_ZNK11ForwardList7getSizeEv
FNL:10,25,33
FNA:10,9,_ZNK11ForwardList9getNodeAtEi
FNL:11,35,45
FNA:11,11,_ZN11ForwardList8pushBackERKNSt7__cxx1112basic_stringIcSt11char_traitsIcESaIcEEE
FNL:12,47,56
FNA:12,2,_ZN11ForwardList9pushFrontERKNSt7__cxx1112basic_stringIcSt11char_traitsIcESaIcEEE
FNL:13,5,7
FNA:13,6,_ZN11ForwardListC2Ev
FNL:14,58,74
FNA:14,2,_ZN11ForwardList12insertBeforeERKNSt7__cxx1112basic_stringIcSt11char_traitsIcESaIcEEEi
FNL:15,76,89
FNA:15,1,_ZN11ForwardList11insertAfterERKNSt7__cxx1112basic_stringIcSt11char_traitsIcESaIcEEEi
FNL:16,9,16
FNA:16,6,_ZN11ForwardListD2Ev
FNL:17,91,105
FNA:17,2,_ZN11ForwardList8popFrontEv
FNF:18
FNH:18
DA:5,6
DA:6,6
DA:7,6
DA:9,6
DA:10,6
DA:11,17
DA:12,11
DA:13,11
DA:14,11
DA:16,6
DA:18,11
DA:19,11
DA:20,11
DA:21,1
DA:23,10
DA:25,9
DA:26,9
DA:28,8
DA:29,14
DA:30,6
DA:32,8
DA:35,11
DA:36,11
DA:38,11
DA:39,4
DA:41,7
DA:42,7
DA:44,11
DA:45,11
DA:47,2
DA:48,2
DA:49,2
DA:51,2
DA:52,1
DA:54,2
DA:55,2
DA:56,2
DA:58,2
DA:59,2
DA:60,1
DA:61,1
DA:64,1
DA:65,1
DA:66,1
DA:67,1
DA:68,1
DA:70,1
DA:71,0
DA:73,1
DA:76,1
DA:77,1
DA:79,1
DA:80,0
DA:81,0
DA:84,1
DA:85,1
DA:86,1
DA:87,1
DA:88,1
DA:91,2
DA:92,2
DA:93,1
DA:96,1
DA:97,1
DA:99,1
DA:100,0
DA:103,1
DA:104,1
DA:105,1
DA:107,2
DA:108,2
DA:109,1
DA:112,1
DA:113,0
DA:114,0
DA:116,1
DA:117,2
DA:118,1
DA:121,1
DA:122,1
DA:123,1
DA:125,1
DA:126,1
DA:128,2
DA:129,2
DA:130,1
DA:133,1
DA:134,1
DA:136,1
DA:137,0
DA:140,1
DA:141,1
DA:142,1
DA:144,2
DA:145,2
DA:147,1
DA:148,0
DA:149,0
DA:152,1
DA:153,2
DA:154,1
DA:157,1
DA:158,1
DA:159,1
DA:161,1
DA:162,0
DA:165,1
DA:166,1
DA:167,1
DA:170,0
DA:173,3
DA:174,3
DA:175,1
DA:177,2
DA:180,3
DA:181,3
DA:182,1
DA:184,2
DA:187,7
DA:188,7
DA:191,3
DA:192,3
DA:193,7
DA:194,6
DA:195,4
DA:197,1
DA:200,1
DA:201,1
DA:204,4
DA:205,4
LF:130
LH:119
end_of_record
TN:
SF:/home/obmetko/proga/Lab_Tests/Tests/C++/ForwardList.h
FNF:0
FNH:0
LF:0
LH:0
end_of_record
TN:
SF:/home/obmetko/proga/Lab_Tests/Tests/C++/Queue.cpp
FNL:0,17,32
FNA:0,1010,_ZN5Queue7enqueueERKNSt7__cxx1112basic_stringIcSt11char_traitsIcESaIcEEE
FNL:1,3,5
FNA:1,5,_ZN5QueueC2Em
FNL:2,34,57
FNA:2,3,_ZN5Queue7dequeueB5cxx11Ev
FNL:3,59,89
FNA:3,4,_ZN5Queue3delERKNSt7__cxx1112basic_stringIcSt11char_traitsIcESaIcEEE
FNL:4,7,15
FNA:4,5,_ZN5QueueD2Ev
FNL:5,91,93
FNA:5,8,_ZN5Queue7getSizeEv
FNL:6,95,97
FNA:6,2,_ZN5Queue7getHeadEv
FNF:7
FNH:7
DA:3,5
DA:4,5
DA:5,5
DA:7,5
DA:8,5
DA:10,1009
DA:11,1004
DA:12,1004
DA:13,1004
DA:15,5
DA:17,1010
DA:18,1010
DA:19,1
DA:22,1009
DA:23,1009
DA:24,6
DA:25,6
DA:28,1003
DA:29,1003
DA:31,1009
DA:32,1009
DA:34,3
DA:35,3
DA:36,1
DA:40,2
DA:41,1
DA:42,1
DA:43,1
DA:44,1
DA:45,1
DA:46,1
DA:47,1
DA:48,0
DA:50,1
DA:51,1
DA:52,1
DA:53,1
DA:54,1
DA:55,1
DA:56,1
DA:57,1
DA:59,4
DA:60,4
DA:61,6
DA:62,2
DA:65,4
DA:66,1
DA:69,3
DA:70,2
DA:71,2
DA:72,1
DA:75,1
DA:78,3
DA:79,1
DA:80,1
DA:81,0
DA:84,2
DA:87,3
DA:88,3
DA:91,8
DA:92,8
DA:95,2
DA:96,2
LF:63
LH:61
end_of_record
TN:
SF:/home/obmetko/proga/Lab_Tests/Tests/C++/Queue.h
FNF:0
FNH:0
LF:0
LH:0
end_of_record
TN:
SF:/home/obmetko/proga/Lab_Tests/Tests/C++/Stack.cpp
FNL:0,10,11
FNA:0,3,_ZN5StackC2Ev
FNL:1,13,21
FNA:1,5,_ZN5Stack4pushEi
FNL:2,23,34
FNA:2,5,_ZN5Stack3popEv
FNL:3,3,8
FNA:3,4,_ZN5Stack11createSNodeEi
FNL:4,36,38
FNA:4,2,_ZN5Stack7isEmptyEv
FNL:5,40,42
FNA:5,2,_ZN5Stack7getSizeEv
FNF:6
FNH:6
DA:3,4
DA:4,4
DA:5,4
DA:6,4
DA:7,4
DA:10,3
DA:11,3
DA:13,5
DA:14,5
DA:15,1
DA:17,4
DA:18,4
DA:19,4
DA:20,4
DA:21,4
DA:23,5
DA:24,5
DA:25,1
DA:28,4
DA:29,4
DA:30,4
DA:31,4
DA:32,4
DA:33,4
DA:36,2
DA:37,2
DA:40,2
DA:41,2
LF:28
LH:28
end_of_record
TN:
SF:/home/obmetko/proga/Lab_Tests/Tests/C++/test3.cpp
FNL:0,116,130
FNA:0,1,_ZN15DoubleListTests20DoubleListFindAndPop11test_methodEv
FNA:0,1,_ZN15DoubleListTestsL28DoubleListFindAndPop_invokerEv
FNL:1,132,145
FNA:1,1,_ZN15DoubleListTests19DoubleListEdgeCases11test_methodEv
FNA:1,1,_ZN15DoubleListTestsL27DoubleListEdgeCases_invokerEv
FNL:2,147,157
FNA:2,1,_ZN15DoubleListTests24DoubleListAddBeforeAfter11test_methodEv
FNA:2,1,_ZN15DoubleListTestsL32DoubleListAddBeforeAfter_invokerEv
FNL:3,15,25
FNA:3,1,_ZN10ArrayTests34ArrayConstructorAndBasicOperations11test_methodEv
FNA:3,1,_ZN10ArrayTestsL42ArrayConstructorAndBasicOperations_invokerEv
FNL:4,159,171
FNA:4,1,_ZN15DoubleListTests23DoubleListDeleteByValue11test_methodEv
FNA:4,1,_ZN15DoubleListTestsL31DoubleListDeleteByValue_invokerEv
FNL:5,173,178
FNA:5,1,_ZN15DoubleListTests20DoubleListExceptions11test_methodEv
FNA:5,1,_ZN15DoubleListTestsL28DoubleListExceptions_invokerEv
FNL:6,180,187
FNA:6,1,_ZN15DoubleListTests27DoubleListFromTailTraversal11test_methodEv
FNA:6,1,_ZN15DoubleListTestsL35DoubleListFromTailTraversal_invokerEv
FNL:7,193,203
FNA:7,1,_ZN16ForwardListTests26ForwardListBasicOperations11test_methodEv
FNA:7,1,_ZN16ForwardListTestsL34ForwardListBasicOperations_invokerEv
FNL:8,205,226
FNA:8,1,_ZN16ForwardListTests23ForwardListInsertRemove11test_methodEv
FNA:8,1,_ZN16ForwardListTestsL31ForwardListInsertRemove_invokerEv
FNL:9,228,240
FNA:9,1,_ZN16ForwardListTests15ForwardListFind11test_methodEv
FNA:9,1,_ZN16ForwardListTestsL23ForwardListFind_invokerEv
FNL:10,242,254
FNA:10,1,_ZN16ForwardListTests22ForwardListRemoveAfter11test_methodEv
FNA:10,1,_ZN16ForwardListTestsL30ForwardListRemoveAfter_invokerEv
FNL:11,256,267
FNA:11,1,_ZN16ForwardListTests21ForwardListExceptions11test_methodEv
FNA:11,1,_ZN16ForwardListTestsL29ForwardListExceptions_invokerEv
FNL:12,269,274
FNA:12,1,_ZN16ForwardListTests26ForwardListEmptyOperations11test_methodEv
FNA:12,1,_ZN16ForwardListTestsL34ForwardListEmptyOperations_invokerEv
FNL:13,27,32
FNA:13,1,_ZN10ArrayTests22ArrayStringConstructor11test_methodEv
FNA:13,1,_ZN10ArrayTestsL30ArrayStringConstructor_invokerEv
FNL:14,280,291
FNA:14,1,_ZN10QueueTests19QueueEnqueueDequeue11test_methodEv
FNA:14,1,_ZN10QueueTestsL27QueueEnqueueDequeue_invokerEv
FNL:15,293,307
FNA:15,1,_ZN10QueueTests11QueueDelete11test_methodEv
FNA:15,1,_ZN10QueueTestsL19QueueDelete_invokerEv
FNL:16,309,321
FNA:16,1,_ZN10QueueTests14QueueEdgeCases11test_methodEv
FNA:16,1,_ZN10QueueTestsL22QueueEdgeCases_invokerEv
FNL:17,323,331
FNA:17,1,_ZN10QueueTests15QueueExceptions11test_methodEv
FNA:17,1,_ZN10QueueTestsL23QueueExceptions_invokerEv
FNL:18,333,338
FNA:18,1,_ZN10QueueTests12QueueGetHead11test_methodEv
FNA:18,1,_ZN10QueueTestsL20QueueGetHead_invokerEv
FNL:19,34,50
FNA:19,1,_ZN10ArrayTests17ArrayAddAndDelete11test_methodEv
FNA:19,1,_ZN10ArrayTestsL25ArrayAddAndDelete_invokerEv
FNL:20,344,353
FNA:20,1,_ZN10StackTests12StackPushPop11test_methodEv
FNA:20,1,_ZN10StackTestsL20StackPushPop_invokerEv
FNL:21,355,365
FNA:21,1,_ZN10StackTests22StackOverflowUnderflow11test_methodEv
FNA:21,1,_ZN10StackTestsL30StackOverflowUnderflow_invokerEv
FNL:22,367,371
FNA:22,1,_ZN10StackTests20StackEmptyOperations11test_methodEv
FNA:22,1,_ZN10StackTestsL28StackEmptyOperations_invokerEv
FNL:23,377,385
FNA:23,1,_ZN13ChainMapTests15ChainMapAddFind11test_methodEv
FNA:23,1,_ZN13ChainMapTestsL23ChainMapAddFind_invokerEv
FNL:24,387,396
FNA:24,1,_ZN13ChainMapTests14ChainMapDelete11test_methodEv
FNA:24,1,_ZN13ChainMapTestsL22ChainMapDelete_invokerEv
FNL:25,398,408
FNA:25,1,_ZN13ChainMapTests14ChainMapRehash11test_methodEv
FNA:25,1,_ZN13ChainMapTestsL22ChainMapRehash_invokerEv
FNL:26,410,416
FNA:26,1,_ZN13ChainMapTests19ChainMapUpdateValue11test_methodEv
FNA:26,1,_ZN13ChainMapTestsL27ChainMapUpdateValue_invokerEv
FNL:27,418,433
FNA:27,1,_ZN13ChainMapTests18ChainMapGetAllKeys11test_methodEv
FNA:27,1,_ZN13ChainMapTestsL26ChainMapGetAllKeys_invokerEv
FNL:28,435,438
FNA:28,1,_ZN13ChainMapTests18ChainMapExceptions11test_methodEv
FNA:28,1,_ZN13ChainMapTestsL26ChainMapExceptions_invokerEv
FNL:29,440,445
FNA:29,1,_ZN13ChainMapTests21ChainMapPrintContents11test_methodEv
FNA:29,1,_ZN13ChainMapTestsL29ChainMapPrintContents_invokerEv
FNL:30,451,457
FNA:30,1,_ZN11RBTreeTests21firstFixViolationTest11test_methodEv
FNA:30,1,_ZN11RBTreeTestsL29firstFixViolationTest_invokerEv
FNL:31,459,466
FNA:31,1,_ZN11RBTreeTests22secondFixViolationTest11test_methodEv
FNA:31,1,_ZN11RBTreeTestsL30secondFixViolationTest_invokerEv
FNL:32,468,475
FNA:32,1,_ZN11RBTreeTests21thirdFixViolationTest11test_methodEv
FNA:32,1,_ZN11RBTreeTestsL29thirdFixViolationTest_invokerEv
FNL:33,477,484
FNA:33,1,_ZN11RBTreeTests21sixthFixViolationTest11test_methodEv
FNA:33,1,_ZN11RBTreeTestsL29sixthFixViolationTest_invokerEv
FNL:34,486,503
FNA:34,1,_ZN11RBTreeTests23RBTreeComplexOperations11test_methodEv
FNA:34,1,_ZN11RBTreeTestsL31RBTreeComplexOperations_invokerEv
FNL:35,505,509
FNA:35,1,_ZN11RBTreeTests21RBTreeEmptyOperations11test_methodEv
FNA:35,1,_ZN11RBTreeTestsL29RBTreeEmptyOperations_invokerEv
FNL:36,511,515
FNA:36,1,_ZN11RBTreeTests21RBTreeDuplicateInsert11test_methodEv
FNA:36,1,_ZN11RBTreeTestsL29RBTreeDuplicateInsert_invokerEv
FNL:37,517,525
FNA:37,1,_ZN11RBTreeTests18RBTreeRootDeletion11test_methodEv
FNA:37,1,_ZN11RBTreeTestsL26RBTreeRootDeletion_invokerEv
FNL:38,52,60
FNA:38,1,_ZN10ArrayTests11ArraySearch11test_methodEv
FNA:38,1,_ZN10ArrayTestsL19ArraySearch_invokerEv
FNL:39,527,551
FNA:39,1,_ZN11RBTreeTests30RBTreeComplexDeletionScenarios11test_methodEv
FNA:39,1,_ZN11RBTreeTestsL38RBTreeComplexDeletionScenarios_invokerEv
FNL:40,62,69
FNA:40,1,_ZN10ArrayTests15ArrayExceptions11test_methodEv
FNA:40,1,_ZN10ArrayTestsL23ArrayExceptions_invokerEv
FNL:41,71,77
FNA:41,1,_ZN10ArrayTests15ArraySetElement11test_methodEv
FNA:41,1,_ZN10ArrayTestsL23ArraySetElement_invokerEv
FNL:42,79,86
FNA:42,1,_ZN10ArrayTests11ArrayExtend11test_methodEv
FNA:42,1,_ZN10ArrayTestsL19ArrayExtend_invokerEv
FNL:43,88,93
FNA:43,1,_ZN10ArrayTests12ArrayGetHead11test_methodEv
FNA:43,1,_ZN10ArrayTestsL20ArrayGetHead_invokerEv
FNL:44,99,114
FNA:44,1,_ZN15DoubleListTests22DoubleListAddAndRemove11test_methodEv
FNA:44,1,_ZN15DoubleListTestsL30DoubleListAddAndRemove_invokerEv
FNF:45
FNH:45
DA:15,2
DA:16,1
DA:17,1
DA:18,1
DA:20,2
DA:21,1
DA:22,1
DA:23,1
DA:24,1
DA:25,1
DA:27,2
DA:28,1
DA:29,1
DA:30,1
DA:31,1
DA:32,1
DA:34,2
DA:35,1
DA:36,2
DA:37,2
DA:38,1
DA:40,1
DA:42,1
DA:43,1
DA:44,1
DA:45,1
DA:47,1
DA:48,1
DA:49,1
DA:50,1
DA:52,2
DA:53,1
DA:54,2
DA:55,2
DA:56,1
DA:58,2
DA:59,2
DA:60,1
DA:62,2
DA:63,1
DA:64,1
DA:65,1
DA:66,3
DA:67,1
DA:68,3
DA:69,1
DA:71,2
DA:72,1
DA:73,2
DA:74,2
DA:75,1
DA:76,1
DA:77,1
DA:79,2
DA:80,1
DA:81,2
DA:82,2
DA:83,1
DA:84,1
DA:85,1
DA:86,1
DA:88,2
DA:89,1
DA:90,1
DA:91,1
DA:92,1
DA:93,1
DA:99,2
DA:100,1
DA:101,2
DA:102,2
DA:103,1
DA:105,1
DA:106,1
DA:107,1
DA:108,1
DA:110,1
DA:111,1
DA:112,1
DA:113,1
DA:114,1
DA:116,2
DA:117,1
DA:118,2
DA:119,2
DA:120,2
DA:122,1
DA:123,1
DA:125,1
DA:126,1
DA:127,1
DA:129,3
DA:130,1
DA:132,2
DA:133,1
DA:134,1
DA:136,1
DA:137,1
DA:139,1
DA:140,1
DA:142,1
DA:143,1
DA:144,1
DA:145,1
DA:147,2
DA:148,1
DA:149,2
DA:150,2
DA:151,1
DA:153,1
DA:154,1
DA:155,1
DA:156,1
DA:157,1
DA:159,2
DA:160,1
DA:161,2
DA:162,2
DA:163,2
DA:165,1
DA:166,1
DA:167,1
DA:168,1
DA:170,3
DA:171,1
DA:173,2
DA:174,1
DA:175,1
DA:176,1
DA:177,1
DA:178,1
DA:180,2
DA:181,1
DA:182,11
DA:183,10
DA:185,1
DA:186,1
DA:187,1
DA:193,2
DA:194,1
DA:195,2
DA:196,2
DA:197,1
DA:199,1
DA:200,1
DA:201,1
DA:202,1
DA:203,1
DA:205,2
DA:206,1
DA:207,2
DA:208,2
DA:209,2
DA:211,1
DA:212,1
DA:214,1
DA:215,1
DA:217,1
DA:218,1
DA:219,1
DA:221,1
DA:222,1
DA:224,1
DA:225,1
DA:226,1
DA:228,2
DA:229,1
DA:230,2
DA:231,2
DA:232,2
DA:234,1
DA:235,1
DA:236,1
DA:238,1
DA:239,1
DA:240,1
DA:242,2
DA:243,1
DA:244,2
DA:245,2
DA:246,2
DA:248,1
DA:249,1
DA:251,1
DA:252,1
DA:253,1
DA:254,1
DA:256,2
DA:257,1
DA:258,1
DA:259,1
DA:260,1
DA:261,1
DA:262,1
DA:264,1
DA:265,1
DA:266,1
DA:267,1
DA:269,2
DA:270,1
DA:271,1
DA:272,1
DA:273,3
DA:274,1
DA:280,2
DA:281,1
DA:282,2
DA:283,2
DA:284,1
DA:286,1
DA:288,1
DA:289,1
DA:290,1
DA:291,1
DA:293,2
DA:294,1
DA:295,2
DA:296,2
DA:297,2
DA:299,1
DA:300,1
DA:302,1
DA:303,1
DA:305,1
DA:306,1
DA:307,1
DA:309,2
DA:310,1
DA:311,1
DA:313,1
DA:314,1
DA:315,1
DA:316,1
DA:318,2
DA:319,1
DA:320,1
DA:321,1
DA:323,2
DA:324,1
DA:325,1
DA:327,1001
DA:328,1000
DA:330,3
DA:331,1
DA:333,2
DA:334,1
DA:335,1
DA:336,1
DA:337,1
DA:338,1
DA:344,2
DA:345,1
DA:346,1
DA:347,1
DA:349,1
DA:350,1
DA:351,1
DA:352,1
DA:353,1
DA:355,2
DA:356,1
DA:357,1
DA:358,1
DA:360,1
DA:362,1
DA:363,1
DA:364,1
DA:365,1
DA:367,2
DA:368,1
DA:369,1
DA:370,1
DA:371,1
DA:377,2
DA:378,1
DA:379,2
DA:380,1
DA:382,3
DA:383,2
DA:384,2
DA:385,1
DA:387,2
DA:388,1
DA:389,2
DA:390,2
DA:392,1
DA:393,3
DA:394,3
DA:395,2
DA:396,1
DA:398,2
DA:399,1
DA:400,2
DA:401,2
DA:402,1
DA:404,3
DA:405,3
DA:406,3
DA:407,2
DA:408,1
DA:410,2
DA:411,1
DA:412,2
DA:413,1
DA:415,2
DA:416,1
DA:418,2
DA:419,1
DA:420,2
DA:421,2
DA:422,1
DA:424,1
DA:425,1
DA:427,3
DA:428,3
DA:429,3
DA:431,1
DA:432,1
DA:433,1
DA:435,2
DA:436,1
DA:437,3
DA:438,1
DA:440,2
DA:441,1
DA:442,2
DA:443,1
DA:444,1
DA:445,1
DA:451,2
DA:452,1
DA:453,1
DA:454,1
DA:455,1
DA:456,1
DA:457,1
DA:459,2
DA:460,1
DA:461,1
DA:462,1
DA:463,1
DA:464,1
DA:465,1
DA:466,1
DA:468,2
DA:469,1
DA:470,1
DA:471,1
DA:472,1
DA:473,1
DA:474,1
DA:475,1
DA:477,2
DA:478,1
DA:479,1
DA:480,1
DA:481,1
DA:482,1
DA:483,1
DA:484,1
DA:486,2
DA:487,1
DA:488,11
DA:489,10
DA:492,6
DA:493,5
DA:496,6
DA:497,5
DA:500,6
DA:501,5
DA:503,1
DA:505,2
DA:506,1
DA:507,1
DA:508,1
DA:509,1
DA:511,2
DA:512,1
DA:513,1
DA:514,1
DA:515,1
DA:517,2
DA:518,1
DA:519,1
DA:520,1
DA:521,1
DA:522,1
DA:523,1
DA:524,1
DA:525,1
DA:527,2
DA:528,1
DA:529,1
DA:530,1
DA:531,1
DA:532,1
DA:533,1
DA:534,1
DA:535,1
DA:537,1
DA:538,1
DA:539,1
DA:540,1
DA:542,1
DA:543,1
DA:545,1
DA:546,1
DA:547,1
DA:549,1
DA:550,1
DA:551,1
LF:411
LH:411
end_of_record
TN:
SF:/usr/include/boost/algorithm/cxx11/all_of.hpp
FNL:0,31,37
FNA:0,215,_ZN5boost9algorithm6all_ofIN9__gnu_cxx17__normal_iteratorIPcNSt7__cxx1112basic_stringIcSt11char_traitsIcESaIcEEEEEPFbcEEEbT_SE_T0_
FNF:1
FNH:1
DA:31,215
DA:33,1346
DA:34,1832
DA:35,0
DA:36,215
LF:5
LH:4
end_of_record
TN:
SF:/usr/include/boost/bind/bind.hpp
FNL:0,119,122
FNA:0,3,_ZN5boost3_bi9unwrapperINS_4_mfi2mfIMNS_9unit_test13test_observerEFvmmEvS5_JmmEEEE6unwrapERS8_l
FNA:0,0,_ZN5boost3_bi9unwrapperINS_4_mfi2mfIMNS_9unit_test15unit_test_log_tEFvNS4_13output_formatERSoEvS5_JS6_S7_EEEE6unwrapERSA_l
FNA:0,0,_ZN5boost3_bi9unwrapperINS_4_mfi2mfIMNS_9unit_test15unit_test_log_tEFvRSoEvS5_JS6_EEEE6unwrapERS9_l
FNA:0,0,_ZN5boost3_bi9unwrapperINS_4_mfi2mfIMNS_9unit_test17test_unit_fixtureEFvvEvS5_JEEEE6unwrapERS8_l
FNA:0,0,_ZN5boost3_bi9unwrapperINS_4_mfi2mfIMNS_9unit_test9framework4impl11name_filter9componentEKFbRKNS4_9test_unitEEbS8_JSB_EEEE6unwrapERSE_l
FNA:0,1,_ZN5boost3_bi9unwrapperIPFvPFPNS_9unit_test10test_suiteEiPPcEEE6unwrapERSA_l
FNA:0,0,_ZN5boost3_bi9unwrapperIPFvRSoEE6unwrapERS4_l
FNL:1,173,173
FNA:1,0,_ZN5boost3_bi4listIJNS0_5valueINS_10shared_ptrINS_9unit_test17test_unit_fixtureEEEEEEEC2ES7_
FNA:1,1,_ZN5boost3_bi4listIJNS0_5valueIPFPNS_9unit_test10test_suiteEiPPcEEEEEC2ESA_
FNA:1,3,_ZN5boost3_bi4listIJNS0_5valueIPNS_9unit_test13test_observerEEENS2_INS3_17test_case_counter19readonly_property43EEENS2_ImEEEEC2ES6_S9_SA_
FNA:1,0,_ZN5boost3_bi4listIJNS0_5valueIPNS_9unit_test15unit_test_log_tEEENS2_INS3_13output_formatEEENS_17reference_wrapperISoEEEEC2ES6_S8_SA_
FNA:1,0,_ZN5boost3_bi4listIJNS0_5valueIPNS_9unit_test15unit_test_log_tEEENS_17reference_wrapperISoEEEEC2ES6_S8_
FNA:1,0,_ZN5boost3_bi4listIJNS_17reference_wrapperISoEEEEC2ES3_
FNA:1,0,_ZN5boost3_bi4listIJNS_3argILi1EEENS_17reference_wrapperIKNS_9unit_test9test_unitEEEEEC2ES3_S8_
FNL:2,180,183
FNA:2,0,_ZN5boost3_bi4listIJNS_3argILi1EEENS_17reference_wrapperIKNS_9unit_test9test_unitEEEEE9call_implIbNS_4_mfi2mfIMNS5_9framework4impl11name_filter9componentEKFbRS7_EbSG_JSH_EEENS0_6rrlistIJRKSG_EEEJLm0ELm1EEEET_NS0_4typeISP_EERT0_RT1_NS0_16integer_sequenceImJXspT2_EEEE
FNL:3,190,193
FNA:3,0,_ZN5boost3_bi4listIJNS0_5valueINS_10shared_ptrINS_9unit_test17test_unit_fixtureEEEEEEE9call_implINS_4_mfi2mfIMS5_FvvEvS5_JEEENS0_6rrlistIJEEEJLm0EEEEvNS0_4typeIvEERT_RT0_NS0_16integer_sequenceImJXspT1_EEEE
FNA:3,1,_ZN5boost3_bi4listIJNS0_5valueIPFPNS_9unit_test10test_suiteEiPPcEEEEE9call_implIPFvS9_ENS0_6rrlistIJEEEJLm0EEEEvNS0_4typeIvEERT_RT0_NS0_16integer_sequenceImJXspT1_EEEE
FNA:3,3,_ZN5boost3_bi4listIJNS0_5valueIPNS_9unit_test13test_observerEEENS2_INS3_17test_case_counter19readonly_property43EEENS2_ImEEEE9call_implINS_4_mfi2mfIMS4_FvmmEvS4_JmmEEENS0_6rrlistIJEEEJLm0ELm1ELm2EEEEvNS0_4typeIvEERT_RT0_NS0_16integer_sequenceImJXspT1_EEEE
FNA:3,0,_ZN5boost3_bi4listIJNS0_5valueIPNS_9unit_test15unit_test_log_tEEENS2_INS3_13output_formatEEENS_17reference_wrapperISoEEEE9call_implINS_4_mfi2mfIMS4_FvS7_RSoEvS4_JS7_SF_EEENS0_6rrlistIJEEEJLm0ELm1ELm2EEEEvNS0_4typeIvEERT_RT0_NS0_16integer_sequenceImJXspT1_EEEE
FNA:3,0,_ZN5boost3_bi4listIJNS0_5valueIPNS_9unit_test15unit_test_log_tEEENS_17reference_wrapperISoEEEE9call_implINS_4_mfi2mfIMS4_FvRSoEvS4_JSD_EEENS0_6rrlistIJEEEJLm0ELm1EEEEvNS0_4typeIvEERT_RT0_NS0_16integer_sequenceImJXspT1_EEEE
FNA:3,0,_ZN5boost3_bi4listIJNS_17reference_wrapperISoEEEE9call_implIPFvRSoENS0_6rrlistIJEEEJLm0EEEEvNS0_4typeIvEERT_RT0_NS0_16integer_sequenceImJXspT1_EEEE
FNL:4,206,209
FNA:4,0,_ZN5boost3_bi4listIJNS0_5valueINS_10shared_ptrINS_9unit_test17test_unit_fixtureEEEEEEEclIvNS_4_mfi2mfIMS5_FvvEvS5_JEEENS0_6rrlistIJEEEEET_NS0_4typeISH_EERT0_RT1_
FNA:4,1,_ZN5boost3_bi4listIJNS0_5valueIPFPNS_9unit_test10test_suiteEiPPcEEEEEclIvPFvS9_ENS0_6rrlistIJEEEEET_NS0_4typeISH_EERT0_RT1_
FNA:4,3,_ZN5boost3_bi4listIJNS0_5valueIPNS_9unit_test13test_observerEEENS2_INS3_17test_case_counter19readonly_property43EEENS2_ImEEEEclIvNS_4_mfi2mfIMS4_FvmmEvS4_JmmEEENS0_6rrlistIJEEEEET_NS0_4typeISK_EERT0_RT1_
FNA:4,0,_ZN5boost3_bi4listIJNS0_5valueIPNS_9unit_test15unit_test_log_tEEENS2_INS3_13output_formatEEENS_17reference_wrapperISoEEEEclIvNS_4_mfi2mfIMS4_FvS7_RSoEvS4_JS7_SF_EEENS0_6rrlistIJEEEEET_NS0_4typeISL_EERT0_RT1_
FNA:4,0,_ZN5boost3_bi4listIJNS0_5valueIPNS_9unit_test15unit_test_log_tEEENS_17reference_wrapperISoEEEEclIvNS_4_mfi2mfIMS4_FvRSoEvS4_JSD_EEENS0_6rrlistIJEEEEET_NS0_4typeISJ_EERT0_RT1_
FNA:4,0,_ZN5boost3_bi4listIJNS_17reference_wrapperISoEEEEclIvPFvRSoENS0_6rrlistIJEEEEET_NS0_4typeISB_EERT0_RT1_
FNA:4,0,_ZN5boost3_bi4listIJNS_3argILi1EEENS_17reference_wrapperIKNS_9unit_test9test_unitEEEEEclIbNS_4_mfi2mfIMNS5_9framework4impl11name_filter9componentEKFbRS7_EbSG_JSH_EEENS0_6rrlistIJRKSG_EEEEET_NS0_4typeISP_EERT0_RT1_
FNL:5,270,270
FNA:5,4,_ZN5boost3_bi6rrlistIJEEC2Ev
FNA:5,0,_ZN5boost3_bi6rrlistIJRKNS_9unit_test9framework4impl11name_filter9componentEEEC2ES8_
FNL:6,273,276
FNA:6,0,_ZNK5boost3_bi6rrlistIJRKNS_9unit_test9framework4impl11name_filter9componentEEEixILi1EEEONSt13tuple_elementIXmiT_Li1EESt5tupleIJS8_EEE4typeENS_3argIXT_EEE
FNL:7,283,283
FNA:7,0,_ZNK5boost3_bi6rrlistIJEEixINS_10shared_ptrINS_9unit_test17test_unit_fixtureEEEEERT_RNS0_5valueIS8_EE
FNA:7,0,_ZNK5boost3_bi6rrlistIJEEixINS_9unit_test13output_formatEEERT_RNS0_5valueIS6_EE
FNA:7,3,_ZNK5boost3_bi6rrlistIJEEixINS_9unit_test17test_case_counter19readonly_property43EEERT_RNS0_5valueIS7_EE
FNA:7,1,_ZNK5boost3_bi6rrlistIJEEixIPFPNS_9unit_test10test_suiteEiPPcEEERT_RNS0_5valueISB_EE
FNA:7,3,_ZNK5boost3_bi6rrlistIJEEixIPNS_9unit_test13test_observerEEERT_RNS0_5valueIS7_EE
FNA:7,0,_ZNK5boost3_bi6rrlistIJEEixIPNS_9unit_test15unit_test_log_tEEERT_RNS0_5valueIS7_EE
FNA:7,3,_ZNK5boost3_bi6rrlistIJEEixImEERT_RNS0_5valueIS4_EE
FNL:8,287,287
FNA:8,0,_ZNK5boost3_bi6rrlistIJEEixISoEERT_RKNS_17reference_wrapperIS4_EE
FNA:8,0,_ZNK5boost3_bi6rrlistIJRKNS_9unit_test9framework4impl11name_filter9componentEEEixIKNS2_9test_unitEEERT_RKNS_17reference_wrapperISD_EE
FNL:9,314,314
FNA:9,3,_ZN5boost3_bi6bind_tINS0_11unspecifiedENS_4_mfi2mfIMNS_9unit_test13test_observerEFvmmEvS6_JmmEEENS0_4listIJNS0_5valueIPS6_EENSB_INS5_17test_case_counter19readonly_property43EEENSB_ImEEEEEEC2ES9_RKSI_
FNA:9,0,_ZN5boost3_bi6bind_tINS0_11unspecifiedENS_4_mfi2mfIMNS_9unit_test15unit_test_log_tEFvNS5_13output_formatERSoEvS6_JS7_S8_EEENS0_4listIJNS0_5valueIPS6_EENSD_IS7_EENS_17reference_wrapperISoEEEEEEC2ESB_RKSJ_
FNA:9,0,_ZN5boost3_bi6bind_tINS0_11unspecifiedENS_4_mfi2mfIMNS_9unit_test15unit_test_log_tEFvRSoEvS6_JS7_EEENS0_4listIJNS0_5valueIPS6_EENS_17reference_wrapperISoEEEEEEC2ESA_RKSH_
FNA:9,0,_ZN5boost3_bi6bind_tINS0_11unspecifiedENS_4_mfi2mfIMNS_9unit_test17test_unit_fixtureEFvvEvS6_JEEENS0_4listIJNS0_5valueINS_10shared_ptrIS6_EEEEEEEEC2ES9_RKSF_
FNA:9,0,_ZN5boost3_bi6bind_tINS0_11unspecifiedENS_4_mfi2mfIMNS_9unit_test9framework4impl11name_filter9componentEKFbRKNS5_9test_unitEEbS9_JSC_EEENS0_4listIJNS_3argILi1EEENS_17reference_wrapperISB_EEEEEEC2ESF_RKSL_
FNA:9,1,_ZN5boost3_bi6bind_tIvPFvPFPNS_9unit_test10test_suiteEiPPcEENS0_4listIJNS0_5valueIS8_EEEEEEC2ESA_RKSE_
FNA:9,0,_ZN5boost3_bi6bind_tIvPFvRSoENS0_4listIJNS_17reference_wrapperISoEEEEEEC2ES4_RKS8_
FNL:10,318,322
FNA:10,3,_ZN5boost3_bi6bind_tINS0_11unspecifiedENS_4_mfi2mfIMNS_9unit_test13test_observerEFvmmEvS6_JmmEEENS0_4listIJNS0_5valueIPS6_EENSB_INS5_17test_case_counter19readonly_property43EEENSB_ImEEEEEEclIJEEEvDpOT_
FNA:10,0,_ZN5boost3_bi6bind_tINS0_11unspecifiedENS_4_mfi2mfIMNS_9unit_test15unit_test_log_tEFvNS5_13output_formatERSoEvS6_JS7_S8_EEENS0_4listIJNS0_5valueIPS6_EENSD_IS7_EENS_17reference_wrapperISoEEEEEEclIJEEEvDpOT_
FNA:10,0,_ZN5boost3_bi6bind_tINS0_11unspecifiedENS_4_mfi2mfIMNS_9unit_test15unit_test_log_tEFvRSoEvS6_JS7_EEENS0_4listIJNS0_5valueIPS6_EENS_17reference_wrapperISoEEEEEEclIJEEEvDpOT_
FNA:10,0,_ZN5boost3_bi6bind_tINS0_11unspecifiedENS_4_mfi2mfIMNS_9unit_test17test_unit_fixtureEFvvEvS6_JEEENS0_4listIJNS0_5valueINS_10shared_ptrIS6_EEEEEEEEclIJEEEvDpOT_
FNA:10,0,_ZN5boost3_bi6bind_tINS0_11unspecifiedENS_4_mfi2mfIMNS_9unit_test9framework4impl11name_filter9componentEKFbRKNS5_9test_unitEEbS9_JSC_EEENS0_4listIJNS_3argILi1EEENS_17reference_wrapperISB_EEEEEEclIJRKS9_EEEbDpOT_
FNA:10,1,_ZN5boost3_bi6bind_tIvPFvPFPNS_9unit_test10test_suiteEiPPcEENS0_4listIJNS0_5valueIS8_EEEEEEclIJEEEvDpOT_
FNA:10,0,_ZN5boost3_bi6bind_tIvPFvRSoENS0_4listIJNS_17reference_wrapperISoEEEEEEclIJEEEvDpOT_
FNL:11,604,608
FNA:11,3,_ZN5boost4bindINS_4_mfi2mfIMNS_9unit_test13test_observerEFvmmEvS4_JmmEEEJPS4_NS3_17test_case_counter19readonly_property43EmEEENS_3_bi6bind_tINSB_11unspecifiedET_NSB_7list_avIJDpT0_EE4typeEEESE_SH_
FNA:11,0,_ZN5boost4bindINS_4_mfi2mfIMNS_9unit_test15unit_test_log_tEFvNS3_13output_formatERSoEvS4_JS5_S6_EEEJPS4_S5_NS_17reference_wrapperISoEEEEENS_3_bi6bind_tINSD_11unspecifiedET_NSD_7list_avIJDpT0_EE4typeEEESG_SJ_
FNA:11,0,_ZN5boost4bindINS_4_mfi2mfIMNS_9unit_test15unit_test_log_tEFvRSoEvS4_JS5_EEEJPS4_NS_17reference_wrapperISoEEEEENS_3_bi6bind_tINSC_11unspecifiedET_NSC_7list_avIJDpT0_EE4typeEEESF_SI_
FNA:11,0,_ZN5boost4bindINS_4_mfi2mfIMNS_9unit_test17test_unit_fixtureEFvvEvS4_JEEEJNS_10shared_ptrIS4_EEEEENS_3_bi6bind_tINSA_11unspecifiedET_NSA_7list_avIJDpT0_EE4typeEEESD_SG_
FNA:11,0,_ZN5boost4bindINS_4_mfi2mfIMNS_9unit_test9framework4impl11name_filter9componentEKFbRKNS3_9test_unitEEbS7_JSA_EEEJNS_3argILi1EEENS_17reference_wrapperIS9_EEEEENS_3_bi6bind_tINSI_11unspecifiedET_NSI_7list_avIJDpT0_EE4typeEEESL_SO_
FNL:12,89,89
FNA:12,0,_ZN5boost3_bi5valueINS_10shared_ptrINS_9unit_test17test_unit_fixtureEEEEC2ERKS5_
FNA:12,0,_ZN5boost3_bi5valueINS_9unit_test13output_formatEEC2ERKS3_
FNA:12,3,_ZN5boost3_bi5valueINS_9unit_test17test_case_counter19readonly_property43EEC2ERKS4_
FNA:12,1,_ZN5boost3_bi5valueIPFPNS_9unit_test10test_suiteEiPPcEEC2ERKS8_
FNA:12,3,_ZN5boost3_bi5valueIPNS_9unit_test13test_observerEEC2ERKS4_
FNA:12,0,_ZN5boost3_bi5valueIPNS_9unit_test15unit_test_log_tEEC2ERKS4_
FNA:12,3,_ZN5boost3_bi5valueImEC2ERKm
FNL:13,91,91
FNA:13,0,_ZN5boost3_bi5valueINS_10shared_ptrINS_9unit_test17test_unit_fixtureEEEE3getEv
FNA:13,0,_ZN5boost3_bi5valueINS_9unit_test13output_formatEE3getEv
FNA:13,3,_ZN5boost3_bi5valueINS_9unit_test17test_case_counter19readonly_property43EE3getEv
FNA:13,1,_ZN5boost3_bi5valueIPFPNS_9unit_test10test_suiteEiPPcEE3getEv
FNA:13,3,_ZN5boost3_bi5valueIPNS_9unit_test13test_observerEE3getEv
FNA:13,0,_ZN5boost3_bi5valueIPNS_9unit_test15unit_test_log_tEE3getEv
FNA:13,3,_ZN5boost3_bi5valueImE3getEv
FNF:14
FNH:11
DA:89,10
DA:91,10
DA:119,4
DA:121,4
DA:173,4
DA:180,0
DA:182,0
DA:190,4
DA:192,4
DA:193,4
DA:206,4
DA:208,4
DA:270,4
DA:273,0
DA:275,0
DA:283,10
DA:287,0
DA:314,4
DA:318,4
DA:320,4
DA:321,8
DA:604,3
DA:607,6
LF:23
LH:18
end_of_record
TN:
SF:/usr/include/boost/bind/detail/bind_cc.hpp
FNL:0,26,31
FNA:0,1,_ZN5boost4bindIvPFPNS_9unit_test10test_suiteEiPPcES7_EENS_3_bi6bind_tIT_PFSA_T0_ENS8_7list_avIJT1_EE4typeEEESD_SF_
FNA:0,0,_ZN5boost4bindIvRSoNS_17reference_wrapperISoEEEENS_3_bi6bind_tIT_PFS6_T0_ENS4_7list_avIJT1_EE4typeEEES9_SB_
FNF:1
FNH:1
DA:26,1
DA:30,1
LF:2
LH:2
end_of_record
TN:
SF:/usr/include/boost/bind/detail/bind_mf_cc.hpp
FNL:0,105,109
FNA:0,3,_ZN5boost4bindIvNS_9unit_test13test_observerEmmPS2_NS1_17test_case_counter19readonly_property43EmEEDTcl4bindcl6mem_fnfp_Efp0_fp1_fp2_EEMT0_FT_T1_T2_ET3_T4_T5_
FNA:0,0,_ZN5boost4bindIvNS_9unit_test15unit_test_log_tENS1_13output_formatERSoPS2_S3_NS_17reference_wrapperISoEEEEDTcl4bindcl6mem_fnfp_Efp0_fp1_fp2_EEMT0_FT_T1_T2_ET3_T4_T5_
FNL:1,20,24
FNA:1,0,_ZN5boost4bindIvNS_9unit_test17test_unit_fixtureENS_10shared_ptrIS2_EEEEDTcl4bindcl6mem_fnfp_Efp0_EEMT0_FT_vET1_
FNL:2,61,65
FNA:2,0,_ZN5boost4bindIvNS_9unit_test15unit_test_log_tERSoPS2_NS_17reference_wrapperISoEEEEDTcl4bindcl6mem_fnfp_Efp0_fp1_EEMT0_FT_T1_ET2_T3_
FNL:3,71,75
FNA:3,0,_ZN5boost4bindIbNS_9unit_test9framework4impl11name_filter9componentERKNS1_9test_unitENS_3argILi1EEENS_17reference_wrapperIS7_EEEEDTcl4bindcl6mem_fnfp_Efp0_fp1_EEMT0_KFT_T1_ET2_T3_
FNF:4
FNH:1
DA:20,0
DA:23,0
DA:61,0
DA:64,0
DA:71,0
DA:74,0
DA:105,3
DA:108,3
LF:8
LH:2
end_of_record
TN:
SF:/usr/include/boost/bind/mem_fn.hpp
FNL:0,50,50
FNA:0,3,_ZN5boost4_mfi2mfIMNS_9unit_test13test_observerEFvmmEvS3_JmmEEC2ES5_
FNA:0,0,_ZN5boost4_mfi2mfIMNS_9unit_test15unit_test_log_tEFvNS2_13output_formatERSoEvS3_JS4_S5_EEC2ES7_
FNA:0,0,_ZN5boost4_mfi2mfIMNS_9unit_test15unit_test_log_tEFvRSoEvS3_JS4_EEC2ES6_
FNA:0,0,_ZN5boost4_mfi2mfIMNS_9unit_test17test_unit_fixtureEFvvEvS3_JEEC2ES5_
FNA:0,0,_ZN5boost4_mfi2mfIMNS_9unit_test9framework4impl11name_filter9componentEKFbRKNS2_9test_unitEEbS6_JS9_EEC2ESB_
FNL:1,59,62
FNA:1,0,_ZNK5boost4_mfi2mfIMNS_9unit_test9framework4impl11name_filter9componentEKFbRKNS2_9test_unitEEbS6_JS9_EEclIRKS6_S6_vEEbOT_S9_
FNL:2,72,75
FNA:2,3,_ZNK5boost4_mfi2mfIMNS_9unit_test13test_observerEFvmmEvS3_JmmEEclIRPS3_S8_vvEEvOT_mm
FNA:2,0,_ZNK5boost4_mfi2mfIMNS_9unit_test15unit_test_log_tEFvNS2_13output_formatERSoEvS3_JS4_S5_EEclIRPS3_SA_vvEEvOT_S4_S5_
FNA:2,0,_ZNK5boost4_mfi2mfIMNS_9unit_test15unit_test_log_tEFvRSoEvS3_JS4_EEclIRPS3_S9_vvEEvOT_S4_
FNA:2,0,_ZNK5boost4_mfi2mfIMNS_9unit_test17test_unit_fixtureEFvvEvS3_JEEclIRNS_10shared_ptrIS3_EES9_vvEEvOT_
FNL:3,93,96
FNA:3,3,_ZN5boost6mem_fnIvNS_9unit_test13test_observerEJmmEEENS_4_mfi2mfIDtfp_ET_T0_JDpT1_EEEMS7_FS6_S9_E
FNA:3,0,_ZN5boost6mem_fnIvNS_9unit_test15unit_test_log_tEJNS1_13output_formatERSoEEENS_4_mfi2mfIDtfp_ET_T0_JDpT1_EEEMS9_FS8_SB_E
FNA:3,0,_ZN5boost6mem_fnIvNS_9unit_test15unit_test_log_tEJRSoEEENS_4_mfi2mfIDtfp_ET_T0_JDpT1_EEEMS8_FS7_SA_E
FNA:3,0,_ZN5boost6mem_fnIvNS_9unit_test17test_unit_fixtureEJEEENS_4_mfi2mfIDtfp_ET_T0_JDpT1_EEEMS7_FS6_S9_E
FNL:4,99,102
FNA:4,0,_ZN5boost6mem_fnIbNS_9unit_test9framework4impl11name_filter9componentEJRKNS1_9test_unitEEEENS_4_mfi2mfIDtfp_ET_T0_JDpT1_EEEMSD_KFSC_SF_E
FNF:5
FNH:3
DA:50,3
DA:59,0
DA:61,0
DA:72,3
DA:74,9
DA:93,3
DA:95,3
DA:99,0
DA:101,0
LF:9
LH:5
end_of_record
TN:
SF:/usr/include/boost/core/addressof.hpp
FNL:0,38,41
FNA:0,675,_ZN5boost9addressofIKNS_7runtime16parameter_cla_idEEEPT_RS4_
FNA:0,0,_ZN5boost9addressofIKNS_9unit_test9test_unitEEEPT_RS4_
FNA:0,0,_ZN5boost9addressofIKNSt7__cxx1112basic_stringIcSt11char_traitsIcESaIcEEEEEPT_RS8_
FNA:0,0,_ZN5boost9addressofIKSt6vectorINSt7__cxx1112basic_stringIcSt11char_traitsIcESaIcEEESaIS7_EEEEPT_RSB_
FNA:0,3,_ZN5boost9addressofINS_3_bi6bind_tINS1_11unspecifiedENS_4_mfi2mfIMNS_9unit_test13test_observerEFvmmEvS7_JmmEEENS1_4listIJNS1_5valueIPS7_EENSC_INS6_17test_case_counter19readonly_property43EEENSC_ImEEEEEEEEEPT_RSL_
FNA:0,0,_ZN5boost9addressofINS_3_bi6bind_tINS1_11unspecifiedENS_4_mfi2mfIMNS_9unit_test15unit_test_log_tEFvNS6_13output_formatERSoEvS7_JS8_S9_EEENS1_4listIJNS1_5valueIPS7_EENSE_IS8_EENS_17reference_wrapperISoEEEEEEEEEPT_RSM_
FNA:0,0,_ZN5boost9addressofINS_3_bi6bind_tINS1_11unspecifiedENS_4_mfi2mfIMNS_9unit_test15unit_test_log_tEFvRSoEvS7_JS8_EEENS1_4listIJNS1_5valueIPS7_EENS_17reference_wrapperISoEEEEEEEEEPT_RSK_
FNA:0,0,_ZN5boost9addressofINS_3_bi6bind_tINS1_11unspecifiedENS_4_mfi2mfIMNS_9unit_test17test_unit_fixtureEFvvEvS7_JEEENS1_4listIJNS1_5valueINS_10shared_ptrIS7_EEEEEEEEEEEPT_RSI_
FNA:0,1,_ZN5boost9addressofINS_3_bi6bind_tIvPFvPFPNS_9unit_test10test_suiteEiPPcEENS1_4listIJNS1_5valueIS9_EEEEEEEEEPT_RSH_
FNA:0,0,_ZN5boost9addressofINS_3_bi6bind_tIvPFvRSoENS1_4listIJNS_17reference_wrapperISoEEEEEEEEEPT_RSB_
FNA:0,0,_ZN5boost9addressofINS_6detail13sp_ms_deleterINS_9unit_test14runtime_config13stream_holder16callback_cleanerEEEEEPT_RS8_
FNA:0,49,_ZN5boost9addressofINS_6detail7forwardEEEPT_RS3_
FNA:0,0,_ZN5boost9addressofISoEEPT_RS1_
FNA:0,1,_ZN5boost9addressofIZNS_9unit_test14runtime_config12_GLOBAL__N_1L19register_parametersERNS_7runtime16parameters_storeEEUlNS1_13basic_cstringIKcEEE_EEPT_RSB_
FNF:1
FNH:1
DA:38,729
DA:40,729
LF:2
LH:2
end_of_record
TN:
SF:/usr/include/boost/core/checked_delete.hpp
FNL:0,31,45
FNA:0,0,_ZN5boost14checked_deleteINS_16exception_detail15error_info_baseEEEvPT_
FNA:0,0,_ZN5boost14checked_deleteINS_23basic_wrap_stringstreamIcEEEEvPT_
FNA:0,8,_ZN5boost14checked_deleteINS_2io18ios_base_all_saverEEEvPT_
FNA:0,1,_ZN5boost14checked_deleteINS_7runtime14enum_parameterINS_9unit_test12report_levelELNS1_11args_amountE0EEEEEvPT_
FNA:0,4,_ZN5boost14checked_deleteINS_7runtime14enum_parameterINS_9unit_test13output_formatELNS1_11args_amountE0EEEEEvPT_
FNA:0,1,_ZN5boost14checked_deleteINS_7runtime14enum_parameterINS_9unit_test9log_levelELNS1_11args_amountE0EEEEEvPT_
FNA:0,1,_ZN5boost14checked_deleteINS_7runtime14typed_argumentINS_9unit_test12report_levelEEEEEvPT_
FNA:0,3,_ZN5boost14checked_deleteINS_7runtime14typed_argumentINS_9unit_test13output_formatEEEEEvPT_
FNA:0,1,_ZN5boost14checked_deleteINS_7runtime14typed_argumentINS_9unit_test9log_levelEEEEEvPT_
FNA:0,1,_ZN5boost14checked_deleteINS_7runtime14typed_argumentINSt7__cxx1112basic_stringIcSt11char_traitsIcESaIcEEEEEEEvPT_
FNA:0,2,_ZN5boost14checked_deleteINS_7runtime14typed_argumentISt6vectorINSt7__cxx1112basic_stringIcSt11char_traitsIcESaIcEEESaIS9_EEEEEEvPT_
FNA:0,13,_ZN5boost14checked_deleteINS_7runtime14typed_argumentIbEEEEvPT_
FNA:0,1,_ZN5boost14checked_deleteINS_7runtime14typed_argumentIjEEEEvPT_
FNA:0,1,_ZN5boost14checked_deleteINS_7runtime14typed_argumentImEEEEvPT_
FNA:0,572,_ZN5boost14checked_deleteINS_7runtime3cla13rt_cla_detail14parameter_trieEEEvPT_
FNA:0,1,_ZN5boost14checked_deleteINS_7runtime3cla6parserEEEvPT_
FNA:0,13,_ZN5boost14checked_deleteINS_7runtime6optionEEEvPT_
FNA:0,0,_ZN5boost14checked_deleteINS_7runtime9parameterINS_9unit_test12report_levelELNS1_11args_amountE0ELb1EEEEEvPT_
FNA:0,0,_ZN5boost14checked_deleteINS_7runtime9parameterINS_9unit_test13output_formatELNS1_11args_amountE0ELb1EEEEEvPT_
FNA:0,0,_ZN5boost14checked_deleteINS_7runtime9parameterINS_9unit_test9log_levelELNS1_11args_amountE0ELb1EEEEEvPT_
FNA:0,5,_ZN5boost14checked_deleteINS_7runtime9parameterINSt7__cxx1112basic_stringIcSt11char_traitsIcESaIcEEELNS1_11args_amountE0ELb0EEEEEvPT_
FNA:0,2,_ZN5boost14checked_deleteINS_7runtime9parameterINSt7__cxx1112basic_stringIcSt11char_traitsIcESaIcEEELNS1_11args_amountE2ELb0EEEEEvPT_
FNA:0,1,_ZN5boost14checked_deleteINS_7runtime9parameterIjLNS1_11args_amountE0ELb0EEEEEvPT_
FNA:0,1,_ZN5boost14checked_deleteINS_7runtime9parameterImLNS1_11args_amountE0ELb0EEEEEvPT_
FNA:0,0,_ZN5boost14checked_deleteINS_9unit_test16progress_displayEEEvPT_
FNA:0,2,_ZN5boost14checked_deleteINS_9unit_test16results_reporter6formatEEEvPT_
FNA:0,3,_ZN5boost14checked_deleteINS_9unit_test23unit_test_log_formatterEEEvPT_
FNA:0,0,_ZN5boost14checked_deleteINS_9unit_test9decorator10depends_onEEEvPT_
FNA:0,0,_ZN5boost14checked_deleteINS_9unit_test9decorator11descriptionEEEvPT_
FNA:0,0,_ZN5boost14checked_deleteINS_9unit_test9decorator12preconditionEEEvPT_
FNA:0,0,_ZN5boost14checked_deleteINS_9unit_test9decorator15stack_decoratorEEEvPT_
FNA:0,0,_ZN5boost14checked_deleteINS_9unit_test9decorator17expected_failuresEEEvPT_
FNA:0,0,_ZN5boost14checked_deleteINS_9unit_test9decorator5labelEEEvPT_
FNA:0,0,_ZN5boost14checked_deleteINS_9unit_test9decorator7timeoutEEEvPT_
FNA:0,0,_ZN5boost14checked_deleteINS_9unit_test9decorator9fixture_tEEEvPT_
FNA:0,0,_ZN5boost14checked_deleteINS_9unit_test9framework4impl21global_fixture_handleEEEvPT_
FNL:1,47,61
FNA:1,4,_ZN5boost20checked_array_deleteIcEEvPT_
FNF:2
FNH:2
DA:31,637
DA:44,637
DA:45,637
DA:47,4
DA:60,4
DA:61,4
LF:6
LH:6
end_of_record
TN:
SF:/usr/include/boost/core/demangle.hpp
FNL:0,59,62
FNA:0,0,_ZN5boost4core21scoped_demangled_nameC2EPKc
FNL:1,64,67
FNA:1,0,_ZN5boost4core21scoped_demangled_nameD2Ev
FNL:2,69,72
FNA:2,0,_ZNK5boost4core21scoped_demangled_name3getEv
FNL:3,81,86
FNA:3,0,_ZN5boost4core14demangle_allocEPKc
FNL:4,88,91
FNA:4,0,_ZN5boost4core13demangle_freeEPKc
FNL:5,93,100
FNA:5,0,_ZN5boost4core8demangleB5cxx11EPKc
FNF:6
FNH:0
DA:59,0
DA:60,0
DA:62,0
DA:64,0
DA:66,0
DA:67,0
DA:69,0
DA:71,0
DA:81,0
DA:83,0
DA:84,0
DA:85,0
DA:88,0
DA:90,0
DA:91,0
DA:93,0
DA:95,0
DA:96,0
DA:97,0
DA:98,0
DA:99,0
DA:100,0
LF:22
LH:0
end_of_record
TN:
SF:/usr/include/boost/core/ignore_unused.hpp
FNF:0
FNH:0
DA:20,184
LF:1
LH:1
end_of_record
TN:
SF:/usr/include/boost/core/ref.hpp
FNF:0
FNH:0
DA:95,675
DA:137,0
DA:143,0
DA:183,675
LF:4
LH:2
end_of_record
TN:
SF:/usr/include/boost/exception/current_exception_cast.hpp
FNL:0,27,43
FNA:0,0,_ZN5boost22current_exception_castIKNS_9exceptionEEEPT_v
FNF:1
FNH:0
DA:27,0
DA:31,0
DA:33,0
DA:34,0
DA:36,0
DA:38,0
DA:41,0
LF:7
LH:0
end_of_record
TN:
SF:/usr/include/boost/exception/detail/type_info.hpp
FNL:0,64,67
FNA:0,0,_ZN5boost16exception_detail10type_info_C2ERKSt9type_info
FNL:1,71,74
FNA:1,0,_ZN5boost16exception_detailltERKNS0_10type_info_ES3_
FNF:2
FNH:0
DA:64,0
DA:65,0
DA:67,0
DA:71,0
DA:73,0
LF:5
LH:0
end_of_record
TN:
SF:/usr/include/boost/exception/diagnostic_information.hpp
FNL:0,122,175
FNA:0,0,_ZN5boost16exception_detail27diagnostic_information_implB5cxx11EPKNS_9exceptionEPKSt9exceptionbb
FNL:1,180,183
FNA:1,0,_ZN5boost22diagnostic_informationINS_9exceptionEEENSt7__cxx1112basic_stringIcSt11char_traitsIcESaIcEEERKT_b
FNL:2,71,74
FNA:2,0,_ZN5boost16exception_detail19get_boost_exceptionEPKNS_9exceptionE
FNL:3,92,95
FNA:3,0,_ZN5boost16exception_detail17get_std_exceptionEz
FNL:4,99,118
FNA:4,0,_ZN5boost16exception_detail26get_diagnostic_informationERKNS_9exceptionEPKc
FNF:5
FNH:0
DA:71,0
DA:73,0
DA:92,0
DA:94,0
DA:99,0
DA:105,0
DA:106,0
DA:107,0
DA:108,0
DA:109,0
DA:110,0
DA:113,0
DA:115,0
DA:116,0
DA:122,0
DA:124,0
DA:125,0
DA:127,0
DA:128,0
DA:129,0
DA:130,0
DA:132,0
DA:133,0
DA:135,0
DA:136,0
DA:137,0
DA:139,0
DA:140,0
DA:142,0
DA:143,0
DA:144,0
DA:145,0
DA:146,0
DA:149,0
DA:151,0
DA:152,0
DA:153,0
DA:155,0
DA:156,0
DA:157,0
DA:159,0
DA:160,0
DA:164,0
DA:165,0
DA:166,0
DA:168,0
DA:169,0
DA:170,0
DA:171,0
DA:172,0
DA:173,0
DA:174,0
DA:175,0
DA:180,0
DA:182,0
LF:55
LH:0
end_of_record
TN:
SF:/usr/include/boost/exception/exception.hpp
FNL:0,191,193
FNA:0,0,_ZN5boost16exception_detail20error_info_containerD2Ev
FNL:1,260,266
FNA:1,0,_ZN5boost9exceptionC2Ev
FNL:2,333,336
FNA:2,0,_ZN5boost9exceptionD0Ev
FNA:2,0,_ZN5boost9exceptionD2Ev
FNL:3,46,49
FNA:3,0,_ZN5boost16exception_detail12refcount_ptrINS0_20error_info_containerEEC2Ev
FNL:4,484,486
FNA:4,0,_ZN5boost16exception_detail10clone_baseD0Ev
FNA:4,0,_ZN5boost16exception_detail10clone_baseD2Ev
FNL:5,491,501
FNA:5,0,_ZN5boost16exception_detail20copy_boost_exceptionEPNS_9exceptionEPKS1_
FNL:6,51,54
FNA:6,0,_ZN5boost16exception_detail12refcount_ptrINS0_20error_info_containerEED2Ev
FNL:7,56,60
FNA:7,0,_ZN5boost16exception_detail12refcount_ptrINS0_20error_info_containerEEC2ERKS3_
FNL:8,63,67
FNA:8,0,_ZN5boost16exception_detail12refcount_ptrINS0_20error_info_containerEEaSERKS3_
FNL:9,70,75
FNA:9,0,_ZN5boost16exception_detail12refcount_ptrINS0_20error_info_containerEE5adoptEPS2_
FNL:10,78,81
FNA:10,0,_ZNK5boost16exception_detail12refcount_ptrINS0_20error_info_containerEE3getEv
FNL:11,88,92
FNA:11,0,_ZN5boost16exception_detail12refcount_ptrINS0_20error_info_containerEE7add_refEv
FNL:12,95,99
FNA:12,0,_ZN5boost16exception_detail12refcount_ptrINS0_20error_info_containerEE7releaseEv
FNF:13
FNH:0
DA:46,0
DA:47,0
DA:49,0
DA:51,0
DA:53,0
DA:54,0
DA:56,0
DA:57,0
DA:59,0
DA:60,0
DA:63,0
DA:65,0
DA:66,0
DA:70,0
DA:72,0
DA:73,0
DA:74,0
DA:75,0
DA:78,0
DA:80,0
DA:88,0
DA:90,0
DA:91,0
DA:92,0
DA:95,0
DA:97,0
DA:98,0
DA:99,0
DA:191,0
DA:192,0
DA:193,0
DA:260,0
DA:261,0
DA:262,0
DA:263,0
DA:264,0
DA:266,0
DA:333,0
DA:334,0
DA:336,0
DA:484,0
DA:485,0
DA:486,0
DA:491,0
DA:493,0
DA:494,0
DA:495,0
DA:496,0
DA:497,0
DA:498,0
DA:499,0
DA:500,0
DA:501,0
LF:53
LH:0
end_of_record
TN:
SF:/usr/include/boost/exception/get_error_info.hpp
FNL:0,125,131
FNA:0,0,_ZN5boost14get_error_infoINS_10error_infoINS_11throw_file_EPKcEEKNS_9exceptionEEENS_16exception_detail26get_error_info_return_typeIT0_NT_10value_typeEE4typeERSA_
FNA:0,0,_ZN5boost14get_error_infoINS_10error_infoINS_11throw_line_EiEEKNS_9exceptionEEENS_16exception_detail26get_error_info_return_typeIT0_NT_10value_typeEE4typeERS8_
FNA:0,0,_ZN5boost14get_error_infoINS_10error_infoINS_15throw_function_EPKcEEKNS_9exceptionEEENS_16exception_detail26get_error_info_return_typeIT0_NT_10value_typeEE4typeERSA_
FNL:1,61,64
FNA:1,0,_ZN5boost16exception_detail8get_infoINS_10error_infoINS_15throw_function_EPKcEEE3getERKNS_9exceptionE
FNL:2,73,76
FNA:2,0,_ZN5boost16exception_detail8get_infoINS_10error_infoINS_11throw_file_EPKcEEE3getERKNS_9exceptionE
FNL:3,85,88
FNA:3,0,_ZN5boost16exception_detail8get_infoINS_10error_infoINS_11throw_line_EiEEE3getERKNS_9exceptionE
FNF:4
FNH:0
DA:61,0
DA:63,0
DA:73,0
DA:75,0
DA:85,0
DA:87,0
DA:125,0
DA:127,0
DA:128,0
DA:130,0
LF:10
LH:0
end_of_record
TN:
SF:/usr/include/boost/exception/info.hpp
FNL:0,124,127
FNA:0,0,_ZNK5boost16exception_detail25error_info_container_impl7add_refEv
FNL:1,130,139
FNA:1,0,_ZNK5boost16exception_detail25error_info_container_impl7releaseEv
FNL:2,142,153
FNA:2,0,_ZNK5boost16exception_detail25error_info_container_impl5cloneEv
FNL:3,65,68
FNA:3,0,_ZN5boost16exception_detail25error_info_container_implC2Ev
FNL:4,70,72
FNA:4,0,_ZN5boost16exception_detail25error_info_container_implD2Ev
FNL:5,75,80
FNA:5,0,_ZN5boost16exception_detail25error_info_container_impl3setERKNS_10shared_ptrINS0_15error_info_baseEEERKNS0_10type_info_E
FNL:6,83,92
FNA:6,0,_ZNK5boost16exception_detail25error_info_container_impl3getERKNS0_10type_info_E
FNL:7,95,109
FNA:7,0,_ZNK5boost16exception_detail25error_info_container_impl22diagnostic_informationEPKc
FNF:8
FNH:0
DA:65,0
DA:66,0
DA:68,0
DA:70,0
DA:71,0
DA:72,0
DA:75,0
DA:77,0
DA:78,0
DA:79,0
DA:80,0
DA:83,0
DA:85,0
DA:86,0
DA:88,0
DA:89,0
DA:91,0
DA:95,0
DA:97,0
DA:99,0
DA:100,0
DA:101,0
DA:103,0
DA:104,0
DA:106,0
DA:107,0
DA:108,0
DA:124,0
DA:126,0
DA:127,0
DA:130,0
DA:132,0
DA:133,0
DA:136,0
DA:137,0
DA:142,0
DA:144,0
DA:145,0
DA:146,0
DA:147,0
DA:149,0
DA:150,0
DA:151,0
DA:152,0
DA:153,0
LF:45
LH:0
end_of_record
TN:
SF:/usr/include/boost/function/function_base.hpp
FNL:0,226,246
FNA:0,9,_ZN5boost6detail8function22functor_manager_commonIPFvRKNS_5debug16dbg_startup_infoEEE10manage_ptrERKNS1_15function_bufferERSA_NS1_30functor_manager_operation_typeE
FNA:0,45,_ZN5boost6detail8function22functor_manager_commonIPFvvEE10manage_ptrERKNS1_15function_bufferERS6_NS1_30functor_manager_operation_typeE
FNL:1,250,277
FNA:1,0,_ZN5boost6detail8function22functor_manager_commonINS0_7forwardEE12manage_smallERKNS1_15function_bufferERS5_NS1_30functor_manager_operation_typeE
FNA:1,1,_ZN5boost6detail8function22functor_manager_commonINS_3_bi6bind_tIvPFvPFPNS_9unit_test10test_suiteEiPPcEENS3_4listIJNS3_5valueISB_EEEEEEEE12manage_smallERKNS1_15function_bufferERSK_NS1_30functor_manager_operation_typeE
FNA:1,0,_ZN5boost6detail8function22functor_manager_commonINS_3_bi6bind_tIvPFvRSoENS3_4listIJNS_17reference_wrapperISoEEEEEEEE12manage_smallERKNS1_15function_bufferERSE_NS1_30functor_manager_operation_typeE
FNA:1,0,_ZN5boost6detail8function22functor_manager_commonIZNS_9unit_test14runtime_config12_GLOBAL__N_1L19register_parametersERNS_7runtime16parameters_storeEEUlNS3_13basic_cstringIKcEEE_E12manage_smallERKNS1_15function_bufferERSE_NS1_30functor_manager_operation_typeE
FNL:2,288,292
FNA:2,9,_ZN5boost6detail8function15functor_managerIPFvRKNS_5debug16dbg_startup_infoEEE7managerERKNS1_15function_bufferERSA_NS1_30functor_manager_operation_typeENS1_16function_ptr_tagE
FNA:2,45,_ZN5boost6detail8function15functor_managerIPFvvEE7managerERKNS1_15function_bufferERS6_NS1_30functor_manager_operation_typeENS1_16function_ptr_tagE
FNL:3,296,300
FNA:3,0,_ZN5boost6detail8function15functor_managerINS0_7forwardEE7managerERKNS1_15function_bufferERS5_NS1_30functor_manager_operation_typeESt17integral_constantIbLb1EE
FNA:3,1,_ZN5boost6detail8function15functor_managerINS_3_bi6bind_tIvPFvPFPNS_9unit_test10test_suiteEiPPcEENS3_4listIJNS3_5valueISB_EEEEEEEE7managerERKNS1_15function_bufferERSK_NS1_30functor_manager_operation_typeESt17integral_constantIbLb1EE
FNA:3,0,_ZN5boost6detail8function15functor_managerINS_3_bi6bind_tIvPFvRSoENS3_4listIJNS_17reference_wrapperISoEEEEEEEE7managerERKNS1_15function_bufferERSE_NS1_30functor_manager_operation_typeESt17integral_constantIbLb1EE
FNA:3,0,_ZN5boost6detail8function15functor_managerIZNS_9unit_test14runtime_config12_GLOBAL__N_1L19register_parametersERNS_7runtime16parameters_storeEEUlNS3_13basic_cstringIKcEEE_E7managerERKNS1_15function_bufferERSE_NS1_30functor_manager_operation_typeESt17integral_constantIbLb1EE
FNL:4,304,336
FNA:4,3,_ZN5boost6detail8function15functor_managerINS_3_bi6bind_tINS3_11unspecifiedENS_4_mfi2mfIMNS_9unit_test13test_observerEFvmmEvS9_JmmEEENS3_4listIJNS3_5valueIPS9_EENSE_INS8_17test_case_counter19readonly_property43EEENSE_ImEEEEEEEE7managerERKNS1_15function_bufferERSO_NS1_30functor_manager_operation_typeESt17integral_constantIbLb0EE
FNA:4,0,_ZN5boost6detail8function15functor_managerINS_3_bi6bind_tINS3_11unspecifiedENS_4_mfi2mfIMNS_9unit_test15unit_test_log_tEFvNS8_13output_formatERSoEvS9_JSA_SB_EEENS3_4listIJNS3_5valueIPS9_EENSG_ISA_EENS_17reference_wrapperISoEEEEEEEE7managerERKNS1_15function_bufferERSP_NS1_30functor_manager_operation_typeESt17integral_constantIbLb0EE
FNA:4,0,_ZN5boost6detail8function15functor_managerINS_3_bi6bind_tINS3_11unspecifiedENS_4_mfi2mfIMNS_9unit_test15unit_test_log_tEFvRSoEvS9_JSA_EEENS3_4listIJNS3_5valueIPS9_EENS_17reference_wrapperISoEEEEEEEE7managerERKNS1_15function_bufferERSN_NS1_30functor_manager_operation_typeESt17integral_constantIbLb0EE
FNA:4,0,_ZN5boost6detail8function15functor_managerINS_3_bi6bind_tINS3_11unspecifiedENS_4_mfi2mfIMNS_9unit_test17test_unit_fixtureEFvvEvS9_JEEENS3_4listIJNS3_5valueINS_10shared_ptrIS9_EEEEEEEEEE7managerERKNS1_15function_bufferERSL_NS1_30functor_manager_operation_typeESt17integral_constantIbLb0EE
FNL:5,342,347
FNA:5,0,_ZN5boost6detail8function15functor_managerINS0_7forwardEE7managerERKNS1_15function_bufferERS5_NS1_30functor_manager_operation_typeENS1_16function_obj_tagE
FNA:5,3,_ZN5boost6detail8function15functor_managerINS_3_bi6bind_tINS3_11unspecifiedENS_4_mfi2mfIMNS_9unit_test13test_observerEFvmmEvS9_JmmEEENS3_4listIJNS3_5valueIPS9_EENSE_INS8_17test_case_counter19readonly_property43EEENSE_ImEEEEEEEE7managerERKNS1_15function_bufferERSO_NS1_30functor_manager_operation_typeENS1_16function_obj_tagE
FNA:5,0,_ZN5boost6detail8function15functor_managerINS_3_bi6bind_tINS3_11unspecifiedENS_4_mfi2mfIMNS_9unit_test15unit_test_log_tEFvNS8_13output_formatERSoEvS9_JSA_SB_EEENS3_4listIJNS3_5valueIPS9_EENSG_ISA_EENS_17reference_wrapperISoEEEEEEEE7managerERKNS1_15function_bufferERSP_NS1_30functor_manager_operation_typeENS1_16function_obj_tagE
FNA:5,0,_ZN5boost6detail8function15functor_managerINS_3_bi6bind_tINS3_11unspecifiedENS_4_mfi2mfIMNS_9unit_test15unit_test_log_tEFvRSoEvS9_JSA_EEENS3_4listIJNS3_5valueIPS9_EENS_17reference_wrapperISoEEEEEEEE7managerERKNS1_15function_bufferERSN_NS1_30functor_manager_operation_typeENS1_16function_obj_tagE
FNA:5,0,_ZN5boost6detail8function15functor_managerINS_3_bi6bind_tINS3_11unspecifiedENS_4_mfi2mfIMNS_9unit_test17test_unit_fixtureEFvvEvS9_JEEENS3_4listIJNS3_5valueINS_10shared_ptrIS9_EEEEEEEEEE7managerERKNS1_15function_bufferERSL_NS1_30functor_manager_operation_typeENS1_16function_obj_tagE
FNA:5,1,_ZN5boost6detail8function15functor_managerINS_3_bi6bind_tIvPFvPFPNS_9unit_test10test_suiteEiPPcEENS3_4listIJNS3_5valueISB_EEEEEEEE7managerERKNS1_15function_bufferERSK_NS1_30functor_manager_operation_typeENS1_16function_obj_tagE
FNA:5,0,_ZN5boost6detail8function15functor_managerINS_3_bi6bind_tIvPFvRSoENS3_4listIJNS_17reference_wrapperISoEEEEEEEE7managerERKNS1_15function_bufferERSE_NS1_30functor_manager_operation_typeENS1_16function_obj_tagE
FNA:5,0,_ZN5boost6detail8function15functor_managerIZNS_9unit_test14runtime_config12_GLOBAL__N_1L19register_parametersERNS_7runtime16parameters_storeEEUlNS3_13basic_cstringIKcEEE_E7managerERKNS1_15function_bufferERSE_NS1_30functor_manager_operation_typeENS1_16function_obj_tagE
FNL:6,361,372
FNA:6,0,_ZN5boost6detail8function15functor_managerINS0_7forwardEE6manageERKNS1_15function_bufferERS5_NS1_30functor_manager_operation_typeE
FNA:6,3,_ZN5boost6detail8function15functor_managerINS_3_bi6bind_tINS3_11unspecifiedENS_4_mfi2mfIMNS_9unit_test13test_observerEFvmmEvS9_JmmEEENS3_4listIJNS3_5valueIPS9_EENSE_INS8_17test_case_counter19readonly_property43EEENSE_ImEEEEEEEE6manageERKNS1_15function_bufferERSO_NS1_30functor_manager_operation_typeE
FNA:6,0,_ZN5boost6detail8function15functor_managerINS_3_bi6bind_tINS3_11unspecifiedENS_4_mfi2mfIMNS_9unit_test15unit_test_log_tEFvNS8_13output_formatERSoEvS9_JSA_SB_EEENS3_4listIJNS3_5valueIPS9_EENSG_ISA_EENS_17reference_wrapperISoEEEEEEEE6manageERKNS1_15function_bufferERSP_NS1_30functor_manager_operation_typeE
FNA:6,0,_ZN5boost6detail8function15functor_managerINS_3_bi6bind_tINS3_11unspecifiedENS_4_mfi2mfIMNS_9unit_test15unit_test_log_tEFvRSoEvS9_JSA_EEENS3_4listIJNS3_5valueIPS9_EENS_17reference_wrapperISoEEEEEEEE6manageERKNS1_15function_bufferERSN_NS1_30functor_manager_operation_typeE
FNA:6,0,_ZN5boost6detail8function15functor_managerINS_3_bi6bind_tINS3_11unspecifiedENS_4_mfi2mfIMNS_9unit_test17test_unit_fixtureEFvvEvS9_JEEENS3_4listIJNS3_5valueINS_10shared_ptrIS9_EEEEEEEEEE6manageERKNS1_15function_bufferERSL_NS1_30functor_manager_operation_typeE
FNA:6,1,_ZN5boost6detail8function15functor_managerINS_3_bi6bind_tIvPFvPFPNS_9unit_test10test_suiteEiPPcEENS3_4listIJNS3_5valueISB_EEEEEEEE6manageERKNS1_15function_bufferERSK_NS1_30functor_manager_operation_typeE
FNA:6,0,_ZN5boost6detail8function15functor_managerINS_3_bi6bind_tIvPFvRSoENS3_4listIJNS_17reference_wrapperISoEEEEEEEE6manageERKNS1_15function_bufferERSE_NS1_30functor_manager_operation_typeE
FNA:6,9,_ZN5boost6detail8function15functor_managerIPFvRKNS_5debug16dbg_startup_infoEEE6manageERKNS1_15function_bufferERSA_NS1_30functor_manager_operation_typeE
FNA:6,45,_ZN5boost6detail8function15functor_managerIPFvvEE6manageERKNS1_15function_bufferERS6_NS1_30functor_manager_operation_typeE
FNA:6,0,_ZN5boost6detail8function15functor_managerIZNS_9unit_test14runtime_config12_GLOBAL__N_1L19register_parametersERNS_7runtime16parameters_storeEEUlNS3_13basic_cstringIKcEEE_E6manageERKNS1_15function_bufferERSE_NS1_30functor_manager_operation_typeE
FNL:7,497,497
FNA:7,257,_ZN5boost13function_baseC2Ev
FNL:8,500,500
FNA:8,253,_ZNK5boost13function_base5emptyEv
FNL:9,574,576
FNA:9,221,_ZNK5boost13function_base28has_trivial_copy_and_destroyEv
FNL:10,593,593
FNA:10,0,_ZN5boost17bad_function_callC2Ev
FNL:11,711,714
FNA:11,54,_ZN5boost6detail8function16has_empty_targetEz
FNF:12
FNH:11
DA:226,54
DA:229,54
DA:230,0
DA:231,54
DA:232,0
DA:233,0
DA:234,54
DA:235,54
DA:236,0
DA:237,0
DA:238,0
DA:240,0
DA:242,0
DA:243,0
DA:244,0
DA:246,54
DA:250,1
DA:253,1
DA:254,0
DA:256,0
DA:258,1
DA:259,0
DA:260,0
DA:261,0
DA:262,1
DA:264,1
DA:266,1
DA:267,0
DA:268,0
DA:269,0
DA:271,0
DA:273,0
DA:274,0
DA:275,0
DA:277,1
DA:288,54
DA:291,54
DA:292,54
DA:296,1
DA:299,1
DA:300,1
DA:304,3
DA:307,3
DA:313,0
DA:315,0
DA:316,0
DA:317,3
DA:318,0
DA:319,0
DA:320,3
DA:322,3
DA:324,3
DA:325,3
DA:326,0
DA:327,0
DA:328,0
DA:330,0
DA:332,0
DA:333,0
DA:334,0
DA:336,3
DA:342,4
DA:345,4
DA:347,4
DA:361,58
DA:365,58
DA:366,0
DA:367,0
DA:368,0
DA:370,58
DA:372,58
DA:497,257
DA:500,253
DA:574,221
DA:575,221
DA:593,0
DA:711,54
DA:713,54
LF:78
LH:40
end_of_record
TN:
SF:/usr/include/boost/function/function_template.hpp
FNL:0,1076,1076
FNA:0,28,_ZN5boost8functionIFvNS_9unit_test13basic_cstringIKcEEEEC2Ev
FNA:0,9,_ZN5boost8functionIFvRKNS_5debug16dbg_startup_infoEEEC2Ev
FNA:0,1,_ZN5boost8functionIFvvEEC2Ev
FNL:1,1079,1086
FNA:1,49,_ZN5boost8functionIFivEEC2INS_6detail7forwardEEET_NSt9enable_ifIXntsrSt11is_integralIS6_E5valueEiE4typeE
FNA:1,1,_ZN5boost8functionIFvNS_9unit_test13basic_cstringIKcEEEEC2IZNS1_14runtime_config12_GLOBAL__N_1L19register_parametersERNS_7runtime16parameters_storeEEUlS4_E_EET_NSt9enable_ifIXntsrSt11is_integralISE_E5valueEiE4typeE
FNA:1,9,_ZN5boost8functionIFvRKNS_5debug16dbg_startup_infoEEEC2IPS5_EET_NSt9enable_ifIXntsrSt11is_integralIS9_E5valueEiE4typeE
FNA:1,3,_ZN5boost8functionIFvvEEC2INS_3_bi6bind_tINS4_11unspecifiedENS_4_mfi2mfIMNS_9unit_test13test_observerEFvmmEvSA_JmmEEENS4_4listIJNS4_5valueIPSA_EENSF_INS9_17test_case_counter19readonly_property43EEENSF_ImEEEEEEEEET_NSt9enable_ifIXntsrSt11is_integralISO_E5valueEiE4typeE
FNA:1,0,_ZN5boost8functionIFvvEEC2INS_3_bi6bind_tINS4_11unspecifiedENS_4_mfi2mfIMNS_9unit_test15unit_test_log_tEFvNS9_13output_formatERSoEvSA_JSB_SC_EEENS4_4listIJNS4_5valueIPSA_EENSH_ISB_EENS_17reference_wrapperISoEEEEEEEEET_NSt9enable_ifIXntsrSt11is_integralISP_E5valueEiE4typeE
FNA:1,0,_ZN5boost8functionIFvvEEC2INS_3_bi6bind_tINS4_11unspecifiedENS_4_mfi2mfIMNS_9unit_test15unit_test_log_tEFvRSoEvSA_JSB_EEENS4_4listIJNS4_5valueIPSA_EENS_17reference_wrapperISoEEEEEEEEET_NSt9enable_ifIXntsrSt11is_integralISN_E5valueEiE4typeE
FNA:1,0,_ZN5boost8functionIFvvEEC2INS_3_bi6bind_tINS4_11unspecifiedENS_4_mfi2mfIMNS_9unit_test17test_unit_fixtureEFvvEvSA_JEEENS4_4listIJNS4_5valueINS_10shared_ptrISA_EEEEEEEEEEET_NSt9enable_ifIXntsrSt11is_integralISL_E5valueEiE4typeE
FNA:1,1,_ZN5boost8functionIFvvEEC2INS_3_bi6bind_tIvPFvPFPNS_9unit_test10test_suiteEiPPcEENS4_4listIJNS4_5valueISC_EEEEEEEEET_NSt9enable_ifIXntsrSt11is_integralISK_E5valueEiE4typeE
FNA:1,0,_ZN5boost8functionIFvvEEC2INS_3_bi6bind_tIvPFvRSoENS4_4listIJNS_17reference_wrapperISoEEEEEEEEET_NSt9enable_ifIXntsrSt11is_integralISE_E5valueEiE4typeE
FNA:1,45,_ZN5boost8functionIFvvEEC2IPS1_EET_NSt9enable_ifIXntsrSt11is_integralIS5_E5valueEiE4typeE
FNL:2,1099,1099
FNA:2,0,_ZN5boost8functionIFNS_10test_tools16assertion_resultEmEEC2ERKS4_
FNA:2,28,_ZN5boost8functionIFvNS_9unit_test13basic_cstringIKcEEEEC2ERKS6_
FNA:2,0,_ZN5boost8functionIFvRKNS_5debug16dbg_startup_infoEEEC2ERKS6_
FNA:2,45,_ZN5boost8functionIFvvEEC2ERKS2_
FNL:3,1104,1104
FNA:3,28,_ZN5boost8functionIFvNS_9unit_test13basic_cstringIKcEEEEC2EOS6_
FNL:4,1107,1111
FNA:4,0,_ZN5boost8functionIFvRKNS_5debug16dbg_startup_infoEEEaSERKS6_
FNL:5,1123,1127
FNA:5,1,_ZN5boost8functionIFvNS_9unit_test13basic_cstringIKcEEEEaSIZNS1_14runtime_config12_GLOBAL__N_1L19register_parametersERNS_7runtime16parameters_storeEEUlS4_E_EENSt9enable_ifIXntsrSt11is_integralIT_E5valueERS6_E4typeESG_
FNA:5,9,_ZN5boost8functionIFvRKNS_5debug16dbg_startup_infoEEEaSIPS5_EENSt9enable_ifIXntsrSt11is_integralIT_E5valueERS6_E4typeESB_
FNL:6,422,426
FNA:6,49,_ZNK5boost6detail8function12basic_vtableIiJEE9assign_toINS0_7forwardEEEbT_RNS1_15function_bufferE
FNA:6,3,_ZNK5boost6detail8function12basic_vtableIvJEE9assign_toINS_3_bi6bind_tINS5_11unspecifiedENS_4_mfi2mfIMNS_9unit_test13test_observerEFvmmEvSB_JmmEEENS5_4listIJNS5_5valueIPSB_EENSG_INSA_17test_case_counter19readonly_property43EEENSG_ImEEEEEEEEEbT_RNS1_15function_bufferE
FNA:6,0,_ZNK5boost6detail8function12basic_vtableIvJEE9assign_toINS_3_bi6bind_tINS5_11unspecifiedENS_4_mfi2mfIMNS_9unit_test15unit_test_log_tEFvNSA_13output_formatERSoEvSB_JSC_SD_EEENS5_4listIJNS5_5valueIPSB_EENSI_ISC_EENS_17reference_wrapperISoEEEEEEEEEbT_RNS1_15function_bufferE
FNA:6,0,_ZNK5boost6detail8function12basic_vtableIvJEE9assign_toINS_3_bi6bind_tINS5_11unspecifiedENS_4_mfi2mfIMNS_9unit_test15unit_test_log_tEFvRSoEvSB_JSC_EEENS5_4listIJNS5_5valueIPSB_EENS_17reference_wrapperISoEEEEEEEEEbT_RNS1_15function_bufferE
FNA:6,0,_ZNK5boost6detail8function12basic_vtableIvJEE9assign_toINS_3_bi6bind_tINS5_11unspecifiedENS_4_mfi2mfIMNS_9unit_test17test_unit_fixtureEFvvEvSB_JEEENS5_4listIJNS5_5valueINS_10shared_ptrISB_EEEEEEEEEEEbT_RNS1_15function_bufferE
FNA:6,1,_ZNK5boost6detail8function12basic_vtableIvJEE9assign_toINS_3_bi6bind_tIvPFvPFPNS_9unit_test10test_suiteEiPPcEENS5_4listIJNS5_5valueISD_EEEEEEEEEbT_RNS1_15function_bufferE
FNA:6,0,_ZNK5boost6detail8function12basic_vtableIvJEE9assign_toINS_3_bi6bind_tIvPFvRSoENS5_4listIJNS_17reference_wrapperISoEEEEEEEEEbT_RNS1_15function_bufferE
FNA:6,45,_ZNK5boost6detail8function12basic_vtableIvJEE9assign_toIPFvvEEEbT_RNS1_15function_bufferE
FNA:6,1,_ZNK5boost6detail8function12basic_vtableIvJNS_9unit_test13basic_cstringIKcEEEE9assign_toIZNS3_14runtime_config12_GLOBAL__N_1L19register_parametersERNS_7runtime16parameters_storeEEUlS6_E_EEbT_RNS1_15function_bufferE
FNA:6,9,_ZNK5boost6detail8function12basic_vtableIvJRKNS_5debug16dbg_startup_infoEEE9assign_toIPFvS6_EEEbT_RNS1_15function_bufferE
FNL:7,434,446
FNA:7,0,_ZNK5boost6detail8function12basic_vtableINS_10test_tools16assertion_resultEJmEE5clearERNS1_15function_bufferE
FNA:7,0,_ZNK5boost6detail8function12basic_vtableIiJEE5clearERNS1_15function_bufferE
FNA:7,49,_ZNK5boost6detail8function12basic_vtableIvJEE5clearERNS1_15function_bufferE
FNA:7,0,_ZNK5boost6detail8function12basic_vtableIvJNS_9unit_test13basic_cstringIKcEEEE5clearERNS1_15function_bufferE
FNA:7,9,_ZNK5boost6detail8function12basic_vtableIvJRKNS_5debug16dbg_startup_infoEEE5clearERNS1_15function_bufferE
FNL:8,452,461
FNA:8,45,_ZNK5boost6detail8function12basic_vtableIvJEE9assign_toIPFvvEEEbT_RNS1_15function_bufferENS1_16function_ptr_tagE
FNA:8,9,_ZNK5boost6detail8function12basic_vtableIvJRKNS_5debug16dbg_startup_infoEEE9assign_toIPFvS6_EEEbT_RNS1_15function_bufferENS1_16function_ptr_tagE
FNL:9,501,504
FNA:9,49,_ZNK5boost6detail8function12basic_vtableIiJEE14assign_functorINS0_7forwardEEEvT_RNS1_15function_bufferESt17integral_constantIbLb1EE
FNA:9,1,_ZNK5boost6detail8function12basic_vtableIvJEE14assign_functorINS_3_bi6bind_tIvPFvPFPNS_9unit_test10test_suiteEiPPcEENS5_4listIJNS5_5valueISD_EEEEEEEEEvT_RNS1_15function_bufferESt17integral_constantIbLb1EE
FNA:9,0,_ZNK5boost6detail8function12basic_vtableIvJEE14assign_functorINS_3_bi6bind_tIvPFvRSoENS5_4listIJNS_17reference_wrapperISoEEEEEEEEEvT_RNS1_15function_bufferESt17integral_constantIbLb1EE
FNA:9,1,_ZNK5boost6detail8function12basic_vtableIvJNS_9unit_test13basic_cstringIKcEEEE14assign_functorIZNS3_14runtime_config12_GLOBAL__N_1L19register_parametersERNS_7runtime16parameters_storeEEUlS6_E_EEvT_RNS1_15function_bufferESt17integral_constantIbLb1EE
FNL:10,515,518
FNA:10,3,_ZNK5boost6detail8function12basic_vtableIvJEE14assign_functorINS_3_bi6bind_tINS5_11unspecifiedENS_4_mfi2mfIMNS_9unit_test13test_observerEFvmmEvSB_JmmEEENS5_4listIJNS5_5valueIPSB_EENSG_INSA_17test_case_counter19readonly_property43EEENSG_ImEEEEEEEEEvT_RNS1_15function_bufferESt17integral_constantIbLb0EE
FNA:10,0,_ZNK5boost6detail8function12basic_vtableIvJEE14assign_functorINS_3_bi6bind_tINS5_11unspecifiedENS_4_mfi2mfIMNS_9unit_test15unit_test_log_tEFvNSA_13output_formatERSoEvSB_JSC_SD_EEENS5_4listIJNS5_5valueIPSB_EENSI_ISC_EENS_17reference_wrapperISoEEEEEEEEEvT_RNS1_15function_bufferESt17integral_constantIbLb0EE
FNA:10,0,_ZNK5boost6detail8function12basic_vtableIvJEE14assign_functorINS_3_bi6bind_tINS5_11unspecifiedENS_4_mfi2mfIMNS_9unit_test15unit_test_log_tEFvRSoEvSB_JSC_EEENS5_4listIJNS5_5valueIPSB_EENS_17reference_wrapperISoEEEEEEEEEvT_RNS1_15function_bufferESt17integral_constantIbLb0EE
FNA:10,0,_ZNK5boost6detail8function12basic_vtableIvJEE14assign_functorINS_3_bi6bind_tINS5_11unspecifiedENS_4_mfi2mfIMNS_9unit_test17test_unit_fixtureEFvvEvSB_JEEENS5_4listIJNS5_5valueINS_10shared_ptrISB_EEEEEEEEEEEvT_RNS1_15function_bufferESt17integral_constantIbLb0EE
FNL:11,538,547
FNA:11,49,_ZNK5boost6detail8function12basic_vtableIiJEE9assign_toINS0_7forwardEEEbT_RNS1_15function_bufferENS1_16function_obj_tagE
FNA:11,3,_ZNK5boost6detail8function12basic_vtableIvJEE9assign_toINS_3_bi6bind_tINS5_11unspecifiedENS_4_mfi2mfIMNS_9unit_test13test_observerEFvmmEvSB_JmmEEENS5_4listIJNS5_5valueIPSB_EENSG_INSA_17test_case_counter19readonly_property43EEENSG_ImEEEEEEEEEbT_RNS1_15function_bufferENS1_16function_obj_tagE
FNA:11,0,_ZNK5boost6detail8function12basic_vtableIvJEE9assign_toINS_3_bi6bind_tINS5_11unspecifiedENS_4_mfi2mfIMNS_9unit_test15unit_test_log_tEFvNSA_13output_formatERSoEvSB_JSC_SD_EEENS5_4listIJNS5_5valueIPSB_EENSI_ISC_EENS_17reference_wrapperISoEEEEEEEEEbT_RNS1_15function_bufferENS1_16function_obj_tagE
FNA:11,0,_ZNK5boost6detail8function12basic_vtableIvJEE9assign_toINS_3_bi6bind_tINS5_11unspecifiedENS_4_mfi2mfIMNS_9unit_test15unit_test_log_tEFvRSoEvSB_JSC_EEENS5_4listIJNS5_5valueIPSB_EENS_17reference_wrapperISoEEEEEEEEEbT_RNS1_15function_bufferENS1_16function_obj_tagE
FNA:11,0,_ZNK5boost6detail8function12basic_vtableIvJEE9assign_toINS_3_bi6bind_tINS5_11unspecifiedENS_4_mfi2mfIMNS_9unit_test17test_unit_fixtureEFvvEvSB_JEEENS5_4listIJNS5_5valueINS_10shared_ptrISB_EEEEEEEEEEEbT_RNS1_15function_bufferENS1_16function_obj_tagE
FNA:11,1,_ZNK5boost6detail8function12basic_vtableIvJEE9assign_toINS_3_bi6bind_tIvPFvPFPNS_9unit_test10test_suiteEiPPcEENS5_4listIJNS5_5valueISD_EEEEEEEEEbT_RNS1_15function_bufferENS1_16function_obj_tagE
FNA:11,0,_ZNK5boost6detail8function12basic_vtableIvJEE9assign_toINS_3_bi6bind_tIvPFvRSoENS5_4listIJNS_17reference_wrapperISoEEEEEEEEEbT_RNS1_15function_bufferENS1_16function_obj_tagE
FNA:11,1,_ZNK5boost6detail8function12basic_vtableIvJNS_9unit_test13basic_cstringIKcEEEE9assign_toIZNS3_14runtime_config12_GLOBAL__N_1L19register_parametersERNS_7runtime16parameters_storeEEUlS6_E_EEbT_RNS1_15function_bufferENS1_16function_obj_tagE
FNL:12,54,60
FNA:12,0,_ZN5boost6detail8function21void_function_invokerIPFvRKNS_5debug16dbg_startup_infoEEvJS6_EE6invokeERNS1_15function_bufferES6_
FNA:12,45,_ZN5boost6detail8function21void_function_invokerIPFvvEvJEE6invokeERNS1_15function_bufferE
FNL:13,70,80
FNA:13,49,_ZN5boost6detail8function20function_obj_invokerINS0_7forwardEiJEE6invokeERNS1_15function_bufferE
FNL:14,726,729
FNA:14,0,_ZNK5boost10function_nINS_10test_tools16assertion_resultEJmEE10get_vtableEv
FNA:14,49,_ZNK5boost10function_nIiJEE10get_vtableEv
FNA:14,53,_ZNK5boost10function_nIvJEE10get_vtableEv
FNA:14,0,_ZNK5boost10function_nIvJNS_9unit_test13basic_cstringIKcEEEE10get_vtableEv
FNA:14,0,_ZNK5boost10function_nIvJRKNS_5debug16dbg_startup_infoEEE10get_vtableEv
FNL:15,745,745
FNA:15,1,_ZN5boost10function_nIvJEEC2Ev
FNA:15,29,_ZN5boost10function_nIvJNS_9unit_test13basic_cstringIKcEEEEC2Ev
FNA:15,18,_ZN5boost10function_nIvJRKNS_5debug16dbg_startup_infoEEEC2Ev
FNL:16,750,758
FNA:16,49,_ZN5boost10function_nIiJEEC2INS_6detail7forwardEEET_NSt9enable_ifIXntsrSt11is_integralIS5_E5valueEiE4typeE
FNA:16,3,_ZN5boost10function_nIvJEEC2INS_3_bi6bind_tINS3_11unspecifiedENS_4_mfi2mfIMNS_9unit_test13test_observerEFvmmEvS9_JmmEEENS3_4listIJNS3_5valueIPS9_EENSE_INS8_17test_case_counter19readonly_property43EEENSE_ImEEEEEEEEET_NSt9enable_ifIXntsrSt11is_integralISN_E5valueEiE4typeE
FNA:16,0,_ZN5boost10function_nIvJEEC2INS_3_bi6bind_tINS3_11unspecifiedENS_4_mfi2mfIMNS_9unit_test15unit_test_log_tEFvNS8_13output_formatERSoEvS9_JSA_SB_EEENS3_4listIJNS3_5valueIPS9_EENSG_ISA_EENS_17reference_wrapperISoEEEEEEEEET_NSt9enable_ifIXntsrSt11is_integralISO_E5valueEiE4typeE
FNA:16,0,_ZN5boost10function_nIvJEEC2INS_3_bi6bind_tINS3_11unspecifiedENS_4_mfi2mfIMNS_9unit_test15unit_test_log_tEFvRSoEvS9_JSA_EEENS3_4listIJNS3_5valueIPS9_EENS_17reference_wrapperISoEEEEEEEEET_NSt9enable_ifIXntsrSt11is_integralISM_E5valueEiE4typeE
FNA:16,0,_ZN5boost10function_nIvJEEC2INS_3_bi6bind_tINS3_11unspecifiedENS_4_mfi2mfIMNS_9unit_test17test_unit_fixtureEFvvEvS9_JEEENS3_4listIJNS3_5valueINS_10shared_ptrIS9_EEEEEEEEEEET_NSt9enable_ifIXntsrSt11is_integralISK_E5valueEiE4typeE
FNA:16,1,_ZN5boost10function_nIvJEEC2INS_3_bi6bind_tIvPFvPFPNS_9unit_test10test_suiteEiPPcEENS3_4listIJNS3_5valueISB_EEEEEEEEET_NSt9enable_ifIXntsrSt11is_integralISJ_E5valueEiE4typeE
FNA:16,0,_ZN5boost10function_nIvJEEC2INS_3_bi6bind_tIvPFvRSoENS3_4listIJNS_17reference_wrapperISoEEEEEEEEET_NSt9enable_ifIXntsrSt11is_integralISD_E5valueEiE4typeE
FNA:16,45,_ZN5boost10function_nIvJEEC2IPFvvEEET_NSt9enable_ifIXntsrSt11is_integralIS5_E5valueEiE4typeE
FNA:16,1,_ZN5boost10function_nIvJNS_9unit_test13basic_cstringIKcEEEEC2IZNS1_14runtime_config12_GLOBAL__N_1L19register_parametersERNS_7runtime16parameters_storeEEUlS4_E_EET_NSt9enable_ifIXntsrSt11is_integralISD_E5valueEiE4typeE
FNA:16,9,_ZN5boost10function_nIvJRKNS_5debug16dbg_startup_infoEEEC2IPFvS4_EEET_NSt9enable_ifIXntsrSt11is_integralIS9_E5valueEiE4typeE
FNL:17,772,775
FNA:17,0,_ZN5boost10function_nINS_10test_tools16assertion_resultEJmEEC2ERKS3_
FNA:17,45,_ZN5boost10function_nIvJEEC2ERKS1_
FNA:17,28,_ZN5boost10function_nIvJNS_9unit_test13basic_cstringIKcEEEEC2ERKS5_
FNA:17,0,_ZN5boost10function_nIvJRKNS_5debug16dbg_startup_infoEEEC2ERKS5_
FNL:18,777,780
FNA:18,28,_ZN5boost10function_nIvJNS_9unit_test13basic_cstringIKcEEEEC2EOS5_
FNL:19,782,782
FNA:19,0,_ZN5boost10function_nINS_10test_tools16assertion_resultEJmEED2Ev
FNA:19,49,_ZN5boost10function_nIiJEED2Ev
FNA:19,95,_ZN5boost10function_nIvJEED2Ev
FNA:19,86,_ZN5boost10function_nIvJNS_9unit_test13basic_cstringIKcEEEED2Ev
FNA:19,27,_ZN5boost10function_nIvJRKNS_5debug16dbg_startup_infoEEED2Ev
FNL:20,784,791
FNA:20,0,_ZNK5boost10function_nINS_10test_tools16assertion_resultEJmEEclEm
FNA:20,49,_ZNK5boost10function_nIiJEEclEv
FNA:20,49,_ZNK5boost10function_nIvJEEclEv
FNA:20,0,_ZNK5boost10function_nIvJNS_9unit_test13basic_cstringIKcEEEEclES4_
FNA:20,0,_ZNK5boost10function_nIvJRKNS_5debug16dbg_startup_infoEEEclES4_
FNL:21,867,876
FNA:21,1,_ZN5boost10function_nIvJNS_9unit_test13basic_cstringIKcEEEE4swapERS5_
FNA:21,9,_ZN5boost10function_nIvJRKNS_5debug16dbg_startup_infoEEE4swapERS5_
FNL:22,879,886
FNA:22,0,_ZN5boost10function_nINS_10test_tools16assertion_resultEJmEE5clearEv
FNA:22,49,_ZN5boost10function_nIiJEE5clearEv
FNA:22,95,_ZN5boost10function_nIvJEE5clearEv
FNA:22,114,_ZN5boost10function_nIvJNS_9unit_test13basic_cstringIKcEEEE5clearEv
FNA:22,36,_ZN5boost10function_nIvJRKNS_5debug16dbg_startup_infoEEE5clearEv
FNL:23,888,888
FNA:23,1,_ZNK5boost10function_nIvJEEcvbEv
FNA:23,23,_ZNK5boost10function_nIvJNS_9unit_test13basic_cstringIKcEEEEcvbEv
FNA:23,0,_ZNK5boost10function_nIvJRKNS_5debug16dbg_startup_infoEEEcvbEv
FNL:24,891,916
FNA:24,0,_ZN5boost10function_nINS_10test_tools16assertion_resultEJmEE13assign_to_ownERKS3_
FNA:24,45,_ZN5boost10function_nIvJEE13assign_to_ownERKS1_
FNA:24,28,_ZN5boost10function_nIvJNS_9unit_test13basic_cstringIKcEEEE13assign_to_ownERKS5_
FNA:24,0,_ZN5boost10function_nIvJRKNS_5debug16dbg_startup_infoEEE13assign_to_ownERKS5_
FNL:25,91,101
FNA:25,3,_ZN5boost6detail8function25void_function_obj_invokerINS_3_bi6bind_tINS3_11unspecifiedENS_4_mfi2mfIMNS_9unit_test13test_observerEFvmmEvS9_JmmEEENS3_4listIJNS3_5valueIPS9_EENSE_INS8_17test_case_counter19readonly_property43EEENSE_ImEEEEEEEvJEE6invokeERNS1_15function_bufferE
FNA:25,0,_ZN5boost6detail8function25void_function_obj_invokerINS_3_bi6bind_tINS3_11unspecifiedENS_4_mfi2mfIMNS_9unit_test15unit_test_log_tEFvNS8_13output_formatERSoEvS9_JSA_SB_EEENS3_4listIJNS3_5valueIPS9_EENSG_ISA_EENS_17reference_wrapperISoEEEEEEEvJEE6invokeERNS1_15function_bufferE
FNA:25,0,_ZN5boost6detail8function25void_function_obj_invokerINS_3_bi6bind_tINS3_11unspecifiedENS_4_mfi2mfIMNS_9unit_test15unit_test_log_tEFvRSoEvS9_JSA_EEENS3_4listIJNS3_5valueIPS9_EENS_17reference_wrapperISoEEEEEEEvJEE6invokeERNS1_15function_bufferE
FNA:25,0,_ZN5boost6detail8function25void_function_obj_invokerINS_3_bi6bind_tINS3_11unspecifiedENS_4_mfi2mfIMNS_9unit_test17test_unit_fixtureEFvvEvS9_JEEENS3_4listIJNS3_5valueINS_10shared_ptrIS9_EEEEEEEEEvJEE6invokeERNS1_15function_bufferE
FNA:25,1,_ZN5boost6detail8function25void_function_obj_invokerINS_3_bi6bind_tIvPFvPFPNS_9unit_test10test_suiteEiPPcEENS3_4listIJNS3_5valueISB_EEEEEEEvJEE6invokeERNS1_15function_bufferE
FNA:25,0,_ZN5boost6detail8function25void_function_obj_invokerINS_3_bi6bind_tIvPFvRSoENS3_4listIJNS_17reference_wrapperISoEEEEEEEvJEE6invokeERNS1_15function_bufferE
FNA:25,0,_ZN5boost6detail8function25void_function_obj_invokerIZNS_9unit_test14runtime_config12_GLOBAL__N_1L19register_parametersERNS_7runtime16parameters_storeEEUlNS3_13basic_cstringIKcEEE_vJSB_EE6invokeERNS1_15function_bufferESB_
FNL:26,919,949
FNA:26,49,_ZN5boost10function_nIiJEE9assign_toINS_6detail7forwardEEEvT_
FNA:26,3,_ZN5boost10function_nIvJEE9assign_toINS_3_bi6bind_tINS3_11unspecifiedENS_4_mfi2mfIMNS_9unit_test13test_observerEFvmmEvS9_JmmEEENS3_4listIJNS3_5valueIPS9_EENSE_INS8_17test_case_counter19readonly_property43EEENSE_ImEEEEEEEEEvT_
FNA:26,0,_ZN5boost10function_nIvJEE9assign_toINS_3_bi6bind_tINS3_11unspecifiedENS_4_mfi2mfIMNS_9unit_test15unit_test_log_tEFvNS8_13output_formatERSoEvS9_JSA_SB_EEENS3_4listIJNS3_5valueIPS9_EENSG_ISA_EENS_17reference_wrapperISoEEEEEEEEEvT_
FNA:26,0,_ZN5boost10function_nIvJEE9assign_toINS_3_bi6bind_tINS3_11unspecifiedENS_4_mfi2mfIMNS_9unit_test15unit_test_log_tEFvRSoEvS9_JSA_EEENS3_4listIJNS3_5valueIPS9_EENS_17reference_wrapperISoEEEEEEEEEvT_
FNA:26,0,_ZN5boost10function_nIvJEE9assign_toINS_3_bi6bind_tINS3_11unspecifiedENS_4_mfi2mfIMNS_9unit_test17test_unit_fixtureEFvvEvS9_JEEENS3_4listIJNS3_5valueINS_10shared_ptrIS9_EEEEEEEEEEEvT_
FNA:26,1,_ZN5boost10function_nIvJEE9assign_toINS_3_bi6bind_tIvPFvPFPNS_9unit_test10test_suiteEiPPcEENS3_4listIJNS3_5valueISB_EEEEEEEEEvT_
FNA:26,0,_ZN5boost10function_nIvJEE9assign_toINS_3_bi6bind_tIvPFvRSoENS3_4listIJNS_17reference_wrapperISoEEEEEEEEEvT_
FNA:26,45,_ZN5boost10function_nIvJEE9assign_toIPFvvEEEvT_
FNA:26,1,_ZN5boost10function_nIvJNS_9unit_test13basic_cstringIKcEEEE9assign_toIZNS1_14runtime_config12_GLOBAL__N_1L19register_parametersERNS_7runtime16parameters_storeEEUlS4_E_EEvT_
FNA:26,9,_ZN5boost10function_nIvJRKNS_5debug16dbg_startup_infoEEE9assign_toIPFvS4_EEEvT_
FNL:27,987,1032
FNA:27,31,_ZN5boost10function_nIvJNS_9unit_test13basic_cstringIKcEEEE11move_assignERS5_
FNA:27,27,_ZN5boost10function_nIvJRKNS_5debug16dbg_startup_infoEEE11move_assignERS5_
FNF:28
FNH:27
DA:54,45
DA:58,45
DA:59,45
DA:60,45
DA:70,49
DA:76,49
DA:79,49
DA:91,4
DA:97,1
DA:99,3
DA:100,4
DA:101,4
DA:422,108
DA:425,108
DA:434,58
DA:441,58
DA:442,58
DA:446,58
DA:452,54
DA:454,54
DA:455,54
DA:456,54
DA:457,54
DA:459,0
DA:501,51
DA:503,102
DA:504,51
DA:515,3
DA:517,6
DA:518,3
DA:538,54
DA:540,54
DA:541,54
DA:543,54
DA:545,0
DA:726,102
DA:728,102
DA:745,48
DA:750,108
DA:755,108
DA:757,108
DA:758,108
DA:772,73
DA:774,73
DA:775,73
DA:777,28
DA:779,28
DA:780,28
DA:782,257
DA:784,98
DA:786,98
DA:787,0
DA:789,98
DA:790,98
DA:867,10
DA:869,10
DA:870,0
DA:872,10
DA:873,10
DA:874,10
DA:875,10
DA:876,10
DA:879,294
DA:881,294
DA:882,154
DA:883,4
DA:884,154
DA:886,294
DA:888,24
DA:891,73
DA:893,73
DA:894,46
DA:895,46
DA:908,46
DA:913,0
DA:916,73
DA:919,108
DA:940,216
DA:941,108
DA:945,104
DA:946,108
DA:948,0
DA:949,108
DA:987,58
DA:989,58
DA:990,0
DA:993,58
DA:994,21
DA:995,21
DA:1008,21
DA:1018,0
DA:1023,21
DA:1025,37
DA:1027,0
DA:1028,0
DA:1029,0
DA:1076,38
DA:1079,108
DA:1084,216
DA:1086,108
DA:1099,73
DA:1104,28
DA:1107,0
DA:1109,0
DA:1110,0
DA:1123,10
DA:1125,10
DA:1126,10
LF:108
LH:94
end_of_record
TN:
SF:/usr/include/boost/get_pointer.hpp
FNL:0,20,23
FNA:0,3,_ZN5boost11get_pointerINS_9unit_test13test_observerEEEPT_S4_
FNA:0,0,_ZN5boost11get_pointerINS_9unit_test15unit_test_log_tEEEPT_S4_
FNF:1
FNH:1
DA:20,3
DA:22,3
LF:2
LH:2
end_of_record
TN:
SF:/usr/include/boost/io/ios_state.hpp
FNL:0,370,374
FNA:0,8,_ZN5boost2io18ios_base_all_saverC2ERSt8ios_base
FNL:1,376,378
FNA:1,8,_ZN5boost2io18ios_base_all_saverD2Ev
FNL:2,380,384
FNA:2,151,_ZN5boost2io18ios_base_all_saver7restoreEv
FNF:3
FNH:3
DA:370,8
DA:371,8
DA:372,8
DA:373,8
DA:374,8
DA:376,8
DA:377,8
DA:378,8
DA:380,151
DA:381,151
DA:382,151
DA:383,151
DA:384,151
LF:13
LH:13
end_of_record
TN:
SF:/usr/include/boost/iterator/iterator_facade.hpp
FNL:0,313,313
FNA:0,0,_ZN5boost9iterators6detail23operator_arrow_dispatchINS_9unit_test13basic_cstringIKcEEPS6_E5proxyC2ERKS6_
FNL:1,314,314
FNA:1,0,_ZN5boost9iterators6detail23operator_arrow_dispatchINS_9unit_test13basic_cstringIKcEEPS6_E5proxyptEv
FNL:2,323,326
FNA:2,0,_ZN5boost9iterators6detail23operator_arrow_dispatchINS_9unit_test13basic_cstringIKcEEPS6_E5applyERKS6_
FNL:3,508,511
FNA:3,0,_ZN5boost9iterators20iterator_core_access11dereferenceINS_9unit_test5utils27basic_string_token_iteratorIcNS4_9ut_detail20default_char_compareIcEEEEEENT_9referenceERKSA_
FNL:4,514,517
FNA:4,0,_ZN5boost9iterators20iterator_core_access9incrementINS_9unit_test5utils27basic_string_token_iteratorIcNS4_9ut_detail20default_char_compareIcEEEEEEvRT_
FNL:5,526,529
FNA:5,0,_ZN5boost9iterators20iterator_core_access5equalINS_9unit_test5utils27basic_string_token_iteratorIcNS4_9ut_detail20default_char_compareIcEEEES9_EEbRKT_RKT0_St17integral_constantIbLb1EE
FNL:6,606,609
FNA:6,0,_ZNK5boost9iterators6detail20iterator_facade_baseINS_9unit_test5utils27basic_string_token_iteratorIcNS4_9ut_detail20default_char_compareIcEEEENS3_13basic_cstringIKcEENS0_21forward_traversal_tagESC_lLb0ELb0EEdeEv
FNL:7,611,614
FNA:7,0,_ZNK5boost9iterators6detail20iterator_facade_baseINS_9unit_test5utils27basic_string_token_iteratorIcNS4_9ut_detail20default_char_compareIcEEEENS3_13basic_cstringIKcEENS0_21forward_traversal_tagESC_lLb0ELb0EEptEv
FNL:8,616,620
FNA:8,0,_ZN5boost9iterators6detail20iterator_facade_baseINS_9unit_test5utils27basic_string_token_iteratorIcNS4_9ut_detail20default_char_compareIcEEEENS3_13basic_cstringIKcEENS0_21forward_traversal_tagESC_lLb0ELb0EEppEv
FNL:9,626,629
FNA:9,0,_ZN5boost9iterators6detail20iterator_facade_baseINS_9unit_test5utils27basic_string_token_iteratorIcNS4_9ut_detail20default_char_compareIcEEEENS3_13basic_cstringIKcEENS0_21forward_traversal_tagESC_lLb0ELb0EE7derivedEv
FNL:10,631,634
FNA:10,0,_ZNK5boost9iterators6detail20iterator_facade_baseINS_9unit_test5utils27basic_string_token_iteratorIcNS4_9ut_detail20default_char_compareIcEEEENS3_13basic_cstringIKcEENS0_21forward_traversal_tagESC_lLb0ELb0EE7derivedEv
FNL:11,838,838
FNA:11,0,_ZN5boost9iteratorsneINS_9unit_test5utils27basic_string_token_iteratorIcNS3_9ut_detail20default_char_compareIcEEEENS2_13basic_cstringIKcEENS0_21forward_traversal_tagESB_lS8_SB_SC_SB_lEENS0_6detail23enable_if_interoperableIT_T4_bE4typeERKNS0_15iterator_facadeISF_T0_T1_T2_T3_EERKNSJ_ISG_T5_T6_T7_T8_EE
FNF:12
FNH:0
DA:313,0
DA:314,0
DA:323,0
DA:325,0
DA:508,0
DA:510,0
DA:514,0
DA:516,0
DA:517,0
DA:526,0
DA:528,0
DA:606,0
DA:608,0
DA:611,0
DA:613,0
DA:616,0
DA:618,0
DA:619,0
DA:626,0
DA:628,0
DA:631,0
DA:633,0
DA:838,0
LF:23
LH:0
end_of_record
TN:
SF:/usr/include/boost/smart_ptr/detail/shared_count.hpp
FNL:0,123,128
FNA:0,1535,_ZN5boost6detail12shared_countC2Ev
FNL:1,137,165
FNA:1,0,_ZN5boost6detail12shared_countC2INS_16exception_detail15error_info_baseEEEPT_
FNA:1,0,_ZN5boost6detail12shared_countC2INS_23basic_wrap_stringstreamIcEEEEPT_
FNA:1,6,_ZN5boost6detail12shared_countC2INS_2io18ios_base_all_saverEEEPT_
FNA:1,1,_ZN5boost6detail12shared_countC2INS_7runtime14enum_parameterINS_9unit_test12report_levelELNS3_11args_amountE0EEEEEPT_
FNA:1,4,_ZN5boost6detail12shared_countC2INS_7runtime14enum_parameterINS_9unit_test13output_formatELNS3_11args_amountE0EEEEEPT_
FNA:1,1,_ZN5boost6detail12shared_countC2INS_7runtime14enum_parameterINS_9unit_test9log_levelELNS3_11args_amountE0EEEEEPT_
FNA:1,1,_ZN5boost6detail12shared_countC2INS_7runtime14typed_argumentINS_9unit_test12report_levelEEEEEPT_
FNA:1,3,_ZN5boost6detail12shared_countC2INS_7runtime14typed_argumentINS_9unit_test13output_formatEEEEEPT_
FNA:1,1,_ZN5boost6detail12shared_countC2INS_7runtime14typed_argumentINS_9unit_test9log_levelEEEEEPT_
FNA:1,1,_ZN5boost6detail12shared_countC2INS_7runtime14typed_argumentINSt7__cxx1112basic_stringIcSt11char_traitsIcESaIcEEEEEEEPT_
FNA:1,2,_ZN5boost6detail12shared_countC2INS_7runtime14typed_argumentISt6vectorINSt7__cxx1112basic_stringIcSt11char_traitsIcESaIcEEESaISB_EEEEEEPT_
FNA:1,13,_ZN5boost6detail12shared_countC2INS_7runtime14typed_argumentIbEEEEPT_
FNA:1,1,_ZN5boost6detail12shared_countC2INS_7runtime14typed_argumentIjEEEEPT_
FNA:1,1,_ZN5boost6detail12shared_countC2INS_7runtime14typed_argumentImEEEEPT_
FNA:1,572,_ZN5boost6detail12shared_countC2INS_7runtime3cla13rt_cla_detail14parameter_trieEEEPT_
FNA:1,1,_ZN5boost6detail12shared_countC2INS_7runtime3cla6parserEEEPT_
FNA:1,13,_ZN5boost6detail12shared_countC2INS_7runtime6optionEEEPT_
FNA:1,0,_ZN5boost6detail12shared_countC2INS_7runtime9parameterINS_9unit_test12report_levelELNS3_11args_amountE0ELb1EEEEEPT_
FNA:1,0,_ZN5boost6detail12shared_countC2INS_7runtime9parameterINS_9unit_test13output_formatELNS3_11args_amountE0ELb1EEEEEPT_
FNA:1,0,_ZN5boost6detail12shared_countC2INS_7runtime9parameterINS_9unit_test9log_levelELNS3_11args_amountE0ELb1EEEEEPT_
FNA:1,5,_ZN5boost6detail12shared_countC2INS_7runtime9parameterINSt7__cxx1112basic_stringIcSt11char_traitsIcESaIcEEELNS3_11args_amountE0ELb0EEEEEPT_
FNA:1,2,_ZN5boost6detail12shared_countC2INS_7runtime9parameterINSt7__cxx1112basic_stringIcSt11char_traitsIcESaIcEEELNS3_11args_amountE2ELb0EEEEEPT_
FNA:1,1,_ZN5boost6detail12shared_countC2INS_7runtime9parameterIjLNS3_11args_amountE0ELb0EEEEEPT_
FNA:1,1,_ZN5boost6detail12shared_countC2INS_7runtime9parameterImLNS3_11args_amountE0ELb0EEEEEPT_
FNA:1,3,_ZN5boost6detail12shared_countC2INS_9unit_test23unit_test_log_formatterEEEPT_
FNA:1,0,_ZN5boost6detail12shared_countC2INS_9unit_test9decorator10depends_onEEEPT_
FNA:1,0,_ZN5boost6detail12shared_countC2INS_9unit_test9decorator11descriptionEEEPT_
FNA:1,0,_ZN5boost6detail12shared_countC2INS_9unit_test9decorator12preconditionEEEPT_
FNA:1,0,_ZN5boost6detail12shared_countC2INS_9unit_test9decorator15stack_decoratorEEEPT_
FNA:1,0,_ZN5boost6detail12shared_countC2INS_9unit_test9decorator17expected_failuresEEEPT_
FNA:1,0,_ZN5boost6detail12shared_countC2INS_9unit_test9decorator5labelEEEPT_
FNA:1,0,_ZN5boost6detail12shared_countC2INS_9unit_test9decorator7timeoutEEEPT_
FNA:1,0,_ZN5boost6detail12shared_countC2INS_9unit_test9decorator9fixture_tEEEPT_
FNA:1,0,_ZN5boost6detail12shared_countC2INS_9unit_test9framework4impl21global_fixture_handleEEEPT_
FNL:2,197,225
FNA:2,0,_ZN5boost6detail12shared_countC2IPNS_9unit_test14runtime_config13stream_holder16callback_cleanerENS0_13sp_ms_deleterIS6_EEEET_NS0_14sp_inplace_tagIT0_EE
FNL:3,391,397
FNA:3,6373,_ZN5boost6detail12shared_countD2Ev
FNL:4,399,405
FNA:4,2325,_ZN5boost6detail12shared_countC2ERKS1_
FNL:5,407,413
FNA:5,1879,_ZN5boost6detail12shared_countC2EOS1_
FNL:6,432,437
FNA:6,2020,_ZN5boost6detail12shared_count4swapERS1_
FNL:7,478,481
FNA:7,0,_ZNK5boost6detail12shared_count19get_untyped_deleterEv
FNF:8
FNH:6
DA:123,1535
DA:128,1535
DA:137,633
DA:146,633
DA:148,0
DA:150,0
DA:151,0
DA:165,633
DA:197,0
DA:206,0
DA:208,0
DA:210,0
DA:211,0
DA:225,0
DA:391,6373
DA:393,6373
DA:397,6373
DA:399,2325
DA:404,2325
DA:405,2325
DA:407,1879
DA:412,1879
DA:413,1879
DA:432,2020
DA:434,2020
DA:435,2020
DA:436,2020
DA:437,2020
DA:478,0
DA:480,0
LF:30
LH:19
end_of_record
TN:
SF:/usr/include/boost/smart_ptr/detail/sp_counted_base_gcc_atomic.hpp
FNL:0,106,109
FNA:0,2322,_ZN5boost6detail15sp_counted_base12add_ref_copyEv
FNL:1,116,123
FNA:1,2955,_ZN5boost6detail15sp_counted_base7releaseEv
FNL:2,130,136
FNA:2,633,_ZN5boost6detail15sp_counted_base12weak_releaseEv
FNL:3,33,36
FNA:3,2322,_ZN5boost6detail16atomic_incrementEPj
FNL:4,38,41
FNA:4,3588,_ZN5boost6detail16atomic_decrementEPj
FNL:5,82,84
FNA:5,633,_ZN5boost6detail15sp_counted_baseC2Ev
FNL:6,86,88
FNA:6,0,_ZN5boost6detail15sp_counted_baseD0Ev
FNA:6,633,_ZN5boost6detail15sp_counted_baseD2Ev
FNL:7,97,100
FNA:7,633,_ZN5boost6detail15sp_counted_base7destroyEv
FNF:8
FNH:8
DA:33,2322
DA:35,2322
DA:36,2322
DA:38,3588
DA:40,3588
DA:82,633
DA:84,633
DA:86,633
DA:87,633
DA:88,633
DA:97,633
DA:99,633
DA:100,633
DA:106,2322
DA:108,2322
DA:109,2322
DA:116,2955
DA:118,2955
DA:120,633
DA:121,633
DA:123,2955
DA:130,633
DA:132,633
DA:134,633
DA:136,633
LF:25
LH:25
end_of_record
TN:
SF:/usr/include/boost/smart_ptr/detail/sp_counted_impl.hpp
FNL:0,102,105
FNA:0,0,_ZN5boost6detail17sp_counted_impl_pINS_16exception_detail15error_info_baseEE19get_untyped_deleterEv
FNA:0,0,_ZN5boost6detail17sp_counted_impl_pINS_23basic_wrap_stringstreamIcEEE19get_untyped_deleterEv
FNA:0,0,_ZN5boost6detail17sp_counted_impl_pINS_2io18ios_base_all_saverEE19get_untyped_deleterEv
FNA:0,0,_ZN5boost6detail17sp_counted_impl_pINS_7runtime14enum_parameterINS_9unit_test12report_levelELNS2_11args_amountE0EEEE19get_untyped_deleterEv
FNA:0,0,_ZN5boost6detail17sp_counted_impl_pINS_7runtime14enum_parameterINS_9unit_test13output_formatELNS2_11args_amountE0EEEE19get_untyped_deleterEv
FNA:0,0,_ZN5boost6detail17sp_counted_impl_pINS_7runtime14enum_parameterINS_9unit_test9log_levelELNS2_11args_amountE0EEEE19get_untyped_deleterEv
FNA:0,0,_ZN5boost6detail17sp_counted_impl_pINS_7runtime14typed_argumentINS_9unit_test12report_levelEEEE19get_untyped_deleterEv
FNA:0,0,_ZN5boost6detail17sp_counted_impl_pINS_7runtime14typed_argumentINS_9unit_test13output_formatEEEE19get_untyped_deleterEv
FNA:0,0,_ZN5boost6detail17sp_counted_impl_pINS_7runtime14typed_argumentINS_9unit_test9log_levelEEEE19get_untyped_deleterEv
FNA:0,0,_ZN5boost6detail17sp_counted_impl_pINS_7runtime14typed_argumentINSt7__cxx1112basic_stringIcSt11char_traitsIcESaIcEEEEEE19get_untyped_deleterEv
FNA:0,0,_ZN5boost6detail17sp_counted_impl_pINS_7runtime14typed_argumentISt6vectorINSt7__cxx1112basic_stringIcSt11char_traitsIcESaIcEEESaISA_EEEEE19get_untyped_deleterEv
FNA:0,0,_ZN5boost6detail17sp_counted_impl_pINS_7runtime14typed_argumentIbEEE19get_untyped_deleterEv
FNA:0,0,_ZN5boost6detail17sp_counted_impl_pINS_7runtime14typed_argumentIjEEE19get_untyped_deleterEv
FNA:0,0,_ZN5boost6detail17sp_counted_impl_pINS_7runtime14typed_argumentImEEE19get_untyped_deleterEv
FNA:0,0,_ZN5boost6detail17sp_counted_impl_pINS_7runtime3cla13rt_cla_detail14parameter_trieEE19get_untyped_deleterEv
FNA:0,0,_ZN5boost6detail17sp_counted_impl_pINS_7runtime3cla6parserEE19get_untyped_deleterEv
FNA:0,0,_ZN5boost6detail17sp_counted_impl_pINS_7runtime6optionEE19get_untyped_deleterEv
FNA:0,0,_ZN5boost6detail17sp_counted_impl_pINS_7runtime9parameterINS_9unit_test12report_levelELNS2_11args_amountE0ELb1EEEE19get_untyped_deleterEv
FNA:0,0,_ZN5boost6detail17sp_counted_impl_pINS_7runtime9parameterINS_9unit_test13output_formatELNS2_11args_amountE0ELb1EEEE19get_untyped_deleterEv
FNA:0,0,_ZN5boost6detail17sp_counted_impl_pINS_7runtime9parameterINS_9unit_test9log_levelELNS2_11args_amountE0ELb1EEEE19get_untyped_deleterEv
FNA:0,0,_ZN5boost6detail17sp_counted_impl_pINS_7runtime9parameterINSt7__cxx1112basic_stringIcSt11char_traitsIcESaIcEEELNS2_11args_amountE0ELb0EEEE19get_untyped_deleterEv
FNA:0,0,_ZN5boost6detail17sp_counted_impl_pINS_7runtime9parameterINSt7__cxx1112basic_stringIcSt11char_traitsIcESaIcEEELNS2_11args_amountE2ELb0EEEE19get_untyped_deleterEv
FNA:0,0,_ZN5boost6detail17sp_counted_impl_pINS_7runtime9parameterIjLNS2_11args_amountE0ELb0EEEE19get_untyped_deleterEv
FNA:0,0,_ZN5boost6detail17sp_counted_impl_pINS_7runtime9parameterImLNS2_11args_amountE0ELb0EEEE19get_untyped_deleterEv
FNA:0,0,_ZN5boost6detail17sp_counted_impl_pINS_9unit_test23unit_test_log_formatterEE19get_untyped_deleterEv
FNA:0,0,_ZN5boost6detail17sp_counted_impl_pINS_9unit_test9decorator10depends_onEE19get_untyped_deleterEv
FNA:0,0,_ZN5boost6detail17sp_counted_impl_pINS_9unit_test9decorator11descriptionEE19get_untyped_deleterEv
FNA:0,0,_ZN5boost6detail17sp_counted_impl_pINS_9unit_test9decorator12preconditionEE19get_untyped_deleterEv
FNA:0,0,_ZN5boost6detail17sp_counted_impl_pINS_9unit_test9decorator15stack_decoratorEE19get_untyped_deleterEv
FNA:0,0,_ZN5boost6detail17sp_counted_impl_pINS_9unit_test9decorator17expected_failuresEE19get_untyped_deleterEv
FNA:0,0,_ZN5boost6detail17sp_counted_impl_pINS_9unit_test9decorator5labelEE19get_untyped_deleterEv
FNA:0,0,_ZN5boost6detail17sp_counted_impl_pINS_9unit_test9decorator7timeoutEE19get_untyped_deleterEv
FNA:0,0,_ZN5boost6detail17sp_counted_impl_pINS_9unit_test9decorator9fixture_tEE19get_untyped_deleterEv
FNA:0,0,_ZN5boost6detail17sp_counted_impl_pINS_9unit_test9framework4impl21global_fixture_handleEE19get_untyped_deleterEv
FNL:1,156,158
FNA:1,0,_ZN5boost6detail18sp_counted_impl_pdIPNS_9unit_test14runtime_config13stream_holder16callback_cleanerENS0_13sp_ms_deleterIS5_EEEC2ES6_
FNL:2,160,163
FNA:2,0,_ZN5boost6detail18sp_counted_impl_pdIPNS_9unit_test14runtime_config13stream_holder16callback_cleanerENS0_13sp_ms_deleterIS5_EEE7disposeEv
FNL:3,165,168
FNA:3,0,_ZN5boost6detail18sp_counted_impl_pdIPNS_9unit_test14runtime_config13stream_holder16callback_cleanerENS0_13sp_ms_deleterIS5_EEE11get_deleterERKSt9type_info
FNL:4,170,173
FNA:4,0,_ZN5boost6detail18sp_counted_impl_pdIPNS_9unit_test14runtime_config13stream_holder16callback_cleanerENS0_13sp_ms_deleterIS5_EEE17get_local_deleterERKSt9type_info
FNL:5,175,178
FNA:5,0,_ZN5boost6detail18sp_counted_impl_pdIPNS_9unit_test14runtime_config13stream_holder16callback_cleanerENS0_13sp_ms_deleterIS5_EEE19get_untyped_deleterEv
FNL:6,55,58
FNA:6,0,_ZN5boost6detail17get_local_deleterINS0_13sp_ms_deleterINS_9unit_test14runtime_config13stream_holder16callback_cleanerEEEEEPT_S9_
FNL:7,77,82
FNA:7,0,_ZN5boost6detail17sp_counted_impl_pINS_16exception_detail15error_info_baseEEC2EPS3_
FNA:7,0,_ZN5boost6detail17sp_counted_impl_pINS_23basic_wrap_stringstreamIcEEEC2EPS3_
FNA:7,6,_ZN5boost6detail17sp_counted_impl_pINS_2io18ios_base_all_saverEEC2EPS3_
FNA:7,1,_ZN5boost6detail17sp_counted_impl_pINS_7runtime14enum_parameterINS_9unit_test12report_levelELNS2_11args_amountE0EEEEC2EPS7_
FNA:7,4,_ZN5boost6detail17sp_counted_impl_pINS_7runtime14enum_parameterINS_9unit_test13output_formatELNS2_11args_amountE0EEEEC2EPS7_
FNA:7,1,_ZN5boost6detail17sp_counted_impl_pINS_7runtime14enum_parameterINS_9unit_test9log_levelELNS2_11args_amountE0EEEEC2EPS7_
FNA:7,1,_ZN5boost6detail17sp_counted_impl_pINS_7runtime14typed_argumentINS_9unit_test12report_levelEEEEC2EPS6_
FNA:7,3,_ZN5boost6detail17sp_counted_impl_pINS_7runtime14typed_argumentINS_9unit_test13output_formatEEEEC2EPS6_
FNA:7,1,_ZN5boost6detail17sp_counted_impl_pINS_7runtime14typed_argumentINS_9unit_test9log_levelEEEEC2EPS6_
FNA:7,1,_ZN5boost6detail17sp_counted_impl_pINS_7runtime14typed_argumentINSt7__cxx1112basic_stringIcSt11char_traitsIcESaIcEEEEEEC2EPSA_
FNA:7,2,_ZN5boost6detail17sp_counted_impl_pINS_7runtime14typed_argumentISt6vectorINSt7__cxx1112basic_stringIcSt11char_traitsIcESaIcEEESaISA_EEEEEC2EPSD_
FNA:7,13,_ZN5boost6detail17sp_counted_impl_pINS_7runtime14typed_argumentIbEEEC2EPS4_
FNA:7,1,_ZN5boost6detail17sp_counted_impl_pINS_7runtime14typed_argumentIjEEEC2EPS4_
FNA:7,1,_ZN5boost6detail17sp_counted_impl_pINS_7runtime14typed_argumentImEEEC2EPS4_
FNA:7,572,_ZN5boost6detail17sp_counted_impl_pINS_7runtime3cla13rt_cla_detail14parameter_trieEEC2EPS5_
FNA:7,1,_ZN5boost6detail17sp_counted_impl_pINS_7runtime3cla6parserEEC2EPS4_
FNA:7,13,_ZN5boost6detail17sp_counted_impl_pINS_7runtime6optionEEC2EPS3_
FNA:7,0,_ZN5boost6detail17sp_counted_impl_pINS_7runtime9parameterINS_9unit_test12report_levelELNS2_11args_amountE0ELb1EEEEC2EPS7_
FNA:7,0,_ZN5boost6detail17sp_counted_impl_pINS_7runtime9parameterINS_9unit_test13output_formatELNS2_11args_amountE0ELb1EEEEC2EPS7_
FNA:7,0,_ZN5boost6detail17sp_counted_impl_pINS_7runtime9parameterINS_9unit_test9log_levelELNS2_11args_amountE0ELb1EEEEC2EPS7_
FNA:7,5,_ZN5boost6detail17sp_counted_impl_pINS_7runtime9parameterINSt7__cxx1112basic_stringIcSt11char_traitsIcESaIcEEELNS2_11args_amountE0ELb0EEEEC2EPSB_
FNA:7,2,_ZN5boost6detail17sp_counted_impl_pINS_7runtime9parameterINSt7__cxx1112basic_stringIcSt11char_traitsIcESaIcEEELNS2_11args_amountE2ELb0EEEEC2EPSB_
FNA:7,1,_ZN5boost6detail17sp_counted_impl_pINS_7runtime9parameterIjLNS2_11args_amountE0ELb0EEEEC2EPS5_
FNA:7,1,_ZN5boost6detail17sp_counted_impl_pINS_7runtime9parameterImLNS2_11args_amountE0ELb0EEEEC2EPS5_
FNA:7,3,_ZN5boost6detail17sp_counted_impl_pINS_9unit_test23unit_test_log_formatterEEC2EPS3_
FNA:7,0,_ZN5boost6detail17sp_counted_impl_pINS_9unit_test9decorator10depends_onEEC2EPS4_
FNA:7,0,_ZN5boost6detail17sp_counted_impl_pINS_9unit_test9decorator11descriptionEEC2EPS4_
FNA:7,0,_ZN5boost6detail17sp_counted_impl_pINS_9unit_test9decorator12preconditionEEC2EPS4_
FNA:7,0,_ZN5boost6detail17sp_counted_impl_pINS_9unit_test9decorator15stack_decoratorEEC2EPS4_
FNA:7,0,_ZN5boost6detail17sp_counted_impl_pINS_9unit_test9decorator17expected_failuresEEC2EPS4_
FNA:7,0,_ZN5boost6detail17sp_counted_impl_pINS_9unit_test9decorator5labelEEC2EPS4_
FNA:7,0,_ZN5boost6detail17sp_counted_impl_pINS_9unit_test9decorator7timeoutEEC2EPS4_
FNA:7,0,_ZN5boost6detail17sp_counted_impl_pINS_9unit_test9decorator9fixture_tEEC2EPS4_
FNA:7,0,_ZN5boost6detail17sp_counted_impl_pINS_9unit_test9framework4impl21global_fixture_handleEEC2EPS5_
FNL:8,84,90
FNA:8,0,_ZN5boost6detail17sp_counted_impl_pINS_16exception_detail15error_info_baseEE7disposeEv
FNA:8,0,_ZN5boost6detail17sp_counted_impl_pINS_23basic_wrap_stringstreamIcEEE7disposeEv
FNA:8,6,_ZN5boost6detail17sp_counted_impl_pINS_2io18ios_base_all_saverEE7disposeEv
FNA:8,1,_ZN5boost6detail17sp_counted_impl_pINS_7runtime14enum_parameterINS_9unit_test12report_levelELNS2_11args_amountE0EEEE7disposeEv
FNA:8,4,_ZN5boost6detail17sp_counted_impl_pINS_7runtime14enum_parameterINS_9unit_test13output_formatELNS2_11args_amountE0EEEE7disposeEv
FNA:8,1,_ZN5boost6detail17sp_counted_impl_pINS_7runtime14enum_parameterINS_9unit_test9log_levelELNS2_11args_amountE0EEEE7disposeEv
FNA:8,1,_ZN5boost6detail17sp_counted_impl_pINS_7runtime14typed_argumentINS_9unit_test12report_levelEEEE7disposeEv
FNA:8,3,_ZN5boost6detail17sp_counted_impl_pINS_7runtime14typed_argumentINS_9unit_test13output_formatEEEE7disposeEv
FNA:8,1,_ZN5boost6detail17sp_counted_impl_pINS_7runtime14typed_argumentINS_9unit_test9log_levelEEEE7disposeEv
FNA:8,1,_ZN5boost6detail17sp_counted_impl_pINS_7runtime14typed_argumentINSt7__cxx1112basic_stringIcSt11char_traitsIcESaIcEEEEEE7disposeEv
FNA:8,2,_ZN5boost6detail17sp_counted_impl_pINS_7runtime14typed_argumentISt6vectorINSt7__cxx1112basic_stringIcSt11char_traitsIcESaIcEEESaISA_EEEEE7disposeEv
FNA:8,13,_ZN5boost6detail17sp_counted_impl_pINS_7runtime14typed_argumentIbEEE7disposeEv
FNA:8,1,_ZN5boost6detail17sp_counted_impl_pINS_7runtime14typed_argumentIjEEE7disposeEv
FNA:8,1,_ZN5boost6detail17sp_counted_impl_pINS_7runtime14typed_argumentImEEE7disposeEv
FNA:8,572,_ZN5boost6detail17sp_counted_impl_pINS_7runtime3cla13rt_cla_detail14parameter_trieEE7disposeEv
FNA:8,1,_ZN5boost6detail17sp_counted_impl_pINS_7runtime3cla6parserEE7disposeEv
FNA:8,13,_ZN5boost6detail17sp_counted_impl_pINS_7runtime6optionEE7disposeEv
FNA:8,0,_ZN5boost6detail17sp_counted_impl_pINS_7runtime9parameterINS_9unit_test12report_levelELNS2_11args_amountE0ELb1EEEE7disposeEv
FNA:8,0,_ZN5boost6detail17sp_counted_impl_pINS_7runtime9parameterINS_9unit_test13output_formatELNS2_11args_amountE0ELb1EEEE7disposeEv
FNA:8,0,_ZN5boost6detail17sp_counted_impl_pINS_7runtime9parameterINS_9unit_test9log_levelELNS2_11args_amountE0ELb1EEEE7disposeEv
FNA:8,5,_ZN5boost6detail17sp_counted_impl_pINS_7runtime9parameterINSt7__cxx1112basic_stringIcSt11char_traitsIcESaIcEEELNS2_11args_amountE0ELb0EEEE7disposeEv
FNA:8,2,_ZN5boost6detail17sp_counted_impl_pINS_7runtime9parameterINSt7__cxx1112basic_stringIcSt11char_traitsIcESaIcEEELNS2_11args_amountE2ELb0EEEE7disposeEv
FNA:8,1,_ZN5boost6detail17sp_counted_impl_pINS_7runtime9parameterIjLNS2_11args_amountE0ELb0EEEE7disposeEv
FNA:8,1,_ZN5boost6detail17sp_counted_impl_pINS_7runtime9parameterImLNS2_11args_amountE0ELb0EEEE7disposeEv
FNA:8,3,_ZN5boost6detail17sp_counted_impl_pINS_9unit_test23unit_test_log_formatterEE7disposeEv
FNA:8,0,_ZN5boost6detail17sp_counted_impl_pINS_9unit_test9decorator10depends_onEE7disposeEv
FNA:8,0,_ZN5boost6detail17sp_counted_impl_pINS_9unit_test9decorator11descriptionEE7disposeEv
FNA:8,0,_ZN5boost6detail17sp_counted_impl_pINS_9unit_test9decorator12preconditionEE7disposeEv
FNA:8,0,_ZN5boost6detail17sp_counted_impl_pINS_9unit_test9decorator15stack_decoratorEE7disposeEv
FNA:8,0,_ZN5boost6detail17sp_counted_impl_pINS_9unit_test9decorator17expected_failuresEE7disposeEv
FNA:8,0,_ZN5boost6detail17sp_counted_impl_pINS_9unit_test9decorator5labelEE7disposeEv
FNA:8,0,_ZN5boost6detail17sp_counted_impl_pINS_9unit_test9decorator7timeoutEE7disposeEv
FNA:8,0,_ZN5boost6detail17sp_counted_impl_pINS_9unit_test9decorator9fixture_tEE7disposeEv
FNA:8,0,_ZN5boost6detail17sp_counted_impl_pINS_9unit_test9framework4impl21global_fixture_handleEE7disposeEv
FNL:9,92,95
FNA:9,0,_ZN5boost6detail17sp_counted_impl_pINS_16exception_detail15error_info_baseEE11get_deleterERKSt9type_info
FNA:9,0,_ZN5boost6detail17sp_counted_impl_pINS_23basic_wrap_stringstreamIcEEE11get_deleterERKSt9type_info
FNA:9,0,_ZN5boost6detail17sp_counted_impl_pINS_2io18ios_base_all_saverEE11get_deleterERKSt9type_info
FNA:9,0,_ZN5boost6detail17sp_counted_impl_pINS_7runtime14enum_parameterINS_9unit_test12report_levelELNS2_11args_amountE0EEEE11get_deleterERKSt9type_info
FNA:9,0,_ZN5boost6detail17sp_counted_impl_pINS_7runtime14enum_parameterINS_9unit_test13output_formatELNS2_11args_amountE0EEEE11get_deleterERKSt9type_info
FNA:9,0,_ZN5boost6detail17sp_counted_impl_pINS_7runtime14enum_parameterINS_9unit_test9log_levelELNS2_11args_amountE0EEEE11get_deleterERKSt9type_info
FNA:9,0,_ZN5boost6detail17sp_counted_impl_pINS_7runtime14typed_argumentINS_9unit_test12report_levelEEEE11get_deleterERKSt9type_info
FNA:9,0,_ZN5boost6detail17sp_counted_impl_pINS_7runtime14typed_argumentINS_9unit_test13output_formatEEEE11get_deleterERKSt9type_info
FNA:9,0,_ZN5boost6detail17sp_counted_impl_pINS_7runtime14typed_argumentINS_9unit_test9log_levelEEEE11get_deleterERKSt9type_info
FNA:9,0,_ZN5boost6detail17sp_counted_impl_pINS_7runtime14typed_argumentINSt7__cxx1112basic_stringIcSt11char_traitsIcESaIcEEEEEE11get_deleterERKSt9type_info
FNA:9,0,_ZN5boost6detail17sp_counted_impl_pINS_7runtime14typed_argumentISt6vectorINSt7__cxx1112basic_stringIcSt11char_traitsIcESaIcEEESaISA_EEEEE11get_deleterERKSt9type_info
FNA:9,0,_ZN5boost6detail17sp_counted_impl_pINS_7runtime14typed_argumentIbEEE11get_deleterERKSt9type_info
FNA:9,0,_ZN5boost6detail17sp_counted_impl_pINS_7runtime14typed_argumentIjEEE11get_deleterERKSt9type_info
FNA:9,0,_ZN5boost6detail17sp_counted_impl_pINS_7runtime14typed_argumentImEEE11get_deleterERKSt9type_info
FNA:9,0,_ZN5boost6detail17sp_counted_impl_pINS_7runtime3cla13rt_cla_detail14parameter_trieEE11get_deleterERKSt9type_info
FNA:9,0,_ZN5boost6detail17sp_counted_impl_pINS_7runtime3cla6parserEE11get_deleterERKSt9type_info
FNA:9,0,_ZN5boost6detail17sp_counted_impl_pINS_7runtime6optionEE11get_deleterERKSt9type_info
FNA:9,0,_ZN5boost6detail17sp_counted_impl_pINS_7runtime9parameterINS_9unit_test12report_levelELNS2_11args_amountE0ELb1EEEE11get_deleterERKSt9type_info
FNA:9,0,_ZN5boost6detail17sp_counted_impl_pINS_7runtime9parameterINS_9unit_test13output_formatELNS2_11args_amountE0ELb1EEEE11get_deleterERKSt9type_info
FNA:9,0,_ZN5boost6detail17sp_counted_impl_pINS_7runtime9parameterINS_9unit_test9log_levelELNS2_11args_amountE0ELb1EEEE11get_deleterERKSt9type_info
FNA:9,0,_ZN5boost6detail17sp_counted_impl_pINS_7runtime9parameterINSt7__cxx1112basic_stringIcSt11char_traitsIcESaIcEEELNS2_11args_amountE0ELb0EEEE11get_deleterERKSt9type_info
FNA:9,0,_ZN5boost6detail17sp_counted_impl_pINS_7runtime9parameterINSt7__cxx1112basic_stringIcSt11char_traitsIcESaIcEEELNS2_11args_amountE2ELb0EEEE11get_deleterERKSt9type_info
FNA:9,0,_ZN5boost6detail17sp_counted_impl_pINS_7runtime9parameterIjLNS2_11args_amountE0ELb0EEEE11get_deleterERKSt9type_info
FNA:9,0,_ZN5boost6detail17sp_counted_impl_pINS_7runtime9parameterImLNS2_11args_amountE0ELb0EEEE11get_deleterERKSt9type_info
FNA:9,0,_ZN5boost6detail17sp_counted_impl_pINS_9unit_test23unit_test_log_formatterEE11get_deleterERKSt9type_info
FNA:9,0,_ZN5boost6detail17sp_counted_impl_pINS_9unit_test9decorator10depends_onEE11get_deleterERKSt9type_info
FNA:9,0,_ZN5boost6detail17sp_counted_impl_pINS_9unit_test9decorator11descriptionEE11get_deleterERKSt9type_info
FNA:9,0,_ZN5boost6detail17sp_counted_impl_pINS_9unit_test9decorator12preconditionEE11get_deleterERKSt9type_info
FNA:9,0,_ZN5boost6detail17sp_counted_impl_pINS_9unit_test9decorator15stack_decoratorEE11get_deleterERKSt9type_info
FNA:9,0,_ZN5boost6detail17sp_counted_impl_pINS_9unit_test9decorator17expected_failuresEE11get_deleterERKSt9type_info
FNA:9,0,_ZN5boost6detail17sp_counted_impl_pINS_9unit_test9decorator5labelEE11get_deleterERKSt9type_info
FNA:9,0,_ZN5boost6detail17sp_counted_impl_pINS_9unit_test9decorator7timeoutEE11get_deleterERKSt9type_info
FNA:9,0,_ZN5boost6detail17sp_counted_impl_pINS_9unit_test9decorator9fixture_tEE11get_deleterERKSt9type_info
FNA:9,0,_ZN5boost6detail17sp_counted_impl_pINS_9unit_test9framework4impl21global_fixture_handleEE11get_deleterERKSt9type_info
FNL:10,97,100
FNA:10,0,_ZN5boost6detail17sp_counted_impl_pINS_16exception_detail15error_info_baseEE17get_local_deleterERKSt9type_info
FNA:10,0,_ZN5boost6detail17sp_counted_impl_pINS_23basic_wrap_stringstreamIcEEE17get_local_deleterERKSt9type_info
FNA:10,0,_ZN5boost6detail17sp_counted_impl_pINS_2io18ios_base_all_saverEE17get_local_deleterERKSt9type_info
FNA:10,0,_ZN5boost6detail17sp_counted_impl_pINS_7runtime14enum_parameterINS_9unit_test12report_levelELNS2_11args_amountE0EEEE17get_local_deleterERKSt9type_info
FNA:10,0,_ZN5boost6detail17sp_counted_impl_pINS_7runtime14enum_parameterINS_9unit_test13output_formatELNS2_11args_amountE0EEEE17get_local_deleterERKSt9type_info
FNA:10,0,_ZN5boost6detail17sp_counted_impl_pINS_7runtime14enum_parameterINS_9unit_test9log_levelELNS2_11args_amountE0EEEE17get_local_deleterERKSt9type_info
FNA:10,0,_ZN5boost6detail17sp_counted_impl_pINS_7runtime14typed_argumentINS_9unit_test12report_levelEEEE17get_local_deleterERKSt9type_info
FNA:10,0,_ZN5boost6detail17sp_counted_impl_pINS_7runtime14typed_argumentINS_9unit_test13output_formatEEEE17get_local_deleterERKSt9type_info
FNA:10,0,_ZN5boost6detail17sp_counted_impl_pINS_7runtime14typed_argumentINS_9unit_test9log_levelEEEE17get_local_deleterERKSt9type_info
FNA:10,0,_ZN5boost6detail17sp_counted_impl_pINS_7runtime14typed_argumentINSt7__cxx1112basic_stringIcSt11char_traitsIcESaIcEEEEEE17get_local_deleterERKSt9type_info
FNA:10,0,_ZN5boost6detail17sp_counted_impl_pINS_7runtime14typed_argumentISt6vectorINSt7__cxx1112basic_stringIcSt11char_traitsIcESaIcEEESaISA_EEEEE17get_local_deleterERKSt9type_info
FNA:10,0,_ZN5boost6detail17sp_counted_impl_pINS_7runtime14typed_argumentIbEEE17get_local_deleterERKSt9type_info
FNA:10,0,_ZN5boost6detail17sp_counted_impl_pINS_7runtime14typed_argumentIjEEE17get_local_deleterERKSt9type_info
FNA:10,0,_ZN5boost6detail17sp_counted_impl_pINS_7runtime14typed_argumentImEEE17get_local_deleterERKSt9type_info
FNA:10,0,_ZN5boost6detail17sp_counted_impl_pINS_7runtime3cla13rt_cla_detail14parameter_trieEE17get_local_deleterERKSt9type_info
FNA:10,0,_ZN5boost6detail17sp_counted_impl_pINS_7runtime3cla6parserEE17get_local_deleterERKSt9type_info
FNA:10,0,_ZN5boost6detail17sp_counted_impl_pINS_7runtime6optionEE17get_local_deleterERKSt9type_info
FNA:10,0,_ZN5boost6detail17sp_counted_impl_pINS_7runtime9parameterINS_9unit_test12report_levelELNS2_11args_amountE0ELb1EEEE17get_local_deleterERKSt9type_info
FNA:10,0,_ZN5boost6detail17sp_counted_impl_pINS_7runtime9parameterINS_9unit_test13output_formatELNS2_11args_amountE0ELb1EEEE17get_local_deleterERKSt9type_info
FNA:10,0,_ZN5boost6detail17sp_counted_impl_pINS_7runtime9parameterINS_9unit_test9log_levelELNS2_11args_amountE0ELb1EEEE17get_local_deleterERKSt9type_info
FNA:10,0,_ZN5boost6detail17sp_counted_impl_pINS_7runtime9parameterINSt7__cxx1112basic_stringIcSt11char_traitsIcESaIcEEELNS2_11args_amountE0ELb0EEEE17get_local_deleterERKSt9type_info
FNA:10,0,_ZN5boost6detail17sp_counted_impl_pINS_7runtime9parameterINSt7__cxx1112basic_stringIcSt11char_traitsIcESaIcEEELNS2_11args_amountE2ELb0EEEE17get_local_deleterERKSt9type_info
FNA:10,0,_ZN5boost6detail17sp_counted_impl_pINS_7runtime9parameterIjLNS2_11args_amountE0ELb0EEEE17get_local_deleterERKSt9type_info
FNA:10,0,_ZN5boost6detail17sp_counted_impl_pINS_7runtime9parameterImLNS2_11args_amountE0ELb0EEEE17get_local_deleterERKSt9type_info
FNA:10,0,_ZN5boost6detail17sp_counted_impl_pINS_9unit_test23unit_test_log_formatterEE17get_local_deleterERKSt9type_info
FNA:10,0,_ZN5boost6detail17sp_counted_impl_pINS_9unit_test9decorator10depends_onEE17get_local_deleterERKSt9type_info
FNA:10,0,_ZN5boost6detail17sp_counted_impl_pINS_9unit_test9decorator11descriptionEE17get_local_deleterERKSt9type_info
FNA:10,0,_ZN5boost6detail17sp_counted_impl_pINS_9unit_test9decorator12preconditionEE17get_local_deleterERKSt9type_info
FNA:10,0,_ZN5boost6detail17sp_counted_impl_pINS_9unit_test9decorator15stack_decoratorEE17get_local_deleterERKSt9type_info
FNA:10,0,_ZN5boost6detail17sp_counted_impl_pINS_9unit_test9decorator17expected_failuresEE17get_local_deleterERKSt9type_info
FNA:10,0,_ZN5boost6detail17sp_counted_impl_pINS_9unit_test9decorator5labelEE17get_local_deleterERKSt9type_info
FNA:10,0,_ZN5boost6detail17sp_counted_impl_pINS_9unit_test9decorator7timeoutEE17get_local_deleterERKSt9type_info
FNA:10,0,_ZN5boost6detail17sp_counted_impl_pINS_9unit_test9decorator9fixture_tEE17get_local_deleterERKSt9type_info
FNA:10,0,_ZN5boost6detail17sp_counted_impl_pINS_9unit_test9framework4impl21global_fixture_handleEE17get_local_deleterERKSt9type_info
FNF:11
FNH:2
DA:55,0
DA:57,0
DA:77,633
DA:82,633
DA:84,633
DA:89,633
DA:90,633
DA:92,0
DA:94,0
DA:97,0
DA:99,0
DA:102,0
DA:104,0
DA:156,0
DA:158,0
DA:160,0
DA:162,0
DA:163,0
DA:165,0
DA:167,0
DA:170,0
DA:172,0
DA:175,0
DA:177,0
LF:24
LH:5
end_of_record
TN:
SF:/usr/include/boost/smart_ptr/make_shared_object.hpp
FNL:0,101,104
FNA:0,0,_ZN5boost6detail13sp_ms_deleterINS_9unit_test14runtime_config13stream_holder16callback_cleanerEE15set_initializedEv
FNL:1,222,237
FNA:1,0,_ZN5boost11make_sharedINS_9unit_test14runtime_config13stream_holder16callback_cleanerEJRKNS_8functionIFvvEEEEEENS_6detail15sp_if_not_arrayIT_E4typeEDpOT0_
FNL:2,47,65
FNA:2,0,_ZN5boost6detail13sp_ms_deleterINS_9unit_test14runtime_config13stream_holder16callback_cleanerEE7destroyEv
FNL:3,69,71
FNA:3,0,_ZN5boost6detail13sp_ms_deleterINS_9unit_test14runtime_config13stream_holder16callback_cleanerEEC2Ev
FNL:4,82,85
FNA:4,0,_ZN5boost6detail13sp_ms_deleterINS_9unit_test14runtime_config13stream_holder16callback_cleanerEED2Ev
FNL:5,87,90
FNA:5,0,_ZN5boost6detail13sp_ms_deleterINS_9unit_test14runtime_config13stream_holder16callback_cleanerEEclEPS5_
FNL:6,92,94
FNA:6,0,_ZN5boost6detail13sp_ms_deleterINS_9unit_test14runtime_config13stream_holder16callback_cleanerEE11operator_fnEPS5_
FNL:7,96,99
FNA:7,0,_ZN5boost6detail13sp_ms_deleterINS_9unit_test14runtime_config13stream_holder16callback_cleanerEE7addressEv
FNF:8
FNH:0
DA:47,0
DA:49,0
DA:54,0
DA:55,0
DA:63,0
DA:65,0
DA:69,0
DA:71,0
DA:82,0
DA:84,0
DA:85,0
DA:87,0
DA:89,0
DA:90,0
DA:92,0
DA:94,0
DA:96,0
DA:98,0
DA:101,0
DA:103,0
DA:104,0
DA:222,0
DA:224,0
DA:226,0
DA:228,0
DA:230,0
DA:231,0
DA:233,0
DA:235,0
DA:236,0
DA:237,0
LF:31
LH:0
end_of_record
TN:
SF:/usr/include/boost/smart_ptr/scoped_array.hpp
FNL:0,56,61
FNA:0,4,_ZN5boost12scoped_arrayIcEC2EPc
FNL:1,63,69
FNA:1,4,_ZN5boost12scoped_arrayIcED2Ev
FNL:2,71,75
FNA:2,2,_ZN5boost12scoped_arrayIcE5resetEPc
FNL:3,84,87
FNA:3,49,_ZNK5boost12scoped_arrayIcE3getEv
FNL:4,89,92
FNA:4,49,_ZNK5boost12scoped_arrayIcEcvbEv
FNL:5,94,99
FNA:5,2,_ZN5boost12scoped_arrayIcE4swapERS1_
FNF:6
FNH:6
DA:56,4
DA:61,4
DA:63,4
DA:68,4
DA:69,4
DA:71,2
DA:73,2
DA:74,2
DA:75,2
DA:84,49
DA:86,49
DA:89,49
DA:91,49
DA:94,2
DA:96,2
DA:97,2
DA:98,2
DA:99,2
LF:18
LH:18
end_of_record
TN:
SF:/usr/include/boost/smart_ptr/scoped_ptr.hpp
FNL:0,104,108
FNA:0,1,_ZNK5boost10scoped_ptrINS_2io18ios_base_all_saverEEptEv
FNA:0,0,_ZNK5boost10scoped_ptrINS_9unit_test16progress_displayEEptEv
FNA:0,3,_ZNK5boost10scoped_ptrINS_9unit_test16results_reporter6formatEEptEv
FNL:1,120,125
FNA:1,1,_ZN5boost10scoped_ptrINS_2io18ios_base_all_saverEE4swapERS3_
FNA:1,0,_ZN5boost10scoped_ptrINS_9unit_test16progress_displayEE4swapERS3_
FNA:1,1,_ZN5boost10scoped_ptrINS_9unit_test16results_reporter6formatEE4swapERS4_
FNL:2,66,71
FNA:2,2,_ZN5boost10scoped_ptrINS_2io18ios_base_all_saverEEC2EPS2_
FNA:2,0,_ZN5boost10scoped_ptrINS_9unit_test16progress_displayEEC2EPS2_
FNA:2,2,_ZN5boost10scoped_ptrINS_9unit_test16results_reporter6formatEEC2EPS3_
FNL:3,84,90
FNA:3,2,_ZN5boost10scoped_ptrINS_2io18ios_base_all_saverEED2Ev
FNA:3,0,_ZN5boost10scoped_ptrINS_9unit_test16progress_displayEED2Ev
FNA:3,2,_ZN5boost10scoped_ptrINS_9unit_test16results_reporter6formatEED2Ev
FNL:4,92,96
FNA:4,1,_ZN5boost10scoped_ptrINS_2io18ios_base_all_saverEE5resetEPS2_
FNA:4,0,_ZN5boost10scoped_ptrINS_9unit_test16progress_displayEE5resetEPS2_
FNA:4,1,_ZN5boost10scoped_ptrINS_9unit_test16results_reporter6formatEE5resetEPS3_
FNL:5,98,102
FNA:5,0,_ZNK5boost10scoped_ptrINS_9unit_test16progress_displayEEdeEv
FNF:6
FNH:5
DA:66,4
DA:71,4
DA:84,4
DA:89,4
DA:90,4
DA:92,2
DA:94,2
DA:95,2
DA:96,2
DA:98,0
DA:100,0
DA:101,0
DA:104,4
DA:106,4
DA:107,4
DA:120,2
DA:122,2
DA:123,2
DA:124,2
DA:125,2
LF:20
LH:17
end_of_record
TN:
SF:/usr/include/boost/smart_ptr/shared_ptr.hpp
FNL:0,188,190
FNA:0,633,_ZN5boost6detail26sp_enable_shared_from_thisEz
FNL:1,203,207
FNA:1,0,_ZN5boost6detail20sp_pointer_constructINS_16exception_detail15error_info_baseES3_EEvPNS_10shared_ptrIT_EEPT0_RNS0_12shared_countE
FNA:1,0,_ZN5boost6detail20sp_pointer_constructINS_23basic_wrap_stringstreamIcEES3_EEvPNS_10shared_ptrIT_EEPT0_RNS0_12shared_countE
FNA:1,6,_ZN5boost6detail20sp_pointer_constructINS_2io18ios_base_all_saverES3_EEvPNS_10shared_ptrIT_EEPT0_RNS0_12shared_countE
FNA:1,1,_ZN5boost6detail20sp_pointer_constructINS_7runtime11basic_paramENS2_14enum_parameterINS_9unit_test12report_levelELNS2_11args_amountE0EEEEEvPNS_10shared_ptrIT_EEPT0_RNS0_12shared_countE
FNA:1,4,_ZN5boost6detail20sp_pointer_constructINS_7runtime11basic_paramENS2_14enum_parameterINS_9unit_test13output_formatELNS2_11args_amountE0EEEEEvPNS_10shared_ptrIT_EEPT0_RNS0_12shared_countE
FNA:1,1,_ZN5boost6detail20sp_pointer_constructINS_7runtime11basic_paramENS2_14enum_parameterINS_9unit_test9log_levelELNS2_11args_amountE0EEEEEvPNS_10shared_ptrIT_EEPT0_RNS0_12shared_countE
FNA:1,13,_ZN5boost6detail20sp_pointer_constructINS_7runtime11basic_paramENS2_6optionEEEvPNS_10shared_ptrIT_EEPT0_RNS0_12shared_countE
FNA:1,0,_ZN5boost6detail20sp_pointer_constructINS_7runtime11basic_paramENS2_9parameterINS_9unit_test12report_levelELNS2_11args_amountE0ELb1EEEEEvPNS_10shared_ptrIT_EEPT0_RNS0_12shared_countE
FNA:1,0,_ZN5boost6detail20sp_pointer_constructINS_7runtime11basic_paramENS2_9parameterINS_9unit_test13output_formatELNS2_11args_amountE0ELb1EEEEEvPNS_10shared_ptrIT_EEPT0_RNS0_12shared_countE
FNA:1,0,_ZN5boost6detail20sp_pointer_constructINS_7runtime11basic_paramENS2_9parameterINS_9unit_test9log_levelELNS2_11args_amountE0ELb1EEEEEvPNS_10shared_ptrIT_EEPT0_RNS0_12shared_countE
FNA:1,5,_ZN5boost6detail20sp_pointer_constructINS_7runtime11basic_paramENS2_9parameterINSt7__cxx1112basic_stringIcSt11char_traitsIcESaIcEEELNS2_11args_amountE0ELb0EEEEEvPNS_10shared_ptrIT_EEPT0_RNS0_12shared_countE
FNA:1,2,_ZN5boost6detail20sp_pointer_constructINS_7runtime11basic_paramENS2_9parameterINSt7__cxx1112basic_stringIcSt11char_traitsIcESaIcEEELNS2_11args_amountE2ELb0EEEEEvPNS_10shared_ptrIT_EEPT0_RNS0_12shared_countE
FNA:1,1,_ZN5boost6detail20sp_pointer_constructINS_7runtime11basic_paramENS2_9parameterIjLNS2_11args_amountE0ELb0EEEEEvPNS_10shared_ptrIT_EEPT0_RNS0_12shared_countE
FNA:1,1,_ZN5boost6detail20sp_pointer_constructINS_7runtime11basic_paramENS2_9parameterImLNS2_11args_amountE0ELb0EEEEEvPNS_10shared_ptrIT_EEPT0_RNS0_12shared_countE
FNA:1,572,_ZN5boost6detail20sp_pointer_constructINS_7runtime3cla13rt_cla_detail14parameter_trieES5_EEvPNS_10shared_ptrIT_EEPT0_RNS0_12shared_countE
FNA:1,1,_ZN5boost6detail20sp_pointer_constructINS_7runtime3cla6parserES4_EEvPNS_10shared_ptrIT_EEPT0_RNS0_12shared_countE
FNA:1,1,_ZN5boost6detail20sp_pointer_constructINS_7runtime8argumentENS2_14typed_argumentINS_9unit_test12report_levelEEEEEvPNS_10shared_ptrIT_EEPT0_RNS0_12shared_countE
FNA:1,3,_ZN5boost6detail20sp_pointer_constructINS_7runtime8argumentENS2_14typed_argumentINS_9unit_test13output_formatEEEEEvPNS_10shared_ptrIT_EEPT0_RNS0_12shared_countE
FNA:1,1,_ZN5boost6detail20sp_pointer_constructINS_7runtime8argumentENS2_14typed_argumentINS_9unit_test9log_levelEEEEEvPNS_10shared_ptrIT_EEPT0_RNS0_12shared_countE
FNA:1,1,_ZN5boost6detail20sp_pointer_constructINS_7runtime8argumentENS2_14typed_argumentINSt7__cxx1112basic_stringIcSt11char_traitsIcESaIcEEEEEEEvPNS_10shared_ptrIT_EEPT0_RNS0_12shared_countE
FNA:1,2,_ZN5boost6detail20sp_pointer_constructINS_7runtime8argumentENS2_14typed_argumentISt6vectorINSt7__cxx1112basic_stringIcSt11char_traitsIcESaIcEEESaISB_EEEEEEvPNS_10shared_ptrIT_EEPT0_RNS0_12shared_countE
FNA:1,13,_ZN5boost6detail20sp_pointer_constructINS_7runtime8argumentENS2_14typed_argumentIbEEEEvPNS_10shared_ptrIT_EEPT0_RNS0_12shared_countE
FNA:1,1,_ZN5boost6detail20sp_pointer_constructINS_7runtime8argumentENS2_14typed_argumentIjEEEEvPNS_10shared_ptrIT_EEPT0_RNS0_12shared_countE
FNA:1,1,_ZN5boost6detail20sp_pointer_constructINS_7runtime8argumentENS2_14typed_argumentImEEEEvPNS_10shared_ptrIT_EEPT0_RNS0_12shared_countE
FNA:1,0,_ZN5boost6detail20sp_pointer_constructINS_9unit_test17test_unit_fixtureENS2_9framework4impl21global_fixture_handleEEEvPNS_10shared_ptrIT_EEPT0_RNS0_12shared_countE
FNA:1,3,_ZN5boost6detail20sp_pointer_constructINS_9unit_test23unit_test_log_formatterES3_EEvPNS_10shared_ptrIT_EEPT0_RNS0_12shared_countE
FNA:1,0,_ZN5boost6detail20sp_pointer_constructINS_9unit_test9decorator4baseENS3_10depends_onEEEvPNS_10shared_ptrIT_EEPT0_RNS0_12shared_countE
FNA:1,0,_ZN5boost6detail20sp_pointer_constructINS_9unit_test9decorator4baseENS3_11descriptionEEEvPNS_10shared_ptrIT_EEPT0_RNS0_12shared_countE
FNA:1,0,_ZN5boost6detail20sp_pointer_constructINS_9unit_test9decorator4baseENS3_12preconditionEEEvPNS_10shared_ptrIT_EEPT0_RNS0_12shared_countE
FNA:1,0,_ZN5boost6detail20sp_pointer_constructINS_9unit_test9decorator4baseENS3_15stack_decoratorEEEvPNS_10shared_ptrIT_EEPT0_RNS0_12shared_countE
FNA:1,0,_ZN5boost6detail20sp_pointer_constructINS_9unit_test9decorator4baseENS3_17expected_failuresEEEvPNS_10shared_ptrIT_EEPT0_RNS0_12shared_countE
FNA:1,0,_ZN5boost6detail20sp_pointer_constructINS_9unit_test9decorator4baseENS3_5labelEEEvPNS_10shared_ptrIT_EEPT0_RNS0_12shared_countE
FNA:1,0,_ZN5boost6detail20sp_pointer_constructINS_9unit_test9decorator4baseENS3_7timeoutEEEvPNS_10shared_ptrIT_EEPT0_RNS0_12shared_countE
FNA:1,0,_ZN5boost6detail20sp_pointer_constructINS_9unit_test9decorator4baseENS3_9fixture_tEEEvPNS_10shared_ptrIT_EEPT0_RNS0_12shared_countE
FNL:2,223,226
FNA:2,0,_ZN5boost6detail20sp_deleter_constructINS_9unit_test14runtime_config13stream_holder16callback_cleanerES5_EEvPNS_10shared_ptrIT_EEPT0_
FNL:3,264,266
FNA:3,0,_ZN5boost10shared_ptrINS_16exception_detail15error_info_baseEEC2Ev
FNA:3,190,_ZN5boost10shared_ptrINS_23basic_wrap_stringstreamIcEEEC2Ev
FNA:3,2,_ZN5boost10shared_ptrINS_6detail22translator_holder_baseEEC2Ev
FNA:3,678,_ZN5boost10shared_ptrINS_7runtime11basic_paramEEC2Ev
FNA:3,3,_ZN5boost10shared_ptrINS_7runtime3cla13rt_cla_detail14parameter_trieEEC2Ev
FNA:3,23,_ZN5boost10shared_ptrINS_7runtime8argumentEEC2Ev
FNA:3,3,_ZN5boost10shared_ptrINS_9unit_test14runtime_config13stream_holder16callback_cleanerEEC2Ev
FNA:3,3,_ZN5boost10shared_ptrINS_9unit_test23unit_test_log_formatterEEC2Ev
FNL:4,281,284
FNA:4,0,_ZN5boost10shared_ptrINS_16exception_detail15error_info_baseEEC2IS2_EEPT_
FNA:4,0,_ZN5boost10shared_ptrINS_23basic_wrap_stringstreamIcEEEC2IS2_EEPT_
FNA:4,6,_ZN5boost10shared_ptrINS_2io18ios_base_all_saverEEC2IS2_EEPT_
FNA:4,1,_ZN5boost10shared_ptrINS_7runtime11basic_paramEEC2INS1_14enum_parameterINS_9unit_test12report_levelELNS1_11args_amountE0EEEEEPT_
FNA:4,4,_ZN5boost10shared_ptrINS_7runtime11basic_paramEEC2INS1_14enum_parameterINS_9unit_test13output_formatELNS1_11args_amountE0EEEEEPT_
FNA:4,1,_ZN5boost10shared_ptrINS_7runtime11basic_paramEEC2INS1_14enum_parameterINS_9unit_test9log_levelELNS1_11args_amountE0EEEEEPT_
FNA:4,13,_ZN5boost10shared_ptrINS_7runtime11basic_paramEEC2INS1_6optionEEEPT_
FNA:4,0,_ZN5boost10shared_ptrINS_7runtime11basic_paramEEC2INS1_9parameterINS_9unit_test12report_levelELNS1_11args_amountE0ELb1EEEEEPT_
FNA:4,0,_ZN5boost10shared_ptrINS_7runtime11basic_paramEEC2INS1_9parameterINS_9unit_test13output_formatELNS1_11args_amountE0ELb1EEEEEPT_
FNA:4,0,_ZN5boost10shared_ptrINS_7runtime11basic_paramEEC2INS1_9parameterINS_9unit_test9log_levelELNS1_11args_amountE0ELb1EEEEEPT_
FNA:4,5,_ZN5boost10shared_ptrINS_7runtime11basic_paramEEC2INS1_9parameterINSt7__cxx1112basic_stringIcSt11char_traitsIcESaIcEEELNS1_11args_amountE0ELb0EEEEEPT_
FNA:4,2,_ZN5boost10shared_ptrINS_7runtime11basic_paramEEC2INS1_9parameterINSt7__cxx1112basic_stringIcSt11char_traitsIcESaIcEEELNS1_11args_amountE2ELb0EEEEEPT_
FNA:4,1,_ZN5boost10shared_ptrINS_7runtime11basic_paramEEC2INS1_9parameterIjLNS1_11args_amountE0ELb0EEEEEPT_
FNA:4,1,_ZN5boost10shared_ptrINS_7runtime11basic_paramEEC2INS1_9parameterImLNS1_11args_amountE0ELb0EEEEEPT_
FNA:4,572,_ZN5boost10shared_ptrINS_7runtime3cla13rt_cla_detail14parameter_trieEEC2IS4_EEPT_
FNA:4,1,_ZN5boost10shared_ptrINS_7runtime3cla6parserEEC2IS3_EEPT_
FNA:4,1,_ZN5boost10shared_ptrINS_7runtime8argumentEEC2INS1_14typed_argumentINS_9unit_test12report_levelEEEEEPT_
FNA:4,3,_ZN5boost10shared_ptrINS_7runtime8argumentEEC2INS1_14typed_argumentINS_9unit_test13output_formatEEEEEPT_
FNA:4,1,_ZN5boost10shared_ptrINS_7runtime8argumentEEC2INS1_14typed_argumentINS_9unit_test9log_levelEEEEEPT_
FNA:4,1,_ZN5boost10shared_ptrINS_7runtime8argumentEEC2INS1_14typed_argumentINSt7__cxx1112basic_stringIcSt11char_traitsIcESaIcEEEEEEEPT_
FNA:4,2,_ZN5boost10shared_ptrINS_7runtime8argumentEEC2INS1_14typed_argumentISt6vectorINSt7__cxx1112basic_stringIcSt11char_traitsIcESaIcEEESaISC_EEEEEEPT_
FNA:4,13,_ZN5boost10shared_ptrINS_7runtime8argumentEEC2INS1_14typed_argumentIbEEEEPT_
FNA:4,1,_ZN5boost10shared_ptrINS_7runtime8argumentEEC2INS1_14typed_argumentIjEEEEPT_
FNA:4,1,_ZN5boost10shared_ptrINS_7runtime8argumentEEC2INS1_14typed_argumentImEEEEPT_
FNA:4,0,_ZN5boost10shared_ptrINS_9unit_test17test_unit_fixtureEEC2INS1_9framework4impl21global_fixture_handleEEEPT_
FNA:4,3,_ZN5boost10shared_ptrINS_9unit_test23unit_test_log_formatterEEC2IS2_EEPT_
FNA:4,0,_ZN5boost10shared_ptrINS_9unit_test9decorator4baseEEC2INS2_10depends_onEEEPT_
FNA:4,0,_ZN5boost10shared_ptrINS_9unit_test9decorator4baseEEC2INS2_11descriptionEEEPT_
FNA:4,0,_ZN5boost10shared_ptrINS_9unit_test9decorator4baseEEC2INS2_12preconditionEEEPT_
FNA:4,0,_ZN5boost10shared_ptrINS_9unit_test9decorator4baseEEC2INS2_15stack_decoratorEEEPT_
FNA:4,0,_ZN5boost10shared_ptrINS_9unit_test9decorator4baseEEC2INS2_17expected_failuresEEEPT_
FNA:4,0,_ZN5boost10shared_ptrINS_9unit_test9decorator4baseEEC2INS2_5labelEEEPT_
FNA:4,0,_ZN5boost10shared_ptrINS_9unit_test9decorator4baseEEC2INS2_7timeoutEEEPT_
FNA:4,0,_ZN5boost10shared_ptrINS_9unit_test9decorator4baseEEC2INS2_9fixture_tEEEPT_
FNL:5,292,295
FNA:5,0,_ZN5boost10shared_ptrINS_9unit_test14runtime_config13stream_holder16callback_cleanerEEC2IS4_NS_6detail14sp_inplace_tagINS7_13sp_ms_deleterIS4_EEEEEEPT_T0_
FNL:6,315,317
FNA:6,0,_ZN5boost10shared_ptrINS_16exception_detail15error_info_baseEEC2ERKS3_
FNA:6,1356,_ZN5boost10shared_ptrINS_7runtime11basic_paramEEC2ERKS3_
FNA:6,749,_ZN5boost10shared_ptrINS_7runtime3cla13rt_cla_detail14parameter_trieEEC2ERKS5_
FNA:6,220,_ZN5boost10shared_ptrINS_7runtime8argumentEEC2ERKS3_
FNA:6,0,_ZN5boost10shared_ptrINS_9unit_test17test_unit_fixtureEEC2ERKS3_
FNA:6,0,_ZN5boost10shared_ptrINS_9unit_test19test_unit_generatorEEC2ERKS3_
FNA:6,0,_ZN5boost10shared_ptrINS_9unit_test9decorator4baseEEC2ERKS4_
FNL:7,347,349
FNA:7,0,_ZN5boost10shared_ptrINS_9unit_test14runtime_config13stream_holder16callback_cleanerEEC2IS4_EERKNS0_IT_EEPS4_
FNL:8,407,411
FNA:8,0,_ZN5boost10shared_ptrINS_16exception_detail15error_info_baseEEaSERKS3_
FNA:8,569,_ZN5boost10shared_ptrINS_7runtime11basic_paramEEaSERKS3_
FNA:8,3,_ZN5boost10shared_ptrINS_7runtime3cla13rt_cla_detail14parameter_trieEEaSERKS5_
FNA:8,0,_ZN5boost10shared_ptrINS_9unit_test9decorator4baseEEaSERKS4_
FNL:9,471,474
FNA:9,0,_ZN5boost10shared_ptrINS_16exception_detail15error_info_baseEEC2EOS3_
FNA:9,0,_ZN5boost10shared_ptrINS_23basic_wrap_stringstreamIcEEEC2EOS3_
FNA:9,6,_ZN5boost10shared_ptrINS_2io18ios_base_all_saverEEC2EOS3_
FNA:9,28,_ZN5boost10shared_ptrINS_7runtime11basic_paramEEC2EOS3_
FNA:9,1816,_ZN5boost10shared_ptrINS_7runtime3cla13rt_cla_detail14parameter_trieEEC2EOS5_
FNA:9,23,_ZN5boost10shared_ptrINS_7runtime8argumentEEC2EOS3_
FNA:9,0,_ZN5boost10shared_ptrINS_9unit_test14runtime_config13stream_holder16callback_cleanerEEC2EOS5_
FNA:9,0,_ZN5boost10shared_ptrINS_9unit_test17test_unit_fixtureEEC2EOS3_
FNA:9,0,_ZN5boost10shared_ptrINS_9unit_test19test_unit_generatorEEC2EOS3_
FNA:9,6,_ZN5boost10shared_ptrINS_9unit_test23unit_test_log_formatterEEC2EOS3_
FNA:9,0,_ZN5boost10shared_ptrINS_9unit_test9decorator4baseEEC2EOS4_
FNL:10,484,488
FNA:10,0,_ZN5boost10shared_ptrINS_2io18ios_base_all_saverEEaSEOS3_
FNA:10,678,_ZN5boost10shared_ptrINS_7runtime3cla13rt_cla_detail14parameter_trieEEaSEOS5_
FNA:10,23,_ZN5boost10shared_ptrINS_7runtime8argumentEEaSEOS3_
FNA:10,0,_ZN5boost10shared_ptrINS_9unit_test14runtime_config13stream_holder16callback_cleanerEEaSEOS5_
FNA:10,0,_ZN5boost10shared_ptrINS_9unit_test17test_unit_fixtureEEaSEOS3_
FNA:10,0,_ZN5boost10shared_ptrINS_9unit_test23unit_test_log_formatterEEaSEOS3_
FNA:10,0,_ZN5boost10shared_ptrINS_9unit_test9decorator4baseEEaSEOS4_
FNL:11,511,514
FNA:11,106,_ZN5boost10shared_ptrINS_7runtime11basic_paramEE5resetEv
FNA:11,0,_ZN5boost10shared_ptrINS_7runtime3cla13rt_cla_detail14parameter_trieEE5resetEv
FNA:11,1,_ZN5boost10shared_ptrINS_9unit_test14runtime_config13stream_holder16callback_cleanerEE5resetEv
FNL:12,516,520
FNA:12,0,_ZN5boost10shared_ptrINS_23basic_wrap_stringstreamIcEEE5resetIS2_EEvPT_
FNA:12,3,_ZN5boost10shared_ptrINS_2io18ios_base_all_saverEE5resetIS2_EEvPT_
FNA:12,1,_ZN5boost10shared_ptrINS_7runtime3cla6parserEE5resetIS3_EEvPT_
FNA:12,3,_ZN5boost10shared_ptrINS_9unit_test23unit_test_log_formatterEE5resetIS2_EEvPT_
FNL:13,542,546
FNA:13,0,_ZNK5boost10shared_ptrINS_16exception_detail15error_info_baseEEdeEv
FNA:13,0,_ZNK5boost10shared_ptrINS_23basic_wrap_stringstreamIcEEEdeEv
FNA:13,0,_ZNK5boost10shared_ptrINS_6detail22translator_holder_baseEEdeEv
FNA:13,220,_ZNK5boost10shared_ptrINS_7runtime8argumentEEdeEv
FNL:14,548,552
FNA:14,0,_ZNK5boost10shared_ptrINS_16exception_detail15error_info_baseEEptEv
FNA:14,0,_ZNK5boost10shared_ptrINS_23basic_wrap_stringstreamIcEEEptEv
FNA:14,142,_ZNK5boost10shared_ptrINS_2io18ios_base_all_saverEEptEv
FNA:14,866,_ZNK5boost10shared_ptrINS_7runtime11basic_paramEEptEv
FNA:14,1350,_ZNK5boost10shared_ptrINS_7runtime3cla13rt_cla_detail14parameter_trieEEptEv
FNA:14,1,_ZNK5boost10shared_ptrINS_7runtime3cla6parserEEptEv
FNA:14,220,_ZNK5boost10shared_ptrINS_7runtime8argumentEEptEv
FNA:14,0,_ZNK5boost10shared_ptrINS_9unit_test14runtime_config13stream_holder16callback_cleanerEEptEv
FNA:14,0,_ZNK5boost10shared_ptrINS_9unit_test19test_unit_generatorEEptEv
FNA:14,762,_ZNK5boost10shared_ptrINS_9unit_test23unit_test_log_formatterEEptEv
FNA:14,0,_ZNK5boost10shared_ptrINS_9unit_test9decorator4baseEEptEv
FNL:15,562,565
FNA:15,0,_ZNK5boost10shared_ptrINS_9unit_test17test_unit_fixtureEE3getEv
FNA:15,0,_ZNK5boost10shared_ptrINS_9unit_test23unit_test_log_formatterEE3getEv
FNL:16,567,570
FNA:16,0,_ZNK5boost10shared_ptrINS_16exception_detail15error_info_baseEEcvbEv
FNA:16,137,_ZNK5boost10shared_ptrINS_23basic_wrap_stringstreamIcEEEcvbEv
FNA:16,49,_ZNK5boost10shared_ptrINS_6detail22translator_holder_baseEEcvbEv
FNA:16,71,_ZNK5boost10shared_ptrINS_7runtime3cla13rt_cla_detail14parameter_trieEEcvbEv
FNA:16,0,_ZNK5boost10shared_ptrINS_7runtime3cla6parserEEcvbEv
FNL:17,582,586
FNA:17,0,_ZN5boost10shared_ptrINS_16exception_detail15error_info_baseEE4swapERS3_
FNA:17,0,_ZN5boost10shared_ptrINS_23basic_wrap_stringstreamIcEEE4swapERS3_
FNA:17,3,_ZN5boost10shared_ptrINS_2io18ios_base_all_saverEE4swapERS3_
FNA:17,675,_ZN5boost10shared_ptrINS_7runtime11basic_paramEE4swapERS3_
FNA:17,681,_ZN5boost10shared_ptrINS_7runtime3cla13rt_cla_detail14parameter_trieEE4swapERS5_
FNA:17,1,_ZN5boost10shared_ptrINS_7runtime3cla6parserEE4swapERS4_
FNA:17,23,_ZN5boost10shared_ptrINS_7runtime8argumentEE4swapERS3_
FNA:17,1,_ZN5boost10shared_ptrINS_9unit_test14runtime_config13stream_holder16callback_cleanerEE4swapERS5_
FNA:17,0,_ZN5boost10shared_ptrINS_9unit_test17test_unit_fixtureEE4swapERS3_
FNA:17,3,_ZN5boost10shared_ptrINS_9unit_test23unit_test_log_formatterEE4swapERS3_
FNA:17,0,_ZN5boost10shared_ptrINS_9unit_test9decorator4baseEE4swapERS4_
FNL:18,623,626
FNA:18,0,_ZNK5boost10shared_ptrINS_9unit_test14runtime_config13stream_holder16callback_cleanerEE29_internal_get_untyped_deleterEv
FNL:19,771,774
FNA:19,0,_ZN5boost11get_pointerINS_9unit_test17test_unit_fixtureEEEPNS_10shared_ptrIT_E12element_typeERKS5_
FNF:20
FNH:14
DA:188,633
DA:190,633
DA:203,633
DA:205,633
DA:206,633
DA:207,633
DA:223,0
DA:225,0
DA:226,0
DA:264,902
DA:266,902
DA:281,633
DA:283,633
DA:284,633
DA:292,0
DA:294,0
DA:295,0
DA:315,2325
DA:317,2325
DA:347,0
DA:349,0
DA:407,572
DA:409,572
DA:410,572
DA:471,1879
DA:473,1879
DA:474,1879
DA:484,701
DA:486,701
DA:487,701
DA:511,107
DA:513,107
DA:514,107
DA:516,7
DA:518,7
DA:519,7
DA:520,7
DA:542,220
DA:544,220
DA:545,220
DA:548,3341
DA:550,3341
DA:551,3341
DA:562,0
DA:564,0
DA:567,257
DA:569,257
DA:582,1387
DA:584,1387
DA:585,1387
DA:586,1387
DA:623,0
DA:625,0
DA:771,0
DA:773,0
LF:55
LH:41
end_of_record
TN:
SF:/usr/include/boost/test/debug.hpp
FNF:0
FNH:0
LF:0
LH:0
end_of_record
TN:
SF:/usr/include/boost/test/detail/global_typedef.hpp
FNL:0,72,75
FNA:0,338,_ZN5boost9unit_test9ut_detail19test_id_2_unit_typeEm
FNL:1,79,83
FNA:1,51,_ZN5boost9unit_test9ut_detail20test_unit_id_restoreC2ERmm
FNL:2,84,86
FNA:2,51,_ZN5boost9unit_test9ut_detail20test_unit_id_restoreD2Ev
FNF:3
FNH:3
DA:72,338
DA:74,338
DA:79,51
DA:80,51
DA:81,51
DA:82,51
DA:83,51
DA:84,51
DA:85,51
DA:86,51
LF:10
LH:10
end_of_record
TN:
SF:/usr/include/boost/test/detail/throw_exception.hpp
FNL:0,48,48
FNA:0,0,_ZN5boost9unit_test9ut_detail15throw_exceptionINS0_9framework11setup_errorEEEvRKT_
FNA:0,0,_ZN5boost9unit_test9ut_detail15throw_exceptionINS0_9framework14internal_errorEEEvRKT_
FNA:0,0,_ZN5boost9unit_test9ut_detail15throw_exceptionINS0_9framework15nothing_to_testEEEvRKT_
FNA:0,0,_ZN5boost9unit_test9ut_detail15throw_exceptionINS_12system_errorEEEvRKT_
FNA:0,0,_ZN5boost9unit_test9ut_detail15throw_exceptionINS_17execution_abortedEEEvRKT_
FNA:0,0,_ZN5boost9unit_test9ut_detail15throw_exceptionINS_19execution_exceptionEEEvRKT_
FNA:0,0,_ZN5boost9unit_test9ut_detail15throw_exceptionINS_3nfp10nfp_detail27access_to_invalid_parameterEEEvRKT_
FNA:0,0,_ZN5boost9unit_test9ut_detail15throw_exceptionINS_6detail23system_signal_exceptionEEEvRKT_
FNA:0,0,_ZN5boost9unit_test9ut_detail15throw_exceptionINS_7runtime12format_errorEEEvRKT_
FNA:0,0,_ZN5boost9unit_test9ut_detail15throw_exceptionINS_7runtime13duplicate_argEEEvRKT_
FNA:0,0,_ZN5boost9unit_test9ut_detail15throw_exceptionINS_7runtime14invalid_cla_idEEEvRKT_
FNA:0,0,_ZN5boost9unit_test9ut_detail15throw_exceptionINS_7runtime15ambiguous_paramEEEvRKT_
FNA:0,0,_ZN5boost9unit_test9ut_detail15throw_exceptionINS_7runtime15duplicate_paramEEEvRKT_
FNA:0,0,_ZN5boost9unit_test9ut_detail15throw_exceptionINS_7runtime15missing_req_argEEEvRKT_
FNA:0,0,_ZN5boost9unit_test9ut_detail15throw_exceptionINS_7runtime17arg_type_mismatchEEEvRKT_
FNA:0,0,_ZN5boost9unit_test9ut_detail15throw_exceptionINS_7runtime17conflicting_paramEEEvRKT_
FNA:0,0,_ZN5boost9unit_test9ut_detail15throw_exceptionINS_7runtime18invalid_param_specEEEvRKT_
FNA:0,0,_ZN5boost9unit_test9ut_detail15throw_exceptionINS_7runtime18unrecognized_paramEEEvRKT_
FNA:0,0,_ZN5boost9unit_test9ut_detail15throw_exceptionINS_7runtime26access_to_missing_argumentEEEvRKT_
FNF:1
FNH:0
DA:48,0
LF:1
LH:0
end_of_record
TN:
SF:/usr/include/boost/test/execution_monitor.hpp
FNL:0,293,293
FNA:0,0,_ZNK5boost19execution_exception4codeEv
FNL:1,295,295
FNA:1,0,_ZNK5boost19execution_exception4whatEv
FNL:2,297,297
FNA:2,0,_ZNK5boost19execution_exception5whereEv
FNF:3
FNH:0
DA:293,0
DA:295,0
DA:297,0
LF:3
LH:0
end_of_record
TN:
SF:/usr/include/boost/test/framework.hpp
FNL:0,159,159
FNA:0,0,_ZN5boost9unit_test9framework17context_generatorC2Ev
FNL:1,228,231
FNA:1,44,_ZN5boost9unit_test9framework3getINS0_10test_suiteEEERT_m
FNA:1,225,_ZN5boost9unit_test9framework3getINS0_9test_caseEEERT_m
FNA:1,1,_ZN5boost9unit_test9framework3getINS0_9test_unitEEERT_m
FNL:2,279,279
FNA:2,0,_ZN5boost9unit_test9framework14internal_errorC2ENS0_13basic_cstringIKcEE
FNL:3,286,286
FNA:3,0,_ZN5boost9unit_test9framework11setup_errorC2ENS0_13basic_cstringIKcEE
FNL:4,294,294
FNA:4,0,_ZN5boost9unit_test9framework15nothing_to_testC2Ei
FNF:5
FNH:1
DA:159,0
DA:228,270
DA:230,270
DA:279,0
DA:286,0
DA:294,0
LF:6
LH:2
end_of_record
TN:
SF:/usr/include/boost/test/impl/compiler_log_formatter.ipp
FNL:0,108,125
FNA:0,0,_ZN5boost9unit_test6output22compiler_log_formatter16test_unit_finishERSoRKNS0_9test_unitEm
FNL:1,130,137
FNA:1,0,_ZN5boost9unit_test6output22compiler_log_formatter17test_unit_skippedERSoRKNS0_9test_unitENS0_13basic_cstringIKcEE
FNL:2,142,165
FNA:2,0,_ZN5boost9unit_test6output22compiler_log_formatter19log_exception_startERSoRKNS0_19log_checkpoint_dataERKNS_19execution_exceptionE
FNL:3,170,173
FNA:3,0,_ZN5boost9unit_test6output22compiler_log_formatter20log_exception_finishERSo
FNL:4,178,207
FNA:4,0,_ZN5boost9unit_test6output22compiler_log_formatter15log_entry_startERSoRKNS0_14log_entry_dataENS0_23unit_test_log_formatter15log_entry_typesE
FNL:5,212,215
FNA:5,0,_ZN5boost9unit_test6output22compiler_log_formatter15log_entry_valueERSoNS0_13basic_cstringIKcEE
FNL:6,220,223
FNA:6,0,_ZN5boost9unit_test6output22compiler_log_formatter15log_entry_valueERSoRKNS0_12lazy_ostreamE
FNL:7,228,234
FNA:7,0,_ZN5boost9unit_test6output22compiler_log_formatter16log_entry_finishERSo
FNL:8,240,251
FNA:8,0,_ZN5boost9unit_test6output22compiler_log_formatter12print_prefixERSoNS0_13basic_cstringIKcEEm
FNL:9,256,264
FNA:9,0,_ZN5boost9unit_test6output22compiler_log_formatter19entry_context_startERSoNS0_9log_levelE
FNL:10,269,275
FNA:10,0,_ZN5boost9unit_test6output22compiler_log_formatter20entry_context_finishERSoNS0_9log_levelE
FNL:11,280,283
FNA:11,0,_ZN5boost9unit_test6output22compiler_log_formatter17log_entry_contextERSoNS0_9log_levelENS0_13basic_cstringIKcEE
FNL:12,51,54
FNA:12,0,_ZN5boost9unit_test6output12_GLOBAL__N_1L21test_phase_identifierEv
FNL:13,61,68
FNA:13,1,_ZN5boost9unit_test6output22compiler_log_formatter9log_startERSom
FNL:14,73,76
FNA:14,1,_ZN5boost9unit_test6output22compiler_log_formatter10log_finishERSo
FNL:15,81,91
FNA:15,1,_ZN5boost9unit_test6output22compiler_log_formatter14log_build_infoERSob
FNL:16,96,103
FNA:16,0,_ZN5boost9unit_test6output22compiler_log_formatter15test_unit_startERSoRKNS0_9test_unitE
FNF:17
FNH:3
DA:51,0
DA:53,0
DA:61,1
DA:63,1
DA:65,1
DA:66,1
DA:67,1
DA:68,1
DA:73,1
DA:75,1
DA:76,1
DA:81,1
DA:83,1
DA:87,0
DA:88,0
DA:89,0
DA:91,1
DA:96,0
DA:98,0
DA:100,0
DA:102,0
DA:103,0
DA:108,0
DA:110,0
DA:112,0
DA:114,0
DA:116,0
DA:117,0
DA:118,0
DA:119,0
DA:121,0
DA:124,0
DA:125,0
DA:130,0
DA:132,0
DA:134,0
DA:136,0
DA:137,0
DA:142,0
DA:144,0
DA:146,0
DA:149,0
DA:151,0
DA:152,0
DA:153,0
DA:155,0
DA:156,0
DA:157,0
DA:159,0
DA:161,0
DA:162,0
DA:163,0
DA:164,0
DA:165,0
DA:170,0
DA:172,0
DA:173,0
DA:178,0
DA:182,0
DA:183,0
DA:184,0
DA:185,0
DA:186,0
DA:187,0
DA:188,0
DA:189,0
DA:190,0
DA:191,0
DA:192,0
DA:193,0
DA:194,0
DA:195,0
DA:196,0
DA:197,0
DA:198,0
DA:199,0
DA:200,0
DA:201,0
DA:202,0
DA:203,0
DA:204,0
DA:205,0
DA:207,0
DA:212,0
DA:214,0
DA:215,0
DA:220,0
DA:222,0
DA:223,0
DA:228,0
DA:230,0
DA:231,0
DA:233,0
DA:234,0
DA:240,0
DA:242,0
DA:248,0
DA:251,0
DA:256,0
DA:258,0
DA:259,0
DA:262,0
DA:264,0
DA:269,0
DA:271,0
DA:272,0
DA:274,0
DA:275,0
DA:280,0
DA:282,0
DA:283,0
LF:111
LH:12
end_of_record
TN:
SF:/usr/include/boost/test/impl/debug.ipp
FNL:0,1034,1043
FNA:0,1,_ZN5boost5debug18break_memory_allocEl
FNL:1,182,182
FNA:1,343,_ZN5boost5debug12_GLOBAL__N_19fd_holderC2Ei
FNL:2,183,187
FNA:2,343,_ZN5boost5debug12_GLOBAL__N_19fd_holderD2Ev
FNL:3,189,189
FNA:3,686,_ZN5boost5debug12_GLOBAL__N_19fd_holdercviEv
FNL:4,206,206
FNA:4,686,_ZNK5boost5debug12_GLOBAL__N_112process_info10parent_pidEv
FNL:5,207,207
FNA:5,343,_ZNK5boost5debug12_GLOBAL__N_112process_info11binary_nameEv
FNL:6,208,208
FNA:6,0,_ZNK5boost5debug12_GLOBAL__N_112process_info11binary_pathEv
FNL:7,227,303
FNA:7,343,_ZN5boost5debug12_GLOBAL__N_112process_infoC2Ei
FNL:8,312,331
FNA:8,0,_ZN5boost5debug12_GLOBAL__N_1L20prepare_window_titleERKNS0_16dbg_startup_infoE
FNL:9,342,354
FNA:9,0,_ZN5boost5debug12_GLOBAL__N_1L8copy_argERNS_9unit_test13basic_cstringIcEENS3_IKcEE
FNL:10,359,398
FNA:10,0,_ZN5boost5debug12_GLOBAL__N_1L11safe_execlpEPKcz
FNL:11,407,417
FNA:11,0,_ZN5boost5debug12_GLOBAL__N_1L23start_debugger_in_emacsERKNS0_16dbg_startup_infoEPKcS6_
FNL:12,426,463
FNA:12,0,_ZN5boost5debug12_GLOBAL__N_1L21prepare_gdb_cmnd_fileERKNS0_16dbg_startup_infoE
FNL:13,468,476
FNA:13,0,_ZN5boost5debug12_GLOBAL__N_1L20start_gdb_in_consoleERKNS0_16dbg_startup_infoE
FNL:14,481,492
FNA:14,0,_ZN5boost5debug12_GLOBAL__N_1L18start_gdb_in_xtermERKNS0_16dbg_startup_infoE
FNL:15,497,507
FNA:15,0,_ZN5boost5debug12_GLOBAL__N_1L18start_gdb_in_emacsERKNS0_16dbg_startup_infoE
FNL:16,512,515
FNA:16,0,_ZN5boost5debug12_GLOBAL__N_1L19start_gdb_in_xemacsERKNS0_16dbg_startup_infoE
FNL:17,524,534
FNA:17,0,_ZN5boost5debug12_GLOBAL__N_1L20prepare_dbx_cmd_lineERKNS0_16dbg_startup_infoEb
FNL:18,539,545
FNA:18,0,_ZN5boost5debug12_GLOBAL__N_1L20start_dbx_in_consoleERKNS0_16dbg_startup_infoE
FNL:19,550,562
FNA:19,0,_ZN5boost5debug12_GLOBAL__N_1L18start_dbx_in_xtermERKNS0_16dbg_startup_infoE
FNL:20,567,574
FNA:20,0,_ZN5boost5debug12_GLOBAL__N_1L18start_dbx_in_emacsERKNS0_16dbg_startup_infoE
FNL:21,579,582
FNA:21,0,_ZN5boost5debug12_GLOBAL__N_1L19start_dbx_in_xemacsERKNS0_16dbg_startup_infoE
FNL:22,587,598
FNA:22,0,_ZN5boost5debug12_GLOBAL__N_1L16start_dbx_in_dddERKNS0_16dbg_startup_infoE
FNL:23,619,635
FNA:23,1,_ZN5boost5debug12_GLOBAL__N_16info_tC2Ev
FNL:24,648,706
FNA:24,49,_ZN5boost5debug14under_debuggerEv
FNL:25,716,758
FNA:25,0,_ZN5boost5debug14debugger_breakEv
FNL:26,769,779
FNA:26,0,_ZN5boost5debug12set_debuggerB5cxx11ENS_9unit_test13basic_cstringIKcEENS_8functionIFvRKNS0_16dbg_startup_infoEEEE
FNL:27,821,989
FNA:27,0,_ZN5boost5debug15attach_debuggerEb
FNL:28,998,1024
FNA:28,1,_ZN5boost5debug19detect_memory_leaksEbNS_9unit_test13basic_cstringIKcEE
FNF:29
FNH:10
DA:182,343
DA:183,343
DA:185,343
DA:186,343
DA:187,343
DA:189,686
DA:206,686
DA:207,343
DA:208,0
DA:227,343
DA:228,343
DA:267,343
DA:269,343
DA:271,343
DA:272,0
DA:274,343
DA:275,343
DA:276,0
DA:278,343
DA:280,343
DA:281,2156
DA:282,1813
DA:284,343
DA:285,2009
DA:286,1666
DA:288,343
DA:290,343
DA:292,343
DA:293,343
DA:295,343
DA:296,98
DA:298,245
DA:299,245
DA:303,343
DA:312,0
DA:318,0
DA:320,0
DA:323,0
DA:324,0
DA:326,0
DA:328,0
DA:330,0
DA:342,0
DA:344,0
DA:345,0
DA:347,0
DA:349,0
DA:351,0
DA:353,0
DA:359,0
DA:367,0
DA:369,0
DA:370,0
DA:371,0
DA:372,0
DA:375,0
DA:376,0
DA:377,0
DA:380,0
DA:381,0
DA:383,0
DA:385,0
DA:386,0
DA:387,0
DA:388,0
DA:389,0
DA:390,0
DA:393,0
DA:395,0
DA:397,0
DA:407,0
DA:409,0
DA:411,0
DA:412,0
DA:414,0
DA:415,0
DA:416,0
DA:426,0
DA:430,0
DA:431,0
DA:436,0
DA:437,0
DA:438,0
DA:440,0
DA:441,0
DA:446,0
DA:447,0
DA:448,0
DA:449,0
DA:450,0
DA:451,0
DA:452,0
DA:453,0
DA:454,0
DA:456,0
DA:457,0
DA:458,0
DA:459,0
DA:460,0
DA:462,0
DA:463,0
DA:468,0
DA:470,0
DA:472,0
DA:473,0
DA:475,0
DA:481,0
DA:483,0
DA:484,0
DA:486,0
DA:487,0
DA:489,0
DA:497,0
DA:499,0
DA:500,0
DA:501,0
DA:504,0
DA:506,0
DA:512,0
DA:515,0
DA:524,0
DA:528,0
DA:530,0
DA:533,0
DA:539,0
DA:542,0
DA:544,0
DA:545,0
DA:550,0
DA:552,0
DA:553,0
DA:554,0
DA:557,0
DA:559,0
DA:567,0
DA:574,0
DA:579,0
DA:582,0
DA:587,0
DA:589,0
DA:590,0
DA:591,0
DA:594,0
DA:596,0
DA:619,1
DA:621,1
DA:622,3
DA:623,2
DA:625,2
DA:626,2
DA:627,2
DA:628,2
DA:630,2
DA:631,2
DA:632,2
DA:633,2
DA:634,2
DA:635,1
DA:648,49
DA:657,49
DA:659,49
DA:661,392
DA:662,343
DA:665,343
DA:666,0
DA:668,343
DA:671,49
DA:716,0
DA:753,0
DA:758,0
DA:769,0
DA:771,0
DA:773,0
DA:775,0
DA:776,0
DA:778,0
DA:779,0
DA:821,0
DA:823,0
DA:824,0
DA:933,0
DA:934,0
DA:935,0
DA:936,0
DA:938,0
DA:939,0
DA:941,0
DA:943,0
DA:944,0
DA:946,0
DA:947,0
DA:949,0
DA:950,0
DA:951,0
DA:953,0
DA:954,0
DA:955,0
DA:956,0
DA:957,0
DA:959,0
DA:960,0
DA:961,0
DA:963,0
DA:965,0
DA:966,0
DA:970,0
DA:971,0
DA:973,0
DA:979,0
DA:980,0
DA:982,0
DA:989,0
DA:998,1
DA:1024,1
DA:1034,1
DA:1043,1
LF:216
LH:57
end_of_record
TN:
SF:/usr/include/boost/test/impl/decorator.ipp
FNL:0,106,111
FNA:0,0,_ZNK5boost9unit_test9decorator15stack_decoratordeEv
FNL:1,114,117
FNA:1,0,_ZN5boost9unit_test9decorator15stack_decorator5applyERNS0_9test_unitE
FNL:2,124,127
FNA:2,0,_ZN5boost9unit_test9decorator5label5applyERNS0_9test_unitE
FNL:3,136,139
FNA:3,0,_ZN5boost9unit_test9decorator17expected_failures5applyERNS0_9test_unitE
FNL:4,148,151
FNA:4,0,_ZN5boost9unit_test9decorator7timeout5applyERNS0_9test_unitE
FNL:5,160,163
FNA:5,0,_ZN5boost9unit_test9decorator11description5applyERNS0_9test_unitE
FNL:6,172,194
FNA:6,0,_ZN5boost9unit_test9decorator10depends_on5applyERNS0_9test_unitE
FNL:7,203,210
FNA:7,0,_ZN5boost9unit_test9decorator14enable_if_impl10apply_implERNS0_9test_unitEb
FNL:8,219,222
FNA:8,0,_ZN5boost9unit_test9decorator9fixture_t5applyERNS0_9test_unitE
FNL:9,231,234
FNA:9,0,_ZN5boost9unit_test9decorator12precondition5applyERNS0_9test_unitE
FNL:10,38,38
FNA:10,52,_ZN5boost9unit_test9decorator11collector_t8instanceEv
FNL:11,42,47
FNA:11,0,_ZN5boost9unit_test9decorator11collector_tmlERKNS1_4baseE
FNL:12,52,58
FNA:12,52,_ZN5boost9unit_test9decorator11collector_t8store_inERNS0_9test_unitE
FNL:13,63,72
FNA:13,52,_ZN5boost9unit_test9decorator11collector_t5resetEv
FNL:14,75,79
FNA:14,0,_ZN5boost9unit_test9decorator11collector_t5stackEv
FNL:15,84,87
FNA:15,0,_ZNK5boost9unit_test9decorator11collector_t19get_lazy_decoratorsEv
FNL:16,96,99
FNA:16,0,_ZNK5boost9unit_test9decorator4basedeEv
FNF:17
FNH:3
DA:38,52
DA:42,0
DA:44,0
DA:46,0
DA:52,52
DA:54,156
DA:55,52
DA:56,52
DA:57,52
DA:58,52
DA:63,52
DA:65,52
DA:66,0
DA:69,52
DA:70,104
DA:72,52
DA:75,0
DA:77,0
DA:78,0
DA:79,0
DA:84,0
DA:86,0
DA:96,0
DA:98,0
DA:106,0
DA:108,0
DA:109,0
DA:110,0
DA:114,0
DA:117,0
DA:124,0
DA:126,0
DA:127,0
DA:136,0
DA:138,0
DA:139,0
DA:148,0
DA:150,0
DA:151,0
DA:160,0
DA:162,0
DA:163,0
DA:172,0
DA:177,0
DA:179,0
DA:180,0
DA:181,0
DA:183,0
DA:185,0
DA:188,0
DA:189,0
DA:192,0
DA:194,0
DA:203,0
DA:205,0
DA:209,0
DA:210,0
DA:219,0
DA:221,0
DA:222,0
DA:231,0
DA:233,0
DA:234,0
LF:63
LH:12
end_of_record
TN:
SF:/usr/include/boost/test/impl/execution_monitor.ipp
FNL:0,1309,1315
FNA:0,2,_ZN5boost17execution_monitorC2Ev
FNL:1,1320,1407
FNA:1,49,_ZN5boost17execution_monitor7executeERKNS_8functionIFivEEE
FNL:2,1414,1414
FNA:2,49,_ZN5boost6detail7forwardC2ERKNS_8functionIFvvEEE
FNL:3,1416,1416
FNA:3,49,_ZN5boost6detail7forwardclEv
FNL:4,1423,1426
FNA:4,49,_ZN5boost17execution_monitor8vexecuteERKNS_8functionIFvvEEE
FNL:5,1432,1439
FNA:5,0,_ZN5boost12system_errorC2EPKc
FNL:6,1447,1451
FNA:6,0,_ZN5boost19execution_exceptionC2ENS0_10error_codeENS_9unit_test13basic_cstringIKcEERKNS0_8locationE
FNL:7,1455,1459
FNA:7,0,_ZN5boost19execution_exception8locationC2EPKcmS3_
FNL:8,1461,1465
FNA:8,0,_ZN5boost19execution_exception8locationC2ENS_9unit_test13basic_cstringIKcEEmPS4_
FNL:9,1476,1508
FNA:9,49,_ZN5boost3fpe6enableEj
FNL:10,1513,1544
FNA:10,49,_ZN5boost3fpe7disableEj
FNL:11,268,276
FNA:11,0,_ZN5boost6detail7extractINS_10error_infoINS_11throw_file_EPKcEEEENT_10value_typeEPKNS_9exceptionE
FNA:11,0,_ZN5boost6detail7extractINS_10error_infoINS_11throw_line_EiEEEENT_10value_typeEPKNS_9exceptionE
FNA:11,0,_ZN5boost6detail7extractINS_10error_infoINS_15throw_function_EPKcEEEENT_10value_typeEPKNS_9exceptionE
FNL:12,282,295
FNA:12,0,_ZN5boost6detailL12report_errorENS_19execution_exception10error_codeEPKNS_9exceptionEPKcPA1_13__va_list_tag
FNL:13,301,307
FNA:13,0,_ZN5boost6detailL12report_errorENS_19execution_exception10error_codeEPKNS_9exceptionEPKcz
FNL:14,315,321
FNA:14,0,_ZN5boost6detailL12report_errorENS_19execution_exception10error_codeEPKcz
FNL:15,327,330
FNA:15,49,_ZN5boost6detail9do_invokeINS_10shared_ptrINS0_22translator_holder_baseEEENS_8functionIFivEEEEEiRKT_RKT0_
FNL:16,335,342
FNA:16,49,_ZN5boost6detail16fpe_except_guardC2Ej
FNL:17,343,349
FNA:17,49,_ZN5boost6detail16fpe_except_guardD2Ev
FNL:18,363,366
FNA:18,0,_ZN5boost6detail11typeid_nameISt10bad_typeidEENSt7__cxx1112basic_stringIcSt11char_traitsIcESaIcEEERKT_
FNA:18,0,_ZN5boost6detail11typeid_nameISt11logic_errorEENSt7__cxx1112basic_stringIcSt11char_traitsIcESaIcEEERKT_
FNA:18,0,_ZN5boost6detail11typeid_nameISt11range_errorEENSt7__cxx1112basic_stringIcSt11char_traitsIcESaIcEEERKT_
FNA:18,0,_ZN5boost6detail11typeid_nameISt12domain_errorEENSt7__cxx1112basic_stringIcSt11char_traitsIcESaIcEEERKT_
FNA:18,0,_ZN5boost6detail11typeid_nameISt12length_errorEENSt7__cxx1112basic_stringIcSt11char_traitsIcESaIcEEERKT_
FNA:18,0,_ZN5boost6detail11typeid_nameISt12out_of_rangeEENSt7__cxx1112basic_stringIcSt11char_traitsIcESaIcEEERKT_
FNA:18,0,_ZN5boost6detail11typeid_nameISt13bad_exceptionEENSt7__cxx1112basic_stringIcSt11char_traitsIcESaIcEEERKT_
FNA:18,0,_ZN5boost6detail11typeid_nameISt13runtime_errorEENSt7__cxx1112basic_stringIcSt11char_traitsIcESaIcEEERKT_
FNA:18,0,_ZN5boost6detail11typeid_nameISt14overflow_errorEENSt7__cxx1112basic_stringIcSt11char_traitsIcESaIcEEERKT_
FNA:18,0,_ZN5boost6detail11typeid_nameISt15underflow_errorEENSt7__cxx1112basic_stringIcSt11char_traitsIcESaIcEEERKT_
FNA:18,0,_ZN5boost6detail11typeid_nameISt16invalid_argumentEENSt7__cxx1112basic_stringIcSt11char_traitsIcESaIcEEERKT_
FNA:18,0,_ZN5boost6detail11typeid_nameISt8bad_castEENSt7__cxx1112basic_stringIcSt11char_traitsIcESaIcEEERKT_
FNA:18,0,_ZN5boost6detail11typeid_nameISt9bad_allocEENSt7__cxx1112basic_stringIcSt11char_traitsIcESaIcEEERKT_
FNA:18,0,_ZN5boost6detail11typeid_nameISt9exceptionEENSt7__cxx1112basic_stringIcSt11char_traitsIcESaIcEEERKT_
FNL:19,386,389
FNA:19,49,_ZN5boost6detail23system_signal_exceptionC2Ev
FNL:20,392,396
FNA:20,0,_ZN5boost6detail23system_signal_exceptionclEP9siginfo_tPv
FNL:21,408,664
FNA:21,0,_ZNK5boost6detail23system_signal_exception6reportEv
FNL:22,696,698
FNA:22,49,_ZN5boost6detail13signal_actionC2Ev
FNL:23,702,729
FNA:23,343,_ZN5boost6detail13signal_actionC2EibbPc
FNL:24,733,737
FNA:24,392,_ZN5boost6detail13signal_actionD2Ev
FNL:25,758,763
FNA:25,49,_ZN5boost6detail14signal_handler11jump_bufferEv
FNL:26,765,770
FNA:26,0,_ZN5boost6detail14signal_handler7sys_sigEv
FNL:27,799,838
FNA:27,49,_ZN5boost6detail14signal_handlerC2EbbmbPc
FNL:28,842,870
FNA:28,49,_ZN5boost6detail14signal_handlerD2Ev
FNL:29,880,885
FNA:29,0,boost_execution_monitor_jumping_signal_handler
FNL:30,889,896
FNA:30,0,boost_execution_monitor_attaching_signal_handler
FNL:31,909,934
FNA:31,49,_ZN5boost17execution_monitor13catch_signalsERKNS_8functionIFivEEE
FNF:32
FNH:18
DA:268,0
DA:270,0
DA:271,0
DA:273,0
DA:275,0
DA:282,0
DA:287,0
DA:288,0
DA:290,0
DA:292,0
DA:301,0
DA:304,0
DA:306,0
DA:307,0
DA:315,0
DA:318,0
DA:320,0
DA:321,0
DA:327,49
DA:329,49
DA:335,49
DA:336,49
DA:339,49
DA:340,49
DA:341,0
DA:342,49
DA:343,49
DA:345,49
DA:346,0
DA:347,49
DA:348,49
DA:349,49
DA:363,0
DA:365,0
DA:386,49
DA:387,49
DA:388,49
DA:389,49
DA:392,0
DA:394,0
DA:395,0
DA:396,0
DA:408,0
DA:410,0
DA:411,0
DA:413,0
DA:419,0
DA:420,0
DA:422,0
DA:423,0
DA:425,0
DA:426,0
DA:428,0
DA:429,0
DA:430,0
DA:432,0
DA:435,0
DA:436,0
DA:438,0
DA:441,0
DA:442,0
DA:444,0
DA:446,0
DA:447,0
DA:450,0
DA:451,0
DA:452,0
DA:454,0
DA:455,0
DA:457,0
DA:458,0
DA:459,0
DA:460,0
DA:462,0
DA:463,0
DA:464,0
DA:465,0
DA:467,0
DA:468,0
DA:469,0
DA:470,0
DA:472,0
DA:473,0
DA:475,0
DA:476,0
DA:478,0
DA:479,0
DA:480,0
DA:481,0
DA:483,0
DA:484,0
DA:485,0
DA:486,0
DA:488,0
DA:489,0
DA:490,0
DA:491,0
DA:493,0
DA:494,0
DA:495,0
DA:496,0
DA:498,0
DA:499,0
DA:501,0
DA:503,0
DA:504,0
DA:505,0
DA:506,0
DA:508,0
DA:509,0
DA:510,0
DA:511,0
DA:513,0
DA:514,0
DA:515,0
DA:516,0
DA:518,0
DA:519,0
DA:520,0
DA:521,0
DA:523,0
DA:524,0
DA:525,0
DA:526,0
DA:528,0
DA:529,0
DA:530,0
DA:531,0
DA:533,0
DA:534,0
DA:535,0
DA:536,0
DA:538,0
DA:539,0
DA:540,0
DA:541,0
DA:543,0
DA:544,0
DA:545,0
DA:546,0
DA:548,0
DA:549,0
DA:551,0
DA:553,0
DA:554,0
DA:556,0
DA:557,0
DA:559,0
DA:560,0
DA:561,0
DA:562,0
DA:564,0
DA:565,0
DA:567,0
DA:568,0
DA:570,0
DA:571,0
DA:573,0
DA:575,0
DA:576,0
DA:578,0
DA:579,0
DA:581,0
DA:582,0
DA:583,0
DA:584,0
DA:586,0
DA:587,0
DA:588,0
DA:589,0
DA:591,0
DA:592,0
DA:594,0
DA:595,0
DA:597,0
DA:598,0
DA:600,0
DA:604,0
DA:605,0
DA:607,0
DA:608,0
DA:610,0
DA:611,0
DA:612,0
DA:613,0
DA:615,0
DA:616,0
DA:617,0
DA:618,0
DA:620,0
DA:621,0
DA:622,0
DA:623,0
DA:625,0
DA:626,0
DA:627,0
DA:628,0
DA:630,0
DA:631,0
DA:640,0
DA:641,0
DA:643,0
DA:644,0
DA:646,0
DA:650,0
DA:651,0
DA:653,0
DA:655,0
DA:656,0
DA:658,0
DA:660,0
DA:661,0
DA:662,0
DA:696,49
DA:697,49
DA:698,49
DA:702,343
DA:703,343
DA:704,343
DA:706,343
DA:707,49
DA:709,294
DA:711,294
DA:713,294
DA:714,0
DA:715,0
DA:718,294
DA:719,294
DA:721,294
DA:724,294
DA:725,294
DA:728,294
DA:733,392
DA:735,392
DA:736,294
DA:737,392
DA:758,49
DA:760,49
DA:762,49
DA:765,0
DA:767,0
DA:769,0
DA:799,49
DA:803,49
DA:804,49
DA:805,49
DA:806,49
DA:807,49
DA:808,49
DA:809,49
DA:811,49
DA:813,49
DA:814,98
DA:816,49
DA:818,49
DA:819,0
DA:820,0
DA:824,49
DA:826,49
DA:828,49
DA:830,49
DA:831,49
DA:832,49
DA:833,49
DA:834,49
DA:838,49
DA:842,49
DA:844,49
DA:846,49
DA:847,0
DA:854,49
DA:859,49
DA:860,49
DA:861,49
DA:862,0
DA:863,0
DA:864,0
DA:865,0
DA:869,49
DA:870,49
DA:880,0
DA:882,0
DA:884,0
DA:889,0
DA:891,0
DA:892,0
DA:895,0
DA:896,0
DA:909,49
DA:918,49
DA:919,2
DA:924,98
DA:925,49
DA:926,98
DA:927,49
DA:928,147
DA:930,49
DA:931,98
DA:933,0
DA:934,49
DA:1309,2
DA:1310,2
DA:1311,2
DA:1312,2
DA:1313,2
DA:1314,2
DA:1315,2
DA:1320,49
DA:1322,49
DA:1323,0
DA:1326,49
DA:1329,49
DA:1330,49
DA:1339,0
DA:1340,0
DA:1341,0
DA:1342,0
DA:1343,0
DA:1344,0
DA:1347,0
DA:1348,0
DA:1350,0
DA:1369,0
DA:1370,0
DA:1371,0
DA:1372,0
DA:1373,0
DA:1374,0
DA:1375,0
DA:1376,0
DA:1377,0
DA:1378,0
DA:1379,0
DA:1380,0
DA:1381,0
DA:1382,0
DA:1386,0
DA:1387,0
DA:1388,0
DA:1389,0
DA:1390,0
DA:1393,0
DA:1394,0
DA:1397,0
DA:1398,0
DA:1401,0
DA:1402,0
DA:1406,0
DA:1414,49
DA:1416,49
DA:1423,49
DA:1425,49
DA:1426,49
DA:1432,0
DA:1436,0
DA:1438,0
DA:1439,0
DA:1447,0
DA:1448,0
DA:1449,0
DA:1450,0
DA:1451,0
DA:1455,0
DA:1456,0
DA:1457,0
DA:1458,0
DA:1459,0
DA:1461,0
DA:1462,0
DA:1463,0
DA:1464,0
DA:1465,0
DA:1476,49
DA:1501,49
DA:1502,49
DA:1503,49
DA:1513,49
DA:1537,49
DA:1538,49
DA:1539,49
LF:380
LH:107
end_of_record
TN:
SF:/usr/include/boost/test/impl/framework.ipp
FNL:0,103,114
FNA:0,0,_ZN5boost9unit_test9framework4implL8tu_depthEmmRSt3mapImNS2_10order_infoESt4lessImESaISt4pairIKmS4_EEE
FNL:1,1163,1214
FNA:1,1,_ZN5boost9unit_test9framework4initEPFPNS0_10test_suiteEiPPcEiS5_
FNL:2,119,144
FNA:2,0,_ZN5boost9unit_test9framework4implL26collect_dependant_siblingsEmmmRSt3mapImNS2_10order_infoESt4lessImESaISt4pairIKmS4_EEE
FNL:3,1219,1251
FNA:3,1,_ZN5boost9unit_test9framework20finalize_setup_phaseEm
FNL:4,1230,1235
FNA:4,8,_ZZN5boost9unit_test9framework20finalize_setup_phaseEmEN16apply_decorators16test_suite_startERKNS0_10test_suiteE
FNL:5,1237,1243
FNA:5,53,_ZZN5boost9unit_test9framework20finalize_setup_phaseEmEN16apply_decorators5visitERKNS0_9test_unitE
FNL:6,1258,1261
FNA:6,138,_ZN5boost9unit_test9framework16test_in_progressEv
FNL:7,1270,1300
FNA:7,1,_ZN5boost9unit_test9framework8shutdownEv
FNL:8,1309,1323
FNA:8,45,_ZN5boost9unit_test9framework18register_test_unitEPNS0_9test_caseE
FNL:9,1332,1346
FNA:9,8,_ZN5boost9unit_test9framework18register_test_unitEPNS0_10test_suiteE
FNL:10,1355,1358
FNA:10,53,_ZN5boost9unit_test9framework20deregister_test_unitEPNS0_9test_unitE
FNL:11,1367,1370
FNA:11,0,_ZN5boost9unit_test9framework5clearEv
FNL:12,1379,1382
FNA:12,4,_ZN5boost9unit_test9framework17register_observerERNS0_13test_observerE
FNL:13,1391,1394
FNA:13,4,_ZN5boost9unit_test9framework19deregister_observerERNS0_13test_observerE
FNL:14,1403,1406
FNA:14,0,_ZN5boost9unit_test9framework23register_global_fixtureERNS0_14global_fixtureE
FNL:15,1415,1418
FNA:15,0,_ZN5boost9unit_test9framework25deregister_global_fixtureERNS0_14global_fixtureE
FNL:16,1427,1436
FNA:16,0,_ZN5boost9unit_test9framework11add_contextERKNS0_12lazy_ostreamEb
FNL:17,1445,1445
FNA:17,0,_ZN5boost9unit_test9framework13frame_with_idC2Ei
FNL:18,1447,1450
FNA:18,0,_ZN5boost9unit_test9framework13frame_with_idclERKNS1_5state13context_frameE
FNL:19,1457,1472
FNA:19,142,_ZN5boost9unit_test9framework13clear_contextEi
FNL:20,1481,1484
FNA:20,0,_ZN5boost9unit_test9framework11get_contextEv
FNL:21,149,169
FNA:21,52,_ZN5boost9unit_test9framework4implL19assign_sibling_rankEmRSt3mapImNS2_10order_infoESt4lessImESaISt4pairIKmS4_EEE
FNL:22,1493,1496
FNA:22,0,_ZNK5boost9unit_test9framework17context_generator8is_emptyEv
FNL:23,1501,1504
FNA:23,0,_ZNK5boost9unit_test9framework17context_generator4nextEv
FNL:24,1513,1519
FNA:24,19,_ZN5boost9unit_test9framework17master_test_suiteEv
FNL:25,1523,1525
FNA:25,1,_ZN5boost9unit_test9framework4impl29master_test_suite_name_setterC2ENS0_13basic_cstringIKcEE
FNL:26,1536,1547
FNA:26,73,_ZN5boost9unit_test9framework23current_auto_test_suiteEPNS0_10test_suiteEb
FNL:27,1556,1559
FNA:27,0,_ZN5boost9unit_test9framework17current_test_caseEv
FNL:28,1563,1566
FNA:28,0,_ZN5boost9unit_test9framework17current_test_unitEv
FNL:29,1571,1574
FNA:29,137,_ZN5boost9unit_test9framework20current_test_case_idEv
FNL:30,1583,1590
FNA:30,608,_ZN5boost9unit_test9framework3getEmNS0_14test_unit_typeE
FNL:31,1600,1600
FNA:31,1,_ZN5boost9unit_test9framework14swap_on_deleteISt6vectorINS_10shared_ptrINS0_17test_unit_fixtureEEESaIS6_EEEC2ERS8_SA_
FNL:32,1601,1603
FNA:32,1,_ZN5boost9unit_test9framework14swap_on_deleteISt6vectorINS_10shared_ptrINS0_17test_unit_fixtureEEESaIS6_EEED2Ev
FNL:33,1610,1614
FNA:33,1,_ZN5boost9unit_test9framework24register_observer_helperC2ERNS0_13test_observerE
FNL:34,1616,1619
FNA:34,1,_ZN5boost9unit_test9framework24register_observer_helperD2Ev
FNL:35,1621,1624
FNA:35,1,_ZN5boost9unit_test9framework24register_observer_helper14deregister_obsEv
FNL:36,1626,1629
FNA:36,2,_ZN5boost9unit_test9framework24register_observer_helper12register_obsEv
FNL:37,1637,1750
FNA:37,1,_ZN5boost9unit_test9framework3runEmb
FNL:38,1755,1758
FNA:38,0,_ZN5boost9unit_test9framework3runEPKNS0_9test_unitEb
FNL:39,1767,1771
FNA:39,137,_ZN5boost9unit_test9framework16assertion_resultENS0_16assertion_resultE
FNL:40,178,188
FNA:40,1,_ZN5boost9unit_test9framework4implL16invoke_init_funcEPFPNS0_10test_suiteEiPPcE
FNL:41,1780,1784
FNA:41,0,_ZN5boost9unit_test9framework16exception_caughtERKNS_19execution_exceptionE
FNL:42,1793,1797
FNA:42,0,_ZN5boost9unit_test9framework17test_unit_abortedERKNS0_9test_unitE
FNL:43,1804,1808
FNA:43,0,_ZN5boost9unit_test9framework12test_abortedEv
FNL:44,196,216
FNA:44,0,_ZN5boost9unit_test9framework4impl11name_filter9componentC2ENS0_13basic_cstringIKcEE
FNL:45,218,235
FNA:45,0,_ZNK5boost9unit_test9framework4impl11name_filter9component4passERKNS0_9test_unitE
FNL:46,244,259
FNA:46,0,_ZN5boost9unit_test9framework4impl11name_filterC2ERSt6vectorImSaImEENS0_13basic_cstringIKcEE
FNL:47,262,274
FNA:47,0,_ZN5boost9unit_test9framework4impl11name_filter11filter_unitERKNS0_9test_unitE
FNL:48,277,282
FNA:48,0,_ZN5boost9unit_test9framework4impl11name_filter5visitERKNS0_9test_caseE
FNL:49,283,296
FNA:49,0,_ZN5boost9unit_test9framework4impl11name_filter16test_suite_startERKNS0_10test_suiteE
FNL:50,297,300
FNA:50,0,_ZN5boost9unit_test9framework4impl11name_filter17test_suite_finishERKNS0_10test_suiteE
FNL:51,316,319
FNA:51,0,_ZN5boost9unit_test9framework4impl12label_filterC2ERSt6vectorImSaImEENS0_13basic_cstringIKcEE
FNL:52,323,332
FNA:52,0,_ZN5boost9unit_test9framework4impl12label_filter5visitERKNS0_9test_unitE
FNL:53,345,348
FNA:53,1,_ZN5boost9unit_test9framework4impl14set_run_statusC2ENS0_9test_unit10run_statusEPSt6vectorImSaImEE
FNL:54,351,368
FNA:54,53,_ZN5boost9unit_test9framework4impl14set_run_status5visitERKNS0_9test_unitE
FNL:55,381,393
FNA:55,0,_ZN5boost9unit_test9framework4implL23add_filtered_test_unitsEmNS0_13basic_cstringIKcEERSt6vectorImSaImEE
FNL:56,398,438
FNA:56,0,_ZN5boost9unit_test9framework4implL13parse_filtersEmRSt6vectorImSaImEES6_
FNL:57,444,455
FNA:57,0,_ZN5boost9unit_test9framework4impl14random_shuffleIN9__gnu_cxx17__normal_iteratorIPmSt6vectorImSaImEEEEKNS1_5state23random_generator_helperEEEvT_SE_RT0_
FNL:58,462,462
FNA:58,0,_ZN5boost9unit_test9framework4impl21global_fixture_handleC2EPNS0_17test_unit_fixtureE
FNL:59,463,463
FNA:59,0,_ZN5boost9unit_test9framework4impl21global_fixture_handleD0Ev
FNA:59,0,_ZN5boost9unit_test9framework4impl21global_fixture_handleD2Ev
FNL:60,465,467
FNA:60,0,_ZN5boost9unit_test9framework4impl21global_fixture_handle5setupEv
FNL:61,468,470
FNA:61,0,_ZN5boost9unit_test9framework4impl21global_fixture_handle8teardownEv
FNL:62,487,497
FNA:62,1,_ZN5boost9unit_test9framework5stateC2Ev
FNL:63,499,499
FNA:63,1,_ZN5boost9unit_test9framework5stateD2Ev
FNL:64,501,513
FNA:64,1,_ZN5boost9unit_test9framework5state5clearEv
FNL:65,515,515
FNA:65,53,_ZN5boost9unit_test9framework5state9set_tu_idERNS0_9test_unitEm
FNL:66,520,542
FNA:66,53,_ZN5boost9unit_test9framework5state21deduce_siblings_orderEmmRSt3mapImNS1_4impl10order_infoESt4lessImESaISt4pairIKmS5_EEE
FNL:67,549,566
FNA:67,53,_ZN5boost9unit_test9framework5state27finalize_default_run_statusEmNS0_9test_unit10run_statusE
FNL:68,570,584
FNA:68,53,_ZN5boost9unit_test9framework5state19finalize_run_statusEm
FNL:69,588,647
FNA:69,1,_ZN5boost9unit_test9framework5state17deduce_run_statusEm
FNL:70,655,657
FNA:70,0,_ZNK5boost9unit_test9framework5state23random_generator_helperclEm
FNL:71,661,848
FNA:71,53,_ZN5boost9unit_test9framework5state17execute_test_treeEmmPKNS2_23random_generator_helperE
FNL:72,83,83
FNA:72,52,_ZN5boost9unit_test9framework4impl10order_infoC2Ev
FNL:73,852,860
FNA:73,52,_ZN5boost9unit_test9framework5state13child_timeoutEmm
FNL:74,863,867
FNA:74,20,_ZNK5boost9unit_test9framework5state14priority_orderclEPNS0_13test_observerES5_
FNL:75,874,878
FNA:75,0,_ZN5boost9unit_test9framework5state13context_frameC2ERKNSt7__cxx1112basic_stringIcSt11char_traitsIcESaIcEEEib
FNL:76,917,917
FNA:76,4042,_ZN5boost9unit_test9framework4impl12_GLOBAL__N_1L11s_frk_stateEv
FNL:77,923,926
FNA:77,0,_ZN5boost9unit_test9framework4impl19setup_for_executionERKNS0_9test_unitE
FNL:78,929,929
FNA:78,0,_ZN5boost9unit_test9framework4impl17sum_to_first_onlyC2Ev
FNL:79,931,937
FNA:79,0,_ZN5boost9unit_test9framework4impl17sum_to_first_onlyclINSt7__cxx1112basic_stringIcSt11char_traitsIcESaIcEEESt4pairIPKcNS0_13output_formatEEEET_RKSG_RKT0_
FNA:79,0,_ZN5boost9unit_test9framework4impl17sum_to_first_onlyclINSt7__cxx1112basic_stringIcSt11char_traitsIcESaIcEEESt4pairIPKcNS0_9log_levelEEEET_RKSG_RKT0_
FNL:80,943,947
FNA:80,1,_ZN5boost9unit_test9framework4impl28shutdown_loggers_and_reportsEv
FNL:81,95,98
FNA:81,0,_ZN5boost9unit_test9framework4implL13get_tu_parentEm
FNL:82,950,964
FNA:82,1,_ZN5boost9unit_test9framework4impl43unregister_global_fixture_and_configurationEv
FNL:83,967,1150
FNA:83,1,_ZN5boost9unit_test9framework4impl13setup_loggersEv
FNF:84
FNH:45
DA:83,52
DA:95,0
DA:97,0
DA:103,0
DA:105,0
DA:106,0
DA:108,0
DA:110,0
DA:111,0
DA:113,0
DA:119,0
DA:121,0
DA:122,0
DA:124,0
DA:125,0
DA:126,0
DA:129,0
DA:130,0
DA:131,0
DA:135,0
DA:136,0
DA:137,0
DA:138,0
DA:139,0
DA:140,0
DA:141,0
DA:143,0
DA:144,0
DA:149,52
DA:151,52
DA:153,52
DA:156,52
DA:157,0
DA:159,52
DA:162,52
DA:164,52
DA:165,52
DA:166,0
DA:168,52
DA:178,1
DA:183,1
DA:185,1
DA:186,0
DA:188,1
DA:196,0
DA:197,0
DA:198,0
DA:199,0
DA:200,0
DA:201,0
DA:202,0
DA:204,0
DA:205,0
DA:206,0
DA:208,0
DA:209,0
DA:210,0
DA:213,0
DA:214,0
DA:216,0
DA:218,0
DA:220,0
DA:222,0
DA:223,0
DA:225,0
DA:226,0
DA:227,0
DA:228,0
DA:229,0
DA:230,0
DA:231,0
DA:232,0
DA:233,0
DA:244,0
DA:247,0
DA:248,0
DA:250,0
DA:251,0
DA:252,0
DA:253,0
DA:254,0
DA:256,0
DA:259,0
DA:262,0
DA:265,0
DA:266,0
DA:269,0
DA:273,0
DA:277,0
DA:280,0
DA:281,0
DA:282,0
DA:283,0
DA:285,0
DA:286,0
DA:288,0
DA:289,0
DA:290,0
DA:293,0
DA:295,0
DA:297,0
DA:299,0
DA:300,0
DA:316,0
DA:317,0
DA:318,0
DA:319,0
DA:323,0
DA:325,0
DA:327,0
DA:328,0
DA:331,0
DA:345,1
DA:346,2
DA:347,1
DA:348,1
DA:351,53
DA:353,53
DA:354,53
DA:355,0
DA:356,0
DA:358,0
DA:359,0
DA:361,0
DA:364,0
DA:367,53
DA:381,0
DA:384,0
DA:385,0
DA:386,0
DA:387,0
DA:388,0
DA:390,0
DA:391,0
DA:392,0
DA:393,0
DA:398,0
DA:401,0
DA:403,0
DA:405,0
DA:406,0
DA:409,0
DA:410,0
DA:412,0
DA:413,0
DA:415,0
DA:418,0
DA:419,0
DA:420,0
DA:421,0
DA:424,0
DA:427,0
DA:428,0
DA:429,0
DA:430,0
DA:433,0
DA:437,0
DA:444,0
DA:447,0
DA:448,0
DA:449,0
DA:450,0
DA:452,0
DA:455,0
DA:462,0
DA:463,0
DA:465,0
DA:466,0
DA:467,0
DA:468,0
DA:469,0
DA:470,0
DA:487,1
DA:488,1
DA:489,1
DA:490,1
DA:491,1
DA:492,1
DA:493,1
DA:494,1
DA:495,2
DA:497,1
DA:499,1
DA:501,1
DA:503,54
DA:504,53
DA:505,53
DA:508,53
DA:509,8
DA:511,45
DA:513,1
DA:515,53
DA:520,53
DA:522,53
DA:525,53
DA:526,0
DA:528,53
DA:529,45
DA:531,8
DA:534,112
DA:535,52
DA:537,8
DA:538,112
DA:539,52
DA:540,52
DA:549,53
DA:551,53
DA:553,53
DA:554,52
DA:557,53
DA:558,8
DA:559,112
DA:560,52
DA:562,8
DA:565,53
DA:570,53
DA:572,53
DA:575,53
DA:576,8
DA:577,112
DA:578,52
DA:580,8
DA:583,53
DA:588,1
DA:591,1
DA:592,1
DA:595,1
DA:596,0
DA:599,1
DA:600,1
DA:603,1
DA:604,0
DA:606,0
DA:609,0
DA:610,0
DA:613,0
DA:614,0
DA:617,0
DA:618,0
DA:619,0
DA:625,0
DA:626,0
DA:627,0
DA:629,0
DA:632,1
DA:633,0
DA:635,0
DA:638,0
DA:639,0
DA:641,0
DA:642,0
DA:643,0
DA:646,1
DA:647,1
DA:655,0
DA:656,0
DA:661,53
DA:665,53
DA:667,53
DA:669,53
DA:670,0
DA:671,0
DA:672,0
DA:677,53
DA:679,0
DA:680,0
DA:682,0
DA:684,53
DA:685,53
DA:688,53
DA:689,53
DA:691,0
DA:692,0
DA:697,0
DA:701,265
DA:702,106
DA:705,53
DA:706,0
DA:707,0
DA:708,0
DA:709,0
DA:710,0
DA:711,0
DA:712,0
DA:713,0
DA:715,0
DA:719,53
DA:721,53
DA:723,53
DA:726,53
DA:728,53
DA:729,8
DA:731,8
DA:734,112
DA:736,52
DA:738,52
DA:740,52
DA:742,52
DA:743,0
DA:746,52
DA:748,52
DA:749,0
DA:750,0
DA:752,0
DA:753,0
DA:763,0
DA:766,0
DA:767,0
DA:768,0
DA:770,0
DA:771,0
DA:772,0
DA:773,0
DA:774,0
DA:777,0
DA:779,0
DA:780,0
DA:782,0
DA:784,0
DA:786,0
DA:787,0
DA:790,0
DA:791,0
DA:792,0
DA:793,0
DA:795,0
DA:796,0
DA:803,0
DA:806,45
DA:809,45
DA:812,45
DA:815,45
DA:816,45
DA:819,45
DA:822,45
DA:826,53
DA:828,53
DA:829,0
DA:830,0
DA:832,0
DA:833,0
DA:834,0
DA:838,53
DA:839,0
DA:840,0
DA:844,265
DA:845,106
DA:847,53
DA:848,53
DA:852,52
DA:854,52
DA:855,52
DA:857,0
DA:859,0
DA:863,20
DA:865,30
DA:866,30
DA:874,0
DA:875,0
DA:876,0
DA:877,0
DA:878,0
DA:917,4042
DA:923,0
DA:925,0
DA:926,0
DA:929,0
DA:931,0
DA:932,0
DA:933,0
DA:934,0
DA:936,0
DA:943,1
DA:945,1
DA:946,1
DA:947,1
DA:950,1
DA:953,1
DA:954,1
DA:955,0
DA:957,1
DA:959,1
DA:960,5
DA:961,2
DA:963,1
DA:964,1
DA:967,1
DA:973,1
DA:974,1
DA:979,1
DA:980,1
DA:981,1
DA:982,1
DA:984,1
DA:985,1
DA:987,0
DA:990,0
DA:991,0
DA:993,0
DA:994,1
DA:995,1
DA:1000,0
DA:1024,0
DA:1026,0
DA:1032,0
DA:1035,0
DA:1036,0
DA:1038,0
DA:1039,0
DA:1040,0
DA:1041,0
DA:1042,0
DA:1045,0
DA:1047,0
DA:1050,0
DA:1052,0
DA:1053,0
DA:1054,0
DA:1056,0
DA:1057,0
DA:1058,0
DA:1060,0
DA:1061,0
DA:1062,0
DA:1063,0
DA:1068,0
DA:1080,0
DA:1081,0
DA:1084,0
DA:1086,0
DA:1088,0
DA:1089,0
DA:1091,0
DA:1092,0
DA:1093,0
DA:1094,0
DA:1096,0
DA:1098,0
DA:1099,0
DA:1100,0
DA:1101,0
DA:1106,0
DA:1117,0
DA:1119,0
DA:1120,0
DA:1123,0
DA:1124,0
DA:1125,0
DA:1126,0
DA:1130,0
DA:1133,0
DA:1134,0
DA:1136,0
DA:1140,0
DA:1141,0
DA:1142,0
DA:1143,0
DA:1144,0
DA:1146,0
DA:1147,0
DA:1150,1
DA:1163,1
DA:1168,1
DA:1171,1
DA:1174,1
DA:1175,1
DA:1177,1
DA:1178,0
DA:1180,0
DA:1181,0
DA:1183,0
DA:1185,1
DA:1188,1
DA:1189,1
DA:1191,1
DA:1192,0
DA:1193,0
DA:1197,1
DA:1198,1
DA:1199,1
DA:1200,1
DA:1204,1
DA:1205,1
DA:1209,1
DA:1211,0
DA:1212,0
DA:1213,0
DA:1214,1
DA:1219,1
DA:1221,1
DA:1222,1
DA:1230,8
DA:1232,8
DA:1233,8
DA:1234,8
DA:1237,53
DA:1239,53
DA:1240,0
DA:1242,53
DA:1244,1
DA:1245,1
DA:1248,1
DA:1249,1
DA:1250,1
DA:1251,1
DA:1258,138
DA:1260,138
DA:1270,1
DA:1274,1
DA:1277,1
DA:1300,1
DA:1309,45
DA:1311,45
DA:1313,45
DA:1315,45
DA:1319,45
DA:1320,45
DA:1322,45
DA:1323,45
DA:1332,8
DA:1334,8
DA:1336,8
DA:1338,8
DA:1342,8
DA:1343,8
DA:1345,8
DA:1346,8
DA:1355,53
DA:1357,53
DA:1358,53
DA:1367,0
DA:1369,0
DA:1370,0
DA:1379,4
DA:1381,4
DA:1382,4
DA:1391,4
DA:1393,4
DA:1394,4
DA:1403,0
DA:1405,0
DA:1406,0
DA:1415,0
DA:1417,0
DA:1418,0
DA:1427,0
DA:1429,0
DA:1430,0
DA:1431,0
DA:1433,0
DA:1435,0
DA:1436,0
DA:1445,0
DA:1447,0
DA:1449,0
DA:1457,142
DA:1459,142
DA:1460,142
DA:1461,0
DA:1462,0
DA:1467,0
DA:1469,0
DA:1470,0
DA:1472,142
DA:1481,0
DA:1483,0
DA:1493,0
DA:1495,0
DA:1501,0
DA:1503,0
DA:1513,19
DA:1515,19
DA:1516,1
DA:1518,19
DA:1523,1
DA:1524,1
DA:1525,1
DA:1536,73
DA:1538,73
DA:1539,1
DA:1541,73
DA:1542,7
DA:1543,66
DA:1544,7
DA:1546,73
DA:1556,0
DA:1558,0
DA:1563,0
DA:1565,0
DA:1571,137
DA:1573,137
DA:1583,608
DA:1585,608
DA:1587,608
DA:1589,608
DA:1600,1
DA:1601,1
DA:1602,1
DA:1603,1
DA:1610,1
DA:1611,1
DA:1613,1
DA:1614,1
DA:1616,1
DA:1617,1
DA:1618,1
DA:1619,1
DA:1621,1
DA:1622,1
DA:1623,1
DA:1624,1
DA:1626,2
DA:1627,2
DA:1628,2
DA:1629,2
DA:1637,1
DA:1639,1
DA:1640,1
DA:1643,1
DA:1645,1
DA:1646,1
DA:1648,1
DA:1652,1
DA:1653,1
DA:1654,1
DA:1655,1
DA:1657,1
DA:1658,1
DA:1660,1
DA:1662,1
DA:1664,7
DA:1666,3
DA:1667,3
DA:1668,3
DA:1669,3
DA:1670,0
DA:1673,3
DA:1674,0
DA:1678,3
DA:1679,0
DA:1680,0
DA:1682,0
DA:1683,0
DA:1686,0
DA:1691,1
DA:1693,1
DA:1696,1
DA:1698,1
DA:1700,1
DA:1701,0
DA:1702,0
DA:1705,1
DA:1708,1
DA:1709,1
DA:1710,1
DA:1711,1
DA:1712,1
DA:1713,0
DA:1714,0
DA:1716,0
DA:1717,0
DA:1718,0
DA:1722,1
DA:1725,1
DA:1727,1
DA:1729,1
DA:1732,1
DA:1734,1
DA:1735,1
DA:1739,1
DA:1740,7
DA:1741,3
DA:1742,3
DA:1743,3
DA:1746,1
DA:1749,1
DA:1750,1
DA:1755,0
DA:1757,0
DA:1758,0
DA:1767,137
DA:1769,685
DA:1770,274
DA:1771,137
DA:1780,0
DA:1782,0
DA:1783,0
DA:1784,0
DA:1793,0
DA:1795,0
DA:1796,0
DA:1797,0
DA:1804,0
DA:1806,0
DA:1807,0
DA:1808,0
LF:696
LH:316
end_of_record
TN:
SF:/usr/include/boost/test/impl/junit_log_formatter.ipp
FNL:0,111,123
FNA:0,0,_ZN5boost9unit_test6output19junit_result_helperC2ERSoRKNS0_9test_unitERKSt3mapImNS1_10junit_impl16junit_log_helperESt4lessImESaISt4pairIKmS9_EEERKS9_b
FNL:1,125,149
FNA:1,0,_ZNK5boost9unit_test6output19junit_result_helper13add_log_entryERKNS1_10junit_impl16junit_log_helper15assertion_entryE
FNL:2,156,160
FNA:2,0,_ZN5boost9unit_test6output19junit_result_helper24conditional_cdata_helperC2ERSoNSt7__cxx1112basic_stringIcSt11char_traitsIcESaIcEEE
FNL:3,162,166
FNA:3,0,_ZN5boost9unit_test6output19junit_result_helper24conditional_cdata_helperD2Ev
FNL:4,168,179
FNA:4,0,_ZN5boost9unit_test6output19junit_result_helper24conditional_cdata_helperclERKNSt7__cxx1112basic_stringIcSt11char_traitsIcESaIcEEE
FNL:5,182,209
FNA:5,0,_ZNK5boost9unit_test6output19junit_result_helper20build_skipping_chainB5cxx11ERKNS0_9test_unitE
FNL:6,211,226
FNA:6,0,_ZNK5boost9unit_test6output19junit_result_helper14get_class_nameB5cxx11ERKNS0_9test_unitE
FNL:7,228,259
FNA:7,0,_ZNK5boost9unit_test6output19junit_result_helper21write_testcase_headerERKNS0_9test_unitEPKNS0_12test_resultsEi
FNL:8,261,296
FNA:8,0,_ZNK5boost9unit_test6output19junit_result_helper25write_testcase_system_outERKNS1_10junit_impl16junit_log_helperEPKNS0_9test_unitEb
FNL:9,298,348
FNA:9,0,_ZNK5boost9unit_test6output19junit_result_helper25write_testcase_system_errERKNS1_10junit_impl16junit_log_helperEPKNS0_9test_unitEPKNS0_12test_resultsE
FNL:10,350,369
FNA:10,0,_ZNK5boost9unit_test6output19junit_result_helper17get_nb_assertionsERKNS1_10junit_impl16junit_log_helperERKNS0_9test_unitEPKNS0_12test_resultsE
FNL:11,371,398
FNA:11,0,_ZNK5boost9unit_test6output19junit_result_helper20output_detailed_logsERKNS1_10junit_impl16junit_log_helperERKNS0_9test_unitEbPKNS0_12test_resultsE
FNL:12,400,413
FNA:12,0,_ZN5boost9unit_test6output19junit_result_helper5visitERKNS0_9test_caseE
FNL:13,415,472
FNA:13,0,_ZN5boost9unit_test6output19junit_result_helper16test_suite_startERKNS0_10test_suiteE
FNL:14,474,483
FNA:14,0,_ZN5boost9unit_test6output19junit_result_helper17test_suite_finishERKNS0_10test_suiteE
FNL:15,498,521
FNA:15,0,_ZN5boost9unit_test6output19junit_log_formatter10log_finishERSo
FNL:16,526,529
FNA:16,0,_ZN5boost9unit_test6output19junit_log_formatter14log_build_infoERSob
FNL:17,534,538
FNA:17,0,_ZN5boost9unit_test6output19junit_log_formatter15test_unit_startERSoRKNS0_9test_unitE
FNL:18,546,552
FNA:18,0,_ZN5boost9unit_test6output19junit_log_formatter16test_unit_finishERSoRKNS0_9test_unitEm
FNL:19,555,560
FNA:19,0,_ZN5boost9unit_test6output19junit_log_formatter17test_unit_abortedERSoRKNS0_9test_unitE
FNL:20,56,62
FNA:20,0,_ZN5boost9unit_test6output15s_replace_charsclIcEEvRT_
FNL:21,565,579
FNA:21,0,_ZN5boost9unit_test6output19junit_log_formatter19test_unit_timed_outERSoRKNS0_9test_unitE
FNL:22,584,591
FNA:22,0,_ZN5boost9unit_test6output19junit_log_formatter17test_unit_skippedERSoRKNS0_9test_unitENS0_13basic_cstringIKcEE
FNL:23,596,659
FNA:23,0,_ZN5boost9unit_test6output19junit_log_formatter19log_exception_startERSoRKNS0_19log_checkpoint_dataERKNS_19execution_exceptionE
FNL:24,65,70
FNA:24,0,_ZN5boost9unit_test6output17tu_name_normalizeENSt7__cxx1112basic_stringIcSt11char_traitsIcESaIcEEE
FNL:25,664,669
FNA:25,0,_ZN5boost9unit_test6output19junit_log_formatter20log_exception_finishERSo
FNL:26,674,742
FNA:26,0,_ZN5boost9unit_test6output19junit_log_formatter15log_entry_startERSoRKNS0_14log_entry_dataENS0_23unit_test_log_formatter15log_entry_typesE
FNL:27,72,76
FNA:27,0,_ZN5boost9unit_test6output23tu_name_remove_newlinesENSt7__cxx1112basic_stringIcSt11char_traitsIcESaIcEEE
FNL:28,747,766
FNA:28,0,_ZN5boost9unit_test6output19junit_log_formatter15log_entry_valueERSoNS0_13basic_cstringIKcEE
FNL:29,771,789
FNA:29,0,_ZN5boost9unit_test6output19junit_log_formatter16log_entry_finishERSo
FNL:30,78,88
FNA:30,0,_ZN5boost9unit_test6output13file_basenameENS0_13basic_cstringIKcEE
FNL:31,794,812
FNA:31,0,_ZN5boost9unit_test6output19junit_log_formatter19entry_context_startERSoNS0_9log_levelE
FNL:32,817,824
FNA:32,0,_ZN5boost9unit_test6output19junit_log_formatter20entry_context_finishERSoNS0_9log_levelE
FNL:33,829,840
FNA:33,0,_ZN5boost9unit_test6output19junit_log_formatter17log_entry_contextERSoNS0_9log_levelENS0_13basic_cstringIKcEE
FNL:34,846,870
FNA:34,0,_ZNK5boost9unit_test6output19junit_log_formatter30get_default_stream_descriptionB5cxx11Ev
FNL:35,95,100
FNA:35,0,_ZN5boost9unit_test6output19junit_log_formatter9log_startERSom
FNF:36
FNH:0
DA:56,0
DA:58,0
DA:59,0
DA:60,0
DA:61,0
DA:62,0
DA:65,0
DA:68,0
DA:69,0
DA:72,0
DA:74,0
DA:75,0
DA:78,0
DA:80,0
DA:81,0
DA:83,0
DA:84,0
DA:86,0
DA:95,0
DA:97,0
DA:98,0
DA:99,0
DA:100,0
DA:111,0
DA:117,0
DA:118,0
DA:119,0
DA:120,0
DA:121,0
DA:122,0
DA:123,0
DA:125,0
DA:127,0
DA:128,0
DA:129,0
DA:131,0
DA:132,0
DA:135,0
DA:138,0
DA:140,0
DA:141,0
DA:142,0
DA:144,0
DA:145,0
DA:148,0
DA:149,0
DA:156,0
DA:157,0
DA:158,0
DA:159,0
DA:160,0
DA:162,0
DA:163,0
DA:164,0
DA:166,0
DA:168,0
DA:169,0
DA:170,0
DA:171,0
DA:172,0
DA:173,0
DA:176,0
DA:177,0
DA:179,0
DA:182,0
DA:186,0
DA:188,0
DA:190,0
DA:191,0
DA:192,0
DA:193,0
DA:194,0
DA:197,0
DA:199,0
DA:201,0
DA:202,0
DA:204,0
DA:205,0
DA:208,0
DA:209,0
DA:211,0
DA:212,0
DA:213,0
DA:214,0
DA:215,0
DA:216,0
DA:217,0
DA:221,0
DA:222,0
DA:225,0
DA:226,0
DA:228,0
DA:232,0
DA:233,0
DA:235,0
DA:236,0
DA:239,0
DA:240,0
DA:243,0
DA:244,0
DA:245,0
DA:247,0
DA:250,0
DA:251,0
DA:252,0
DA:255,0
DA:256,0
DA:257,0
DA:258,0
DA:259,0
DA:261,0
DA:266,0
DA:269,0
DA:270,0
DA:271,0
DA:272,0
DA:273,0
DA:275,0
DA:277,0
DA:280,0
DA:281,0
DA:282,0
DA:284,0
DA:288,0
DA:289,0
DA:292,0
DA:293,0
DA:294,0
DA:296,0
DA:298,0
DA:303,0
DA:304,0
DA:306,0
DA:307,0
DA:308,0
DA:311,0
DA:314,0
DA:315,0
DA:316,0
DA:318,0
DA:322,0
DA:323,0
DA:324,0
DA:326,0
DA:327,0
DA:328,0
DA:332,0
DA:333,0
DA:335,0
DA:336,0
DA:337,0
DA:339,0
DA:342,0
DA:343,0
DA:345,0
DA:346,0
DA:347,0
DA:348,0
DA:350,0
DA:353,0
DA:354,0
DA:355,0
DA:356,0
DA:357,0
DA:360,0
DA:361,0
DA:365,0
DA:368,0
DA:371,0
DA:376,0
DA:377,0
DA:378,0
DA:380,0
DA:382,0
DA:383,0
DA:387,0
DA:388,0
DA:391,0
DA:395,0
DA:396,0
DA:397,0
DA:400,0
DA:403,0
DA:404,0
DA:405,0
DA:408,0
DA:411,0
DA:413,0
DA:415,0
DA:417,0
DA:420,0
DA:421,0
DA:429,0
DA:431,0
DA:432,0
DA:433,0
DA:435,0
DA:436,0
DA:437,0
DA:438,0
DA:439,0
DA:440,0
DA:441,0
DA:442,0
DA:443,0
DA:444,0
DA:445,0
DA:447,0
DA:449,0
DA:450,0
DA:451,0
DA:452,0
DA:454,0
DA:455,0
DA:456,0
DA:457,0
DA:458,0
DA:461,0
DA:465,0
DA:466,0
DA:467,0
DA:471,0
DA:474,0
DA:476,0
DA:477,0
DA:478,0
DA:480,0
DA:481,0
DA:498,0
DA:500,0
DA:503,0
DA:504,0
DA:507,0
DA:508,0
DA:510,0
DA:511,0
DA:512,0
DA:514,0
DA:515,0
DA:516,0
DA:517,0
DA:518,0
DA:520,0
DA:526,0
DA:528,0
DA:529,0
DA:534,0
DA:536,0
DA:537,0
DA:538,0
DA:546,0
DA:550,0
DA:551,0
DA:552,0
DA:555,0
DA:558,0
DA:560,0
DA:565,0
DA:567,0
DA:571,0
DA:572,0
DA:573,0
DA:574,0
DA:575,0
DA:576,0
DA:577,0
DA:578,0
DA:579,0
DA:584,0
DA:589,0
DA:590,0
DA:591,0
DA:596,0
DA:598,0
DA:599,0
DA:601,0
DA:603,0
DA:605,0
DA:607,0
DA:608,0
DA:610,0
DA:612,0
DA:613,0
DA:614,0
DA:615,0
DA:616,0
DA:617,0
DA:618,0
DA:619,0
DA:620,0
DA:621,0
DA:623,0
DA:624,0
DA:625,0
DA:626,0
DA:627,0
DA:628,0
DA:629,0
DA:630,0
DA:631,0
DA:632,0
DA:633,0
DA:636,0
DA:637,0
DA:638,0
DA:640,0
DA:641,0
DA:642,0
DA:644,0
DA:645,0
DA:647,0
DA:648,0
DA:649,0
DA:650,0
DA:651,0
DA:652,0
DA:656,0
DA:658,0
DA:659,0
DA:664,0
DA:667,0
DA:668,0
DA:669,0
DA:674,0
DA:676,0
DA:677,0
DA:678,0
DA:679,0
DA:681,0
DA:683,0
DA:684,0
DA:685,0
DA:691,0
DA:692,0
DA:693,0
DA:699,0
DA:700,0
DA:701,0
DA:703,0
DA:704,0
DA:706,0
DA:707,0
DA:708,0
DA:711,0
DA:712,0
DA:713,0
DA:714,0
DA:715,0
DA:716,0
DA:718,0
DA:719,0
DA:720,0
DA:721,0
DA:722,0
DA:726,0
DA:727,0
DA:728,0
DA:729,0
DA:730,0
DA:732,0
DA:733,0
DA:734,0
DA:735,0
DA:737,0
DA:738,0
DA:739,0
DA:740,0
DA:742,0
DA:747,0
DA:749,0
DA:750,0
DA:751,0
DA:753,0
DA:755,0
DA:757,0
DA:758,0
DA:764,0
DA:771,0
DA:773,0
DA:774,0
DA:776,0
DA:778,0
DA:779,0
DA:780,0
DA:781,0
DA:784,0
DA:788,0
DA:789,0
DA:794,0
DA:796,0
DA:797,0
DA:798,0
DA:800,0
DA:801,0
DA:803,0
DA:804,0
DA:806,0
DA:810,0
DA:817,0
DA:820,0
DA:821,0
DA:822,0
DA:823,0
DA:829,0
DA:831,0
DA:832,0
DA:833,0
DA:835,0
DA:836,0
DA:839,0
DA:846,0
DA:847,0
DA:849,0
DA:850,0
DA:852,0
DA:855,0
DA:857,0
DA:858,0
DA:859,0
DA:861,0
DA:862,0
DA:863,0
DA:864,0
DA:865,0
DA:866,0
DA:867,0
DA:869,0
DA:870,0
LF:428
LH:0
end_of_record
TN:
SF:/usr/include/boost/test/impl/plain_report_formatter.ipp
FNL:0,101,150
FNA:0,0,_ZN5boost9unit_test6output22plain_report_formatter22test_unit_report_startERKNS0_9test_unitERSo
FNL:1,155,158
FNA:1,0,_ZN5boost9unit_test6output22plain_report_formatter23test_unit_report_finishERKNS0_9test_unitERSo
FNL:2,163,208
FNA:2,1,_ZN5boost9unit_test6output22plain_report_formatter22do_confirmation_reportERKNS0_9test_unitERSo
FNL:3,52,57
FNA:3,0,_ZN5boost9unit_test6output12_GLOBAL__N_1lsINSt7__cxx1112basic_stringIcSt11char_traitsIcESaIcEEEEERSoRKNS0_5utils14custom_printerINSB_12custom_manipINS2_7quote_tEEEEERKT_
FNL:4,62,72
FNA:4,0,_ZN5boost9unit_test6output12_GLOBAL__N_1L16print_stat_valueERSommmNS0_13basic_cstringIKcEES6_
FNL:5,83,88
FNA:5,1,_ZN5boost9unit_test6output22plain_report_formatter20results_report_startERSo
FNL:6,93,96
FNA:6,1,_ZN5boost9unit_test6output22plain_report_formatter21results_report_finishERSo
FNF:7
FNH:3
DA:52,0
DA:54,0
DA:56,0
DA:62,0
DA:64,0
DA:65,0
DA:67,0
DA:68,0
DA:69,0
DA:71,0
DA:83,1
DA:85,1
DA:86,1
DA:87,1
DA:88,1
DA:93,1
DA:95,1
DA:96,1
DA:101,0
DA:103,0
DA:105,0
DA:107,0
DA:108,0
DA:109,0
DA:110,0
DA:111,0
DA:112,0
DA:113,0
DA:114,0
DA:116,0
DA:118,0
DA:119,0
DA:121,0
DA:122,0
DA:123,0
DA:124,0
DA:128,0
DA:129,0
DA:131,0
DA:132,0
DA:134,0
DA:135,0
DA:137,0
DA:138,0
DA:139,0
DA:140,0
DA:141,0
DA:142,0
DA:143,0
DA:144,0
DA:145,0
DA:146,0
DA:147,0
DA:149,0
DA:155,0
DA:157,0
DA:158,0
DA:163,1
DA:165,1
DA:167,1
DA:168,1
DA:170,1
DA:171,1
DA:172,1
DA:174,0
DA:176,0
DA:177,0
DA:178,0
DA:179,0
DA:182,0
DA:183,0
DA:184,0
DA:185,0
DA:188,0
DA:189,0
DA:190,0
DA:193,0
DA:194,0
DA:195,0
DA:196,0
DA:197,0
DA:200,0
DA:202,0
DA:204,0
DA:205,0
DA:207,0
DA:208,0
LF:87
LH:15
end_of_record
TN:
SF:/usr/include/boost/test/impl/progress_monitor.ipp
FNL:0,104,108
FNA:0,0,_ZN5boost9unit_test12_GLOBAL__N_121progress_monitor_implC2Ev
FNL:1,115,115
FNA:1,0,_ZN5boost9unit_test12_GLOBAL__N_1L9s_pm_implEv
FNL:2,124,124
FNA:2,1,_ZN5boost9unit_test18progress_monitor_t8instanceEv
FNL:3,129,136
FNA:3,0,_ZN5boost9unit_test18progress_monitor_t10test_startEmm
FNL:4,141,146
FNA:4,0,_ZN5boost9unit_test18progress_monitor_t12test_abortedEv
FNL:5,151,157
FNA:5,0,_ZN5boost9unit_test18progress_monitor_t16test_unit_finishERKNS0_9test_unitEm
FNL:6,162,170
FNA:6,0,_ZN5boost9unit_test18progress_monitor_t17test_unit_skippedERKNS0_9test_unitENS0_13basic_cstringIKcEE
FNL:7,175,178
FNA:7,0,_ZN5boost9unit_test18progress_monitor_t10set_streamERSo
FNL:8,43,57
FNA:8,0,_ZN5boost9unit_test16progress_displayC2EmRSo
FNL:9,59,84
FNA:9,0,_ZN5boost9unit_test16progress_displaypLEm
FNL:10,85,85
FNA:10,0,_ZN5boost9unit_test16progress_displayppEv
FNL:11,86,86
FNA:11,0,_ZNK5boost9unit_test16progress_display5countEv
FNF:12
FNH:1
DA:43,0
DA:44,0
DA:45,0
DA:46,0
DA:47,0
DA:48,0
DA:51,0
DA:52,0
DA:53,0
DA:55,0
DA:56,0
DA:57,0
DA:59,0
DA:61,0
DA:62,0
DA:67,0
DA:68,0
DA:71,0
DA:72,0
DA:74,0
DA:76,0
DA:77,0
DA:78,0
DA:80,0
DA:83,0
DA:85,0
DA:86,0
DA:104,0
DA:105,0
DA:106,0
DA:108,0
DA:115,0
DA:124,1
DA:129,0
DA:131,0
DA:133,0
DA:135,0
DA:136,0
DA:141,0
DA:143,0
DA:145,0
DA:146,0
DA:151,0
DA:153,0
DA:155,0
DA:156,0
DA:157,0
DA:162,0
DA:164,0
DA:166,0
DA:167,0
DA:169,0
DA:170,0
DA:175,0
DA:177,0
DA:178,0
LF:56
LH:1
end_of_record
TN:
SF:/usr/include/boost/test/impl/results_collector.ipp
FNL:0,114,132
FNA:0,106,_ZN5boost9unit_test12test_results5clearEv
FNL:1,146,146
FNA:1,305,_ZN5boost9unit_test12_GLOBAL__N_1L9s_rc_implEv
FNL:2,151,153
FNA:2,1,_ZN5boost9unit_test12_GLOBAL__N_120clear_subtree_resultC2ERNS1_22results_collector_implE
FNL:3,156,164
FNA:3,53,_ZN5boost9unit_test12_GLOBAL__N_120clear_subtree_result5visitERKNS0_9test_unitE
FNL:4,173,173
FNA:4,1,_ZN5boost9unit_test19results_collector_t8instanceEv
FNL:5,178,183
FNA:5,1,_ZN5boost9unit_test19results_collector_t10test_startEmm
FNL:6,188,196
FNA:6,53,_ZN5boost9unit_test19results_collector_t15test_unit_startERKNS0_9test_unitE
FNL:7,202,202
FNA:7,8,_ZN5boost9unit_test22results_collect_helperC2ERNS0_12test_resultsERKNS0_9test_unitE
FNL:8,204,227
FNA:8,45,_ZN5boost9unit_test22results_collect_helper5visitERKNS0_9test_caseE
FNL:9,228,239
FNA:9,15,_ZN5boost9unit_test22results_collect_helper16test_suite_startERKNS0_10test_suiteE
FNL:10,250,267
FNA:10,53,_ZN5boost9unit_test19results_collector_t16test_unit_finishERKNS0_9test_unitEm
FNL:11,272,285
FNA:11,0,_ZN5boost9unit_test19results_collector_t17test_unit_skippedERKNS0_9test_unitENS0_13basic_cstringIKcEE
FNL:12,290,294
FNA:12,0,_ZN5boost9unit_test19results_collector_t19test_unit_timed_outERKNS0_9test_unitE
FNL:13,299,311
FNA:13,137,_ZN5boost9unit_test19results_collector_t16assertion_resultENS0_16assertion_resultE
FNL:14,316,324
FNA:14,0,_ZN5boost9unit_test19results_collector_t16exception_caughtERKNS_19execution_exceptionE
FNL:15,329,332
FNA:15,0,_ZN5boost9unit_test19results_collector_t17test_unit_abortedERKNS0_9test_unitE
FNL:16,337,340
FNA:16,61,_ZNK5boost9unit_test19results_collector_t7resultsEm
FNL:17,44,47
FNA:17,53,_ZN5boost9unit_test12test_resultsC2Ev
FNL:18,52,63
FNA:18,47,_ZNK5boost9unit_test12test_results6passedEv
FNL:19,68,71
FNA:19,47,_ZNK5boost9unit_test12test_results7abortedEv
FNL:20,76,79
FNA:20,0,_ZNK5boost9unit_test12test_results7skippedEv
FNL:21,84,90
FNA:21,1,_ZNK5boost9unit_test12test_results11result_codeEv
FNL:22,95,109
FNA:22,52,_ZN5boost9unit_test12test_resultspLERKS1_
FNF:23
FNH:18
DA:44,53
DA:46,53
DA:47,53
DA:52,47
DA:56,47
DA:57,47
DA:58,94
DA:60,47
DA:61,141
DA:62,94
DA:68,47
DA:70,47
DA:76,0
DA:78,0
DA:84,1
DA:86,1
DA:87,0
DA:89,1
DA:95,52
DA:97,52
DA:98,52
DA:99,52
DA:100,52
DA:101,52
DA:102,52
DA:103,52
DA:104,52
DA:105,52
DA:106,52
DA:107,52
DA:108,52
DA:109,52
DA:114,106
DA:116,106
DA:117,106
DA:118,106
DA:119,106
DA:120,106
DA:121,106
DA:122,106
DA:123,106
DA:124,106
DA:125,106
DA:126,106
DA:127,106
DA:128,106
DA:129,106
DA:130,106
DA:131,106
DA:132,106
DA:146,305
DA:151,1
DA:152,1
DA:153,1
DA:156,53
DA:159,53
DA:160,53
DA:161,0
DA:163,53
DA:173,1
DA:178,1
DA:181,1
DA:182,1
DA:183,1
DA:188,53
DA:191,53
DA:193,53
DA:195,53
DA:196,53
DA:202,8
DA:204,45
DA:206,45
DA:207,45
DA:209,45
DA:210,45
DA:211,0
DA:213,45
DA:215,0
DA:216,0
DA:218,0
DA:219,0
DA:222,0
DA:223,0
DA:225,0
DA:227,45
DA:228,15
DA:230,15
DA:231,8
DA:233,7
DA:234,7
DA:236,7
DA:237,0
DA:238,7
DA:250,53
DA:252,53
DA:253,53
DA:254,8
DA:255,8
DA:256,8
DA:258,45
DA:259,45
DA:260,0
DA:262,45
DA:263,45
DA:264,5
DA:266,53
DA:267,53
DA:272,0
DA:274,0
DA:275,0
DA:277,0
DA:279,0
DA:280,0
DA:281,0
DA:283,0
DA:284,0
DA:285,0
DA:290,0
DA:292,0
DA:293,0
DA:294,0
DA:299,137
DA:301,137
DA:303,137
DA:304,137
DA:305,0
DA:306,0
DA:309,137
DA:310,0
DA:311,137
DA:316,0
DA:318,0
DA:320,0
DA:321,0
DA:322,0
DA:324,0
DA:329,0
DA:331,0
DA:332,0
DA:337,61
DA:339,61
LF:141
LH:101
end_of_record
TN:
SF:/usr/include/boost/test/impl/results_reporter.ipp
FNL:0,100,104
FNA:0,1,_ZN5boost9unit_test16results_reporter9set_levelENS0_12report_levelE
FNL:1,109,113
FNA:1,1,_ZN5boost9unit_test16results_reporter10set_streamERSo
FNL:2,118,121
FNA:2,0,_ZN5boost9unit_test16results_reporter10get_streamEv
FNL:3,126,137
FNA:3,1,_ZN5boost9unit_test16results_reporter10set_formatENS0_13output_formatE
FNL:4,142,146
FNA:4,1,_ZN5boost9unit_test16results_reporter10set_formatEPNS1_6formatE
FNL:5,155,187
FNA:5,1,_ZN5boost9unit_test16results_reporter11make_reportENS0_12report_levelEm
FNL:6,54,59
FNA:6,1,_ZN5boost9unit_test16results_reporter12_GLOBAL__N_121results_reporter_implC2Ev
FNL:7,62,66
FNA:7,0,_ZN5boost9unit_test16results_reporter12_GLOBAL__N_121results_reporter_impl5visitERKNS0_9test_caseE
FNL:8,67,76
FNA:8,0,_ZN5boost9unit_test16results_reporter12_GLOBAL__N_121results_reporter_impl16test_suite_startERKNS0_10test_suiteE
FNL:9,77,80
FNA:9,0,_ZN5boost9unit_test16results_reporter12_GLOBAL__N_121results_reporter_impl17test_suite_finishERKNS0_10test_suiteE
FNL:10,91,91
FNA:10,15,_ZN5boost9unit_test16results_reporter12_GLOBAL__N_1L9s_rr_implEv
FNF:11
FNH:7
DA:54,1
DA:55,2
DA:56,1
DA:57,1
DA:58,2
DA:59,1
DA:62,0
DA:64,0
DA:65,0
DA:66,0
DA:67,0
DA:69,0
DA:71,0
DA:72,0
DA:74,0
DA:75,0
DA:77,0
DA:79,0
DA:80,0
DA:91,15
DA:100,1
DA:102,1
DA:103,1
DA:104,1
DA:109,1
DA:111,1
DA:112,1
DA:113,1
DA:118,0
DA:120,0
DA:126,1
DA:128,1
DA:129,1
DA:131,1
DA:132,1
DA:133,0
DA:134,0
DA:135,0
DA:137,1
DA:142,1
DA:144,1
DA:145,1
DA:146,1
DA:155,1
DA:157,1
DA:158,1
DA:160,1
DA:161,0
DA:163,1
DA:164,0
DA:166,1
DA:168,1
DA:169,1
DA:171,1
DA:173,1
DA:174,1
DA:175,1
DA:176,1
DA:177,0
DA:179,0
DA:180,0
DA:181,0
DA:182,0
DA:185,1
DA:186,1
LF:65
LH:40
end_of_record
TN:
SF:/usr/include/boost/test/impl/test_framework_init_observer.ipp
FNL:0,33,36
FNA:0,2,_ZN5boost9unit_test25framework_init_observer_t5clearEv
FNL:1,41,44
FNA:1,1,_ZN5boost9unit_test25framework_init_observer_t10test_startEmm
FNL:2,49,56
FNA:2,0,_ZN5boost9unit_test25framework_init_observer_t16assertion_resultENS0_16assertion_resultE
FNL:3,61,64
FNA:3,0,_ZN5boost9unit_test25framework_init_observer_t16exception_caughtERKNS_19execution_exceptionE
FNL:4,67,70
FNA:4,0,_ZN5boost9unit_test25framework_init_observer_t12test_abortedEv
FNL:5,76,79
FNA:5,4,_ZNK5boost9unit_test25framework_init_observer_t10has_failedEv
FNF:6
FNH:3
DA:33,2
DA:35,2
DA:36,2
DA:41,1
DA:43,1
DA:44,1
DA:49,0
DA:51,0
DA:52,0
DA:53,0
DA:54,0
DA:56,0
DA:61,0
DA:63,0
DA:64,0
DA:67,0
DA:69,0
DA:70,0
DA:76,4
DA:78,4
LF:20
LH:8
end_of_record
TN:
SF:/usr/include/boost/test/impl/test_tools.ipp
FNL:0,102,112
FNA:0,0,_ZN5boost10test_tools9tt_detail15print_log_valueIhEclERSoh
FNL:1,117,128
FNA:1,0,_ZN5boost10test_tools9tt_detail15print_log_valueIwEclERSow
FNL:2,133,136
FNA:2,0,_ZN5boost10test_tools9tt_detail15print_log_valueIPKcEclERSoS4_
FNL:3,141,149
FNA:3,0,_ZN5boost10test_tools9tt_detail15print_log_valueIPKwEclERSoS4_
FNL:4,164,319
FNA:4,137,_ZN5boost10test_tools9tt_detail13format_reportINS_9unit_test15unit_test_log_tEEEvRT_RKNS0_16assertion_resultERKNS3_12lazy_ostreamENS1_10tool_levelENS1_10check_typeEmP13__va_list_tagPKcSI_
FNA:4,0,_ZN5boost10test_tools9tt_detail13format_reportINSt7__cxx1119basic_ostringstreamIcSt11char_traitsIcESaIcEEEEEvRT_RKNS0_16assertion_resultERKNS_9unit_test12lazy_ostreamENS1_10tool_levelENS1_10check_typeEmP13__va_list_tagPKcSN_
FNL:5,329,417
FNA:5,137,_ZN5boost10test_tools9tt_detail16report_assertionERKNS0_16assertion_resultERKNS_9unit_test12lazy_ostreamENS5_13basic_cstringIKcEEmNS1_10tool_levelENS1_10check_typeEmz
FNL:6,426,448
FNA:6,0,_ZN5boost10test_tools9tt_detail23format_assertion_resultENS_9unit_test13basic_cstringIKcEES5_
FNL:7,453,465
FNA:7,0,_ZN5boost10test_tools9tt_detail18prod_report_formatB5cxx11ERKNS0_16assertion_resultERKNS_9unit_test12lazy_ostreamENS1_10check_typeEmz
FNL:8,470,473
FNA:8,0,_ZN5boost10test_tools9tt_detail10equal_implEPKcS3_
FNL:9,480,483
FNA:9,0,_ZN5boost10test_tools9tt_detail10equal_implEPKwS3_
FNL:10,490,494
FNA:10,0,_ZN5boost10test_tools9tt_detail15is_defined_implENS_9unit_test13basic_cstringIKcEES5_
FNL:11,502,505
FNA:11,0,_ZN5boost10test_tools9tt_detail13context_frameC2ERKNS_9unit_test12lazy_ostreamE
FNL:12,509,512
FNA:12,0,_ZN5boost10test_tools9tt_detail13context_frameD2Ev
FNL:13,516,519
FNA:13,0,_ZN5boost10test_tools9tt_detail13context_framecvbEv
FNL:14,536,544
FNA:14,0,_ZN5boost10test_tools18output_test_stream4Impl8get_charEv
FNL:15,546,550
FNA:15,0,_ZN5boost10test_tools18output_test_stream4Impl14check_and_fillERNS0_16assertion_resultE
FNL:16,555,571
FNA:16,0,_ZN5boost10test_tools18output_test_streamC1ENS_9unit_test13basic_cstringIKcEEbb
FNA:16,0,_ZN5boost10test_tools18output_test_streamC2ENS_9unit_test13basic_cstringIKcEEbb
FNL:17,575,578
FNA:17,0,_ZN5boost10test_tools18output_test_streamD0Ev
FNA:17,0,_ZN5boost10test_tools18output_test_streamD1Ev
FNA:17,0,_ZN5boost10test_tools18output_test_streamD2Ev
FNL:18,583,595
FNA:18,0,_ZN5boost10test_tools18output_test_stream8is_emptyEb
FNL:19,600,612
FNA:19,0,_ZN5boost10test_tools18output_test_stream12check_lengthEmb
FNL:20,617,629
FNA:20,0,_ZN5boost10test_tools18output_test_stream8is_equalENS_9unit_test13basic_cstringIKcEEb
FNL:21,633,642
FNA:21,0,_ZN5boost10test_tools16pretty_print_logENSt7__cxx1112basic_stringIcSt11char_traitsIcESaIcEEE
FNL:22,645,811
FNA:22,0,_ZN5boost10test_tools18output_test_stream13match_patternEb
FNL:23,79,82
FNA:23,0,_ZN5boost10test_tools9tt_detail15print_log_valueIbEclERSob
FNL:24,816,825
FNA:24,0,_ZN5boost10test_tools18output_test_stream5flushEv
FNL:25,829,831
FNA:25,0,_ZNK5boost10test_tools18output_test_stream32get_stream_string_representationB5cxx11Ev
FNL:26,836,841
FNA:26,0,_ZN5boost10test_tools18output_test_stream6lengthEv
FNL:27,846,854
FNA:27,0,_ZN5boost10test_tools18output_test_stream4syncEv
FNL:28,85,97
FNA:28,0,_ZN5boost10test_tools9tt_detail15print_log_valueIcEclERSoc
FNF:29
FNH:2
DA:79,0
DA:81,0
DA:82,0
DA:85,0
DA:87,0
DA:88,0
DA:90,0
DA:92,0
DA:96,0
DA:97,0
DA:102,0
DA:104,0
DA:107,0
DA:111,0
DA:112,0
DA:117,0
DA:120,0
DA:121,0
DA:122,0
DA:123,0
DA:126,0
DA:128,0
DA:133,0
DA:135,0
DA:136,0
DA:141,0
DA:143,0
DA:144,0
DA:147,0
DA:149,0
DA:164,137
DA:171,137
DA:172,24
DA:173,24
DA:175,24
DA:176,0
DA:177,24
DA:179,0
DA:180,0
DA:182,0
DA:183,0
DA:185,0
DA:186,0
DA:189,0
DA:192,33
DA:193,33
DA:194,33
DA:196,0
DA:198,33
DA:199,0
DA:200,33
DA:202,80
DA:208,80
DA:209,80
DA:210,80
DA:211,80
DA:213,80
DA:215,80
DA:216,0
DA:218,80
DA:219,0
DA:220,80
DA:223,0
DA:225,0
DA:226,0
DA:227,0
DA:228,0
DA:229,0
DA:230,0
DA:232,0
DA:233,0
DA:234,0
DA:235,0
DA:236,0
DA:237,0
DA:238,0
DA:239,0
DA:241,0
DA:242,0
DA:243,0
DA:244,0
DA:245,0
DA:247,0
DA:248,0
DA:249,0
DA:251,0
DA:252,0
DA:253,0
DA:256,0
DA:257,0
DA:258,0
DA:259,0
DA:260,0
DA:261,0
DA:262,0
DA:265,0
DA:268,0
DA:269,0
DA:270,0
DA:272,0
DA:273,0
DA:275,0
DA:277,0
DA:278,0
DA:279,0
DA:280,0
DA:282,0
DA:283,0
DA:285,0
DA:288,0
DA:289,0
DA:290,0
DA:291,0
DA:293,0
DA:294,0
DA:295,0
DA:296,0
DA:297,0
DA:299,0
DA:300,0
DA:301,0
DA:303,0
DA:304,0
DA:305,0
DA:308,0
DA:309,0
DA:310,0
DA:312,0
DA:314,0
DA:315,0
DA:316,0
DA:319,137
DA:329,137
DA:339,137
DA:348,0
DA:349,0
DA:353,137
DA:354,137
DA:360,137
DA:361,137
DA:362,137
DA:363,137
DA:364,137
DA:365,137
DA:366,0
DA:367,0
DA:368,0
DA:369,0
DA:370,0
DA:371,0
DA:372,0
DA:373,0
DA:374,0
DA:375,0
DA:376,0
DA:377,0
DA:378,0
DA:379,0
DA:380,0
DA:381,0
DA:382,0
DA:385,137
DA:387,137
DA:389,137
DA:391,137
DA:392,137
DA:394,137
DA:395,137
DA:396,137
DA:397,137
DA:399,0
DA:400,0
DA:401,0
DA:403,0
DA:404,0
DA:405,0
DA:407,0
DA:408,0
DA:409,0
DA:410,0
DA:416,0
DA:426,0
DA:428,0
DA:430,0
DA:432,0
DA:433,0
DA:435,0
DA:436,0
DA:437,0
DA:439,0
DA:441,0
DA:444,0
DA:445,0
DA:447,0
DA:448,0
DA:453,0
DA:455,0
DA:458,0
DA:460,0
DA:462,0
DA:464,0
DA:465,0
DA:470,0
DA:472,0
DA:480,0
DA:482,0
DA:490,0
DA:492,0
DA:493,0
DA:502,0
DA:503,0
DA:505,0
DA:509,0
DA:511,0
DA:512,0
DA:516,0
DA:518,0
DA:536,0
DA:538,0
DA:540,0
DA:541,0
DA:543,0
DA:546,0
DA:548,0
DA:549,0
DA:550,0
DA:555,0
DA:556,0
DA:558,0
DA:559,0
DA:560,0
DA:561,0
DA:563,0
DA:565,0
DA:566,0
DA:569,0
DA:570,0
DA:571,0
DA:575,0
DA:577,0
DA:578,0
DA:583,0
DA:585,0
DA:587,0
DA:589,0
DA:591,0
DA:592,0
DA:594,0
DA:595,0
DA:600,0
DA:602,0
DA:604,0
DA:606,0
DA:608,0
DA:609,0
DA:611,0
DA:612,0
DA:617,0
DA:619,0
DA:621,0
DA:623,0
DA:625,0
DA:626,0
DA:628,0
DA:629,0
DA:633,0
DA:635,0
DA:636,0
DA:638,0
DA:641,0
DA:645,0
DA:647,0
DA:648,0
DA:650,0
DA:652,0
DA:654,0
DA:655,0
DA:656,0
DA:659,0
DA:661,0
DA:662,0
DA:663,0
DA:665,0
DA:667,0
DA:668,0
DA:671,0
DA:674,0
DA:675,0
DA:676,0
DA:678,0
DA:680,0
DA:682,0
DA:684,0
DA:685,0
DA:688,0
DA:689,0
DA:690,0
DA:692,0
DA:696,0
DA:700,0
DA:703,0
DA:704,0
DA:706,0
DA:707,0
DA:708,0
DA:710,0
DA:711,0
DA:712,0
DA:713,0
DA:715,0
DA:716,0
DA:718,0
DA:720,0
DA:725,0
DA:726,0
DA:727,0
DA:728,0
DA:729,0
DA:731,0
DA:732,0
DA:735,0
DA:736,0
DA:737,0
DA:739,0
DA:740,0
DA:741,0
DA:742,0
DA:744,0
DA:747,0
DA:748,0
DA:749,0
DA:750,0
DA:756,0
DA:757,0
DA:758,0
DA:761,0
DA:763,0
DA:764,0
DA:765,0
DA:766,0
DA:767,0
DA:768,0
DA:770,0
DA:771,0
DA:774,0
DA:777,0
DA:778,0
DA:782,0
DA:783,0
DA:785,0
DA:786,0
DA:788,0
DA:799,0
DA:801,0
DA:802,0
DA:803,0
DA:807,0
DA:808,0
DA:810,0
DA:811,0
DA:816,0
DA:818,0
DA:821,0
DA:825,0
DA:829,0
DA:830,0
DA:836,0
DA:838,0
DA:840,0
DA:846,0
DA:852,0
DA:854,0
LF:372
LH:40
end_of_record
TN:
SF:/usr/include/boost/test/impl/test_tree.ipp
FNL:0,103,106
FNA:0,0,_ZN5boost9unit_test9test_unit16add_preconditionERKNS_8functionIFNS_10test_tools16assertion_resultEmEEE
FNL:1,111,148
FNA:1,53,_ZNK5boost9unit_test9test_unit19check_preconditionsEv
FNL:2,153,159
FNA:2,0,_ZN5boost9unit_test9test_unit17increase_exp_failEm
FNL:3,164,175
FNA:3,10,_ZNK5boost9unit_test9test_unit9full_nameB5cxx11Ev
FNL:4,180,183
FNA:4,0,_ZN5boost9unit_test9test_unit9add_labelENS0_13basic_cstringIKcEE
FNL:5,188,191
FNA:5,0,_ZNK5boost9unit_test9test_unit9has_labelENS0_13basic_cstringIKcEE
FNL:6,199,204
FNA:6,0,_ZN5boost9unit_test9test_caseC2ENS0_13basic_cstringIKcEERKNS_8functionIFvvEEE
FNL:7,208,213
FNA:7,45,_ZN5boost9unit_test9test_caseC2ENS0_13basic_cstringIKcEES4_mRKNS_8functionIFvvEEE
FNL:8,223,227
FNA:8,7,_ZN5boost9unit_test10test_suiteC2ENS0_13basic_cstringIKcEES4_m
FNL:9,231,235
FNA:9,1,_ZN5boost9unit_test10test_suiteC2ENS0_13basic_cstringIKcEE
FNL:10,240,252
FNA:10,52,_ZN5boost9unit_test10test_suite3addEPNS0_9test_unitEmj
FNL:11,257,262
FNA:11,0,_ZN5boost9unit_test10test_suite3addERKNS0_19test_unit_generatorEj
FNL:12,267,275
FNA:12,0,_ZN5boost9unit_test10test_suite3addERKNS0_19test_unit_generatorERNS0_9decorator11collector_tE
FNL:13,280,285
FNA:13,0,_ZN5boost9unit_test10test_suite3addENS_10shared_ptrINS0_19test_unit_generatorEEERNS0_9decorator11collector_tE
FNL:14,290,315
FNA:14,8,_ZN5boost9unit_test10test_suite8generateEv
FNL:15,320,337
FNA:15,8,_ZN5boost9unit_test10test_suite30check_for_duplicate_test_casesEv
FNL:16,342,348
FNA:16,0,_ZN5boost9unit_test10test_suite6removeEm
FNL:17,353,361
FNA:17,7,_ZNK5boost9unit_test10test_suite3getENS0_13basic_cstringIKcEE
FNL:18,369,375
FNA:18,1,_ZN5boost9unit_test19master_test_suite_tC2Ev
FNL:19,382,386
FNA:19,225,_ZN5boost9unit_test18traverse_test_treeERKNS0_9test_caseERNS0_17test_tree_visitorEb
FNL:20,391,414
FNA:20,47,_ZN5boost9unit_test18traverse_test_treeERKNS0_10test_suiteERNS0_17test_tree_visitorEb
FNL:21,419,425
FNA:21,264,_ZN5boost9unit_test18traverse_test_treeEmRNS0_17test_tree_visitorEb
FNL:22,436,463
FNA:22,52,_ZN5boost9unit_test9ut_detail24normalize_test_case_nameB5cxx11ENS0_13basic_cstringIKcEE
FNL:23,471,477
FNA:23,45,_ZN5boost9unit_test9ut_detail24auto_test_unit_registrarC2EPNS0_9test_caseERNS0_9decorator11collector_tEm
FNL:24,481,500
FNA:24,7,_ZN5boost9unit_test9ut_detail24auto_test_unit_registrarC2ENS0_13basic_cstringIKcEES5_mRNS0_9decorator11collector_tE
FNL:25,49,63
FNA:25,52,_ZN5boost9unit_test9test_unitC2ENS0_13basic_cstringIKcEES4_mNS0_14test_unit_typeE
FNL:26,504,507
FNA:26,0,_ZN5boost9unit_test9ut_detail24auto_test_unit_registrarC2ERKNS0_19test_unit_generatorERNS0_9decorator11collector_tE
FNL:27,511,514
FNA:27,0,_ZN5boost9unit_test9ut_detail24auto_test_unit_registrarC2ENS_10shared_ptrINS0_19test_unit_generatorEEERNS0_9decorator11collector_tE
FNL:28,519,522
FNA:28,7,_ZN5boost9unit_test9ut_detail24auto_test_unit_registrarC2Ei
FNL:29,532,536
FNA:29,0,_ZN5boost9unit_test14global_fixtureC2Ev
FNL:30,538,545
FNA:30,0,_ZN5boost9unit_test14global_fixture25unregister_from_frameworkEv
FNL:31,547,550
FNA:31,0,_ZN5boost9unit_test14global_fixtureD0Ev
FNA:31,0,_ZN5boost9unit_test14global_fixtureD2Ev
FNL:32,556,560
FNA:32,0,_ZN5boost9unit_test20global_configurationC2Ev
FNL:33,562,570
FNA:33,0,_ZN5boost9unit_test20global_configuration25unregister_from_frameworkEv
FNL:34,572,575
FNA:34,0,_ZN5boost9unit_test20global_configurationD0Ev
FNA:34,0,_ZN5boost9unit_test20global_configurationD2Ev
FNL:35,67,80
FNA:35,1,_ZN5boost9unit_test9test_unitC2ENS0_13basic_cstringIKcEE
FNL:36,84,87
FNA:36,53,_ZN5boost9unit_test9test_unitD2Ev
FNL:37,92,98
FNA:37,0,_ZN5boost9unit_test9test_unit10depends_onEPS1_
FNF:38
FNH:20
DA:49,52
DA:50,52
DA:51,52
DA:52,52
DA:53,52
DA:54,52
DA:55,52
DA:56,104
DA:57,52
DA:58,52
DA:59,52
DA:60,52
DA:61,156
DA:63,52
DA:67,1
DA:68,1
DA:69,1
DA:70,1
DA:71,1
DA:72,1
DA:73,2
DA:74,1
DA:75,1
DA:76,1
DA:77,1
DA:78,4
DA:80,1
DA:84,53
DA:86,53
DA:87,53
DA:92,0
DA:94,0
DA:97,0
DA:98,0
DA:103,0
DA:105,0
DA:106,0
DA:111,53
DA:113,53
DA:114,0
DA:116,0
DA:117,0
DA:118,0
DA:119,0
DA:120,0
DA:122,0
DA:123,0
DA:124,0
DA:125,0
DA:126,0
DA:127,0
DA:129,0
DA:130,0
DA:131,0
DA:132,0
DA:133,0
DA:136,53
DA:137,0
DA:138,0
DA:139,0
DA:140,0
DA:141,0
DA:142,0
DA:143,0
DA:144,0
DA:145,0
DA:147,53
DA:153,0
DA:155,0
DA:157,0
DA:158,0
DA:159,0
DA:164,10
DA:166,10
DA:167,5
DA:169,5
DA:170,5
DA:172,5
DA:174,5
DA:175,5
DA:180,0
DA:182,0
DA:183,0
DA:188,0
DA:190,0
DA:199,0
DA:200,0
DA:201,0
DA:203,0
DA:204,0
DA:208,45
DA:210,45
DA:212,45
DA:213,45
DA:223,7
DA:224,7
DA:226,7
DA:227,7
DA:231,1
DA:232,1
DA:234,1
DA:235,1
DA:240,52
DA:242,52
DA:244,52
DA:245,52
DA:247,52
DA:248,0
DA:250,52
DA:251,0
DA:252,52
DA:257,0
DA:260,0
DA:261,0
DA:262,0
DA:267,0
DA:270,0
DA:271,0
DA:272,0
DA:274,0
DA:275,0
DA:280,0
DA:282,0
DA:283,0
DA:284,0
DA:285,0
DA:290,8
DA:294,8
DA:295,8
DA:299,0
DA:300,0
DA:302,0
DA:306,8
DA:315,8
DA:320,8
DA:322,8
DA:323,24
DA:324,60
DA:326,52
DA:327,52
DA:328,52
DA:334,52
DA:336,16
DA:337,8
DA:342,0
DA:344,0
DA:346,0
DA:347,0
DA:348,0
DA:353,7
DA:355,49
DA:356,21
DA:357,0
DA:360,7
DA:369,1
DA:370,2
DA:371,1
DA:372,1
DA:374,1
DA:375,1
DA:382,225
DA:384,225
DA:385,225
DA:386,225
DA:391,47
DA:394,47
DA:395,0
DA:398,47
DA:399,7
DA:402,40
DA:403,300
DA:405,260
DA:406,260
DA:407,0
DA:409,260
DA:413,40
DA:419,264
DA:421,264
DA:422,225
DA:424,39
DA:425,264
DA:436,52
DA:438,52
DA:440,52
DA:441,0
DA:444,52
DA:445,52
DA:446,0
DA:449,52
DA:450,52
DA:451,52
DA:456,52
DA:457,416
DA:459,364
DA:462,52
DA:463,0
DA:471,45
DA:473,45
DA:475,45
DA:476,45
DA:477,45
DA:481,7
DA:483,7
DA:487,7
DA:488,0
DA:489,0
DA:492,7
DA:493,7
DA:496,7
DA:497,7
DA:499,7
DA:500,7
DA:504,0
DA:506,0
DA:507,0
DA:511,0
DA:513,0
DA:514,0
DA:519,7
DA:521,7
DA:522,7
DA:532,0
DA:534,0
DA:535,0
DA:536,0
DA:538,0
DA:541,0
DA:542,0
DA:544,0
DA:545,0
DA:547,0
DA:549,0
DA:550,0
DA:556,0
DA:558,0
DA:559,0
DA:560,0
DA:562,0
DA:566,0
DA:567,0
DA:569,0
DA:570,0
DA:572,0
DA:574,0
DA:575,0
LF:245
LH:134
end_of_record
TN:
SF:/usr/include/boost/test/impl/unit_test_log.ipp
FNL:0,111,114
FNA:0,4,_ZN5boost9unit_test12_GLOBAL__N_130unit_test_log_data_helper_impl6streamEv
FNL:1,116,119
FNA:1,750,_ZNK5boost9unit_test12_GLOBAL__N_130unit_test_log_data_helper_impl13get_log_levelEv
FNL:2,124,129
FNA:2,1,_ZN5boost9unit_test12_GLOBAL__N_118unit_test_log_implC2Ev
FNL:3,140,150
FNA:3,393,_ZNK5boost9unit_test12_GLOBAL__N_118unit_test_log_impl21has_entry_in_progressEv
FNL:4,155,160
FNA:4,395,_ZN5boost9unit_test12_GLOBAL__N_118unit_test_log_impl14set_checkpointENS0_13basic_cstringIKcEEmS5_
FNL:5,163,163
FNA:5,3380,_ZN5boost9unit_test12_GLOBAL__N_1L10s_log_implEv
FNL:6,169,182
FNA:6,0,_ZN5boost9unit_test12_GLOBAL__N_1L17log_entry_contextENS0_9log_levelERNS1_30unit_test_log_data_helper_implE
FNL:7,187,190
FNA:7,142,_ZN5boost9unit_test12_GLOBAL__N_1L19clear_entry_contextEv
FNL:8,200,200
FNA:8,1,_ZN5boost9unit_test15unit_test_log_t8instanceEv
FNL:9,203,220
FNA:9,2,_ZN5boost9unit_test15unit_test_log_t9configureEv
FNL:10,225,240
FNA:10,1,_ZN5boost9unit_test15unit_test_log_t10test_startEmm
FNL:11,245,254
FNA:11,1,_ZN5boost9unit_test15unit_test_log_t11test_finishEv
FNL:12,259,262
FNA:12,0,_ZN5boost9unit_test15unit_test_log_t12test_abortedEv
FNL:13,267,280
FNA:13,53,_ZN5boost9unit_test15unit_test_log_t15test_unit_startERKNS0_9test_unitE
FNL:14,285,301
FNA:14,53,_ZN5boost9unit_test15unit_test_log_t16test_unit_finishERKNS0_9test_unitEm
FNL:15,306,320
FNA:15,0,_ZN5boost9unit_test15unit_test_log_t17test_unit_skippedERKNS0_9test_unitENS0_13basic_cstringIKcEE
FNL:16,323,337
FNA:16,0,_ZN5boost9unit_test15unit_test_log_t17test_unit_abortedERKNS0_9test_unitE
FNL:17,340,354
FNA:17,0,_ZN5boost9unit_test15unit_test_log_t19test_unit_timed_outERKNS0_9test_unitE
FNL:18,359,384
FNA:18,0,_ZN5boost9unit_test15unit_test_log_t16exception_caughtERKNS_19execution_exceptionE
FNL:19,389,392
FNA:19,395,_ZN5boost9unit_test15unit_test_log_t14set_checkpointENS0_13basic_cstringIKcEEmS4_
FNL:20,397,400
FNA:20,1333,_ZN5boost9unit_test14set_unix_slashEc
FNL:21,403,427
FNA:21,142,_ZN5boost9unit_test15unit_test_log_tlsERKNS0_3log5beginE
FNL:22,432,453
FNA:22,142,_ZN5boost9unit_test15unit_test_log_tlsERKNS0_3log3endE
FNL:23,458,463
FNA:23,142,_ZN5boost9unit_test15unit_test_log_tlsENS0_9log_levelE
FNL:24,468,473
FNA:24,5,_ZN5boost9unit_test15unit_test_log_tclENS0_9log_levelE
FNL:25,478,514
FNA:25,0,_ZN5boost9unit_test15log_entry_startERNS0_12_GLOBAL__N_130unit_test_log_data_helper_implE
FNL:26,51,56
FNA:26,5,_ZNK5boost9unit_test9ut_detail21entry_value_collectorlsERKNS0_12lazy_ostreamE
FNL:27,519,535
FNA:27,580,_ZN5boost9unit_test15unit_test_log_tlsENS0_13basic_cstringIKcEE
FNL:28,540,557
FNA:28,62,_ZN5boost9unit_test15unit_test_log_tlsERKNS0_12lazy_ostreamE
FNL:29,562,575
FNA:29,1,_ZN5boost9unit_test15unit_test_log_t10set_streamERSo
FNL:30,580,595
FNA:30,0,_ZN5boost9unit_test15unit_test_log_t10set_streamENS0_13output_formatERSo
FNL:31,598,609
FNA:31,0,_ZNK5boost9unit_test15unit_test_log_t10get_streamENS0_13output_formatE
FNL:32,61,66
FNA:32,0,_ZNK5boost9unit_test9ut_detail21entry_value_collectorlsENS0_13basic_cstringIKcEE
FNL:33,614,628
FNA:33,1,_ZN5boost9unit_test15unit_test_log_t19set_threshold_levelENS0_9log_levelE
FNL:34,633,650
FNA:34,0,_ZN5boost9unit_test15unit_test_log_t19set_threshold_levelENS0_13output_formatENS0_9log_levelE
FNL:35,655,666
FNA:35,1,_ZN5boost9unit_test15unit_test_log_t10set_formatENS0_13output_formatE
FNL:36,671,685
FNA:36,0,_ZN5boost9unit_test15unit_test_log_t10add_formatENS0_13output_formatE
FNL:37,690,701
FNA:37,0,_ZN5boost9unit_test15unit_test_log_t13get_formatterENS0_13output_formatE
FNL:38,70,74
FNA:38,5,_ZN5boost9unit_test9ut_detail21entry_value_collectorD2Ev
FNL:39,705,721
FNA:39,0,_ZN5boost9unit_test15unit_test_log_t13add_formatterEPNS0_23unit_test_log_formatterE
FNL:40,724,753
FNA:40,0,_ZN5boost9unit_test15unit_test_log_t13set_formatterEPNS0_23unit_test_log_formatterE
FNL:41,762,765
FNA:41,0,_ZN5boost9unit_test23unit_test_log_formatter15log_entry_valueERSoRKNS0_12lazy_ostreamE
FNL:42,768,771
FNA:42,4,_ZN5boost9unit_test23unit_test_log_formatter13set_log_levelENS0_9log_levelE
FNL:43,774,777
FNA:43,753,_ZNK5boost9unit_test23unit_test_log_formatter13get_log_levelEv
FNL:44,98,108
FNA:44,3,_ZN5boost9unit_test12_GLOBAL__N_130unit_test_log_data_helper_implC2EPNS0_23unit_test_log_formatterENS0_13output_formatEb
FNF:45
FNH:29
DA:51,5
DA:53,5
DA:55,5
DA:61,0
DA:63,0
DA:65,0
DA:70,5
DA:72,5
DA:73,5
DA:74,5
DA:98,3
DA:99,3
DA:100,3
DA:101,3
DA:102,3
DA:103,3
DA:104,3
DA:106,3
DA:107,3
DA:108,3
DA:111,4
DA:113,4
DA:116,750
DA:118,750
DA:124,1
DA:125,1
DA:126,1
DA:127,1
DA:128,1
DA:129,1
DA:140,393
DA:141,393
DA:142,783
DA:145,390
DA:146,390
DA:147,0
DA:149,393
DA:155,395
DA:157,395
DA:158,395
DA:159,395
DA:160,395
DA:163,3380
DA:169,0
DA:171,0
DA:172,0
DA:173,0
DA:175,0
DA:176,0
DA:177,0
DA:179,0
DA:181,0
DA:187,142
DA:189,142
DA:190,142
DA:200,1
DA:203,2
DA:208,2
DA:209,4
DA:210,2
DA:211,8
DA:214,8
DA:215,4
DA:217,4
DA:218,2
DA:220,2
DA:225,1
DA:227,1
DA:228,1
DA:229,3
DA:231,1
DA:233,1
DA:234,2
DA:236,2
DA:240,1
DA:245,1
DA:247,1
DA:248,3
DA:250,1
DA:251,1
DA:252,1
DA:254,1
DA:259,0
DA:261,0
DA:262,0
DA:267,53
DA:269,53
DA:270,0
DA:272,53
DA:273,159
DA:275,53
DA:276,53
DA:277,53
DA:278,0
DA:280,53
DA:285,53
DA:287,53
DA:289,53
DA:290,0
DA:292,53
DA:293,159
DA:295,53
DA:296,53
DA:297,53
DA:299,0
DA:301,53
DA:306,0
DA:308,0
DA:309,0
DA:311,0
DA:312,0
DA:314,0
DA:315,0
DA:316,0
DA:318,0
DA:320,0
DA:323,0
DA:325,0
DA:326,0
DA:328,0
DA:329,0
DA:331,0
DA:332,0
DA:333,0
DA:335,0
DA:337,0
DA:340,0
DA:342,0
DA:343,0
DA:345,0
DA:346,0
DA:348,0
DA:349,0
DA:350,0
DA:352,0
DA:354,0
DA:359,0
DA:362,0
DA:363,0
DA:364,0
DA:366,0
DA:367,0
DA:369,0
DA:370,0
DA:372,0
DA:374,0
DA:376,0
DA:378,0
DA:380,0
DA:383,0
DA:384,0
DA:389,395
DA:391,395
DA:392,395
DA:397,1333
DA:399,1333
DA:403,142
DA:405,142
DA:406,0
DA:408,142
DA:409,426
DA:411,142
DA:412,142
DA:415,142
DA:417,142
DA:420,142
DA:421,142
DA:424,142
DA:426,142
DA:432,142
DA:434,142
DA:435,0
DA:436,0
DA:437,0
DA:439,0
DA:440,0
DA:441,0
DA:442,0
DA:444,0
DA:446,0
DA:450,142
DA:452,142
DA:458,142
DA:460,142
DA:462,142
DA:468,5
DA:470,5
DA:472,5
DA:478,0
DA:480,0
DA:481,0
DA:483,0
DA:484,0
DA:485,0
DA:487,0
DA:488,0
DA:489,0
DA:491,0
DA:492,0
DA:493,0
DA:495,0
DA:496,0
DA:499,0
DA:501,0
DA:502,0
DA:503,0
DA:505,0
DA:506,0
DA:509,0
DA:512,0
DA:513,0
DA:519,580
DA:521,580
DA:522,0
DA:525,580
DA:526,1740
DA:528,580
DA:529,580
DA:530,0
DA:531,0
DA:534,580
DA:540,62
DA:542,62
DA:543,0
DA:546,62
DA:547,186
DA:549,62
DA:550,62
DA:551,0
DA:552,0
DA:556,62
DA:562,1
DA:564,1
DA:565,0
DA:567,1
DA:568,5
DA:570,3
DA:572,3
DA:573,3
DA:580,0
DA:582,0
DA:583,0
DA:585,0
DA:586,0
DA:588,0
DA:589,0
DA:590,0
DA:591,0
DA:592,0
DA:598,0
DA:600,0
DA:601,0
DA:603,0
DA:604,0
DA:605,0
DA:608,0
DA:614,1
DA:616,1
DA:617,0
DA:619,1
DA:620,1
DA:621,5
DA:623,3
DA:624,3
DA:625,3
DA:627,1
DA:633,0
DA:635,0
DA:636,0
DA:638,0
DA:639,0
DA:640,0
DA:642,0
DA:643,0
DA:644,0
DA:645,0
DA:646,0
DA:649,0
DA:655,1
DA:657,1
DA:658,0
DA:660,1
DA:661,5
DA:663,3
DA:664,3
DA:671,0
DA:673,0
DA:674,0
DA:676,0
DA:677,0
DA:679,0
DA:680,0
DA:681,0
DA:682,0
DA:690,0
DA:692,0
DA:693,0
DA:695,0
DA:696,0
DA:697,0
DA:700,0
DA:705,0
DA:708,0
DA:709,0
DA:711,0
DA:712,0
DA:713,0
DA:717,0
DA:718,0
DA:719,0
DA:721,0
DA:724,0
DA:726,0
DA:727,0
DA:730,0
DA:731,0
DA:732,0
DA:733,0
DA:734,0
DA:736,0
DA:737,0
DA:738,0
DA:739,0
DA:740,0
DA:745,0
DA:746,0
DA:747,0
DA:748,0
DA:749,0
DA:752,0
DA:762,0
DA:764,0
DA:765,0
DA:768,4
DA:770,4
DA:771,4
DA:774,753
DA:776,753
LF:338
LH:154
end_of_record
TN:
SF:/usr/include/boost/test/impl/unit_test_main.ipp
FNL:0,136,139
FNA:0,0,_ZN5boost9unit_test9ut_detail20dot_content_reporter5visitERKNS0_9test_caseE
FNL:1,140,150
FNA:1,0,_ZN5boost9unit_test9ut_detail20dot_content_reporter16test_suite_startERKNS0_10test_suiteE
FNL:2,151,156
FNA:2,0,_ZN5boost9unit_test9ut_detail20dot_content_reporter17test_suite_finishERKNS0_10test_suiteE
FNL:3,166,166
FNA:3,0,_ZNK5boost9unit_test9ut_detail16labels_collector6labelsB5cxx11Ev
FNL:4,169,173
FNA:4,0,_ZN5boost9unit_test9ut_detail16labels_collector5visitERKNS0_9test_unitE
FNL:5,180,187
FNA:5,1,_ZN5boost9unit_test9ut_detail25framework_shutdown_helperD2Ev
FNL:6,199,281
FNA:6,1,_ZN5boost9unit_test14unit_test_mainEPFPNS0_10test_suiteEiPPcEiS4_
FNL:7,293,307
FNA:7,1,main
FNL:8,58,58
FNA:8,0,_ZN5boost9unit_test9ut_detail20hrf_content_reporterC2ERSo
FNL:9,61,70
FNA:9,0,_ZN5boost9unit_test9ut_detail20hrf_content_reporter16report_test_unitERKNS0_9test_unitE
FNL:10,71,71
FNA:10,0,_ZN5boost9unit_test9ut_detail20hrf_content_reporter5visitERKNS0_9test_caseE
FNL:11,72,78
FNA:11,0,_ZN5boost9unit_test9ut_detail20hrf_content_reporter16test_suite_startERKNS0_10test_suiteE
FNL:12,79,82
FNA:12,0,_ZN5boost9unit_test9ut_detail20hrf_content_reporter17test_suite_finishERKNS0_10test_suiteE
FNL:13,94,94
FNA:13,0,_ZN5boost9unit_test9ut_detail20dot_content_reporterC2ERSo
FNL:14,97,135
FNA:14,0,_ZN5boost9unit_test9ut_detail20dot_content_reporter16report_test_unitERKNS0_9test_unitE
FNF:15
FNH:3
DA:58,0
DA:61,0
DA:63,0
DA:64,0
DA:66,0
DA:67,0
DA:69,0
DA:70,0
DA:71,0
DA:72,0
DA:74,0
DA:75,0
DA:76,0
DA:77,0
DA:79,0
DA:81,0
DA:82,0
DA:94,0
DA:97,0
DA:99,0
DA:101,0
DA:103,0
DA:105,0
DA:107,0
DA:109,0
DA:110,0
DA:112,0
DA:113,0
DA:114,0
DA:115,0
DA:116,0
DA:117,0
DA:118,0
DA:120,0
DA:121,0
DA:123,0
DA:126,0
DA:127,0
DA:129,0
DA:130,0
DA:132,0
DA:135,0
DA:136,0
DA:138,0
DA:139,0
DA:140,0
DA:142,0
DA:143,0
DA:145,0
DA:147,0
DA:149,0
DA:151,0
DA:153,0
DA:154,0
DA:155,0
DA:156,0
DA:166,0
DA:169,0
DA:171,0
DA:172,0
DA:180,1
DA:182,1
DA:184,0
DA:185,0
DA:186,0
DA:187,1
DA:199,1
DA:201,1
DA:208,1
DA:210,1
DA:211,0
DA:215,0
DA:216,0
DA:219,1
DA:221,1
DA:222,1
DA:223,0
DA:224,0
DA:226,0
DA:227,0
DA:229,0
DA:231,0
DA:232,0
DA:234,0
DA:237,1
DA:238,0
DA:240,0
DA:242,0
DA:243,0
DA:244,0
DA:245,0
DA:247,0
DA:248,0
DA:250,1
DA:252,2
DA:253,1
DA:254,1
DA:256,0
DA:257,0
DA:258,0
DA:259,0
DA:260,0
DA:262,0
DA:263,0
DA:264,0
DA:265,0
DA:267,0
DA:268,0
DA:269,0
DA:270,0
DA:272,0
DA:273,0
DA:274,0
DA:275,0
DA:277,0
DA:278,0
DA:280,1
DA:281,1
DA:293,1
DA:303,1
DA:306,1
LF:121
LH:20
end_of_record
TN:
SF:/usr/include/boost/test/impl/unit_test_monitor.ipp
FNL:0,33,33
FNA:0,1,_ZN5boost9unit_test19unit_test_monitor_t8instanceEv
FNL:1,40,69
FNA:1,48,_ZN5boost9unit_test19unit_test_monitor_t21execute_and_translateERKNS_8functionIFvvEEEm
FNF:2
FNH:2
DA:33,1
DA:40,48
DA:43,48
DA:44,48
DA:45,48
DA:46,48
DA:47,48
DA:49,48
DA:51,0
DA:52,0
DA:53,0
DA:56,0
DA:57,0
DA:58,0
DA:59,0
DA:60,0
DA:61,0
DA:62,0
DA:63,0
DA:64,0
DA:66,0
DA:68,48
LF:22
LH:9
end_of_record
TN:
SF:/usr/include/boost/test/impl/unit_test_parameters.ipp
FNL:0,108,647
FNA:0,1,_ZN5boost9unit_test14runtime_config12_GLOBAL__N_1L19register_parametersERNS_7runtime16parameters_storeE
FNL:1,133,135
FNA:1,1,_ZZN5boost9unit_test14runtime_config12_GLOBAL__N_1L19register_parametersERNS_7runtime16parameters_storeEENKUlNS0_13basic_cstringIKcEEE_clES8_
FNL:2,657,745
FNA:2,1,_ZN5boost9unit_test14runtime_config4initERiPPc
FNL:3,750,753
FNA:3,223,_ZN5boost9unit_test14runtime_config14argument_storeEv
FNL:4,758,761
FNA:4,0,_ZN5boost9unit_test14runtime_config12save_patternEv
FNF:5
FNH:4
DA:108,1
DA:110,1
DA:111,1
DA:112,1
DA:114,1
DA:119,1
DA:120,1
DA:122,1
DA:123,1
DA:124,1
DA:128,1
DA:129,1
DA:130,1
DA:132,0
DA:133,0
DA:134,0
DA:135,1
DA:137,1
DA:139,1
DA:140,1
DA:144,1
DA:145,1
DA:146,1
DA:147,1
DA:148,1
DA:149,1
DA:151,1
DA:152,1
DA:153,1
DA:157,1
DA:158,1
DA:159,1
DA:160,0
DA:164,1
DA:166,3
DA:172,2
DA:174,1
DA:176,1
DA:177,1
DA:178,1
DA:182,1
DA:183,1
DA:184,1
DA:185,1
DA:186,1
DA:187,1
DA:188,1
DA:190,1
DA:191,1
DA:192,1
DA:196,1
DA:197,1
DA:198,1
DA:199,1
DA:200,1
DA:201,1
DA:203,1
DA:204,1
DA:208,1
DA:209,1
DA:210,1
DA:211,1
DA:212,1
DA:213,1
DA:214,1
DA:219,1
DA:220,1
DA:222,1
DA:223,1
DA:227,1
DA:228,1
DA:229,1
DA:230,1
DA:231,1
DA:232,0
DA:235,0
DA:236,0
DA:237,1
DA:244,1
DA:248,1
DA:249,1
DA:250,1
DA:251,1
DA:255,1
DA:256,1
DA:257,1
DA:258,3
DA:259,2
DA:260,1
DA:262,1
DA:263,1
DA:267,1
DA:268,1
DA:269,1
DA:270,1
DA:271,0
DA:274,0
DA:275,0
DA:276,0
DA:277,0
DA:278,1
DA:287,1
DA:292,1
DA:293,1
DA:295,1
DA:296,1
DA:297,1
DA:301,1
DA:302,1
DA:303,1
DA:304,1
DA:305,0
DA:308,0
DA:309,0
DA:310,0
DA:311,0
DA:312,0
DA:313,0
DA:314,0
DA:315,0
DA:316,0
DA:317,0
DA:318,0
DA:319,1
DA:335,1
DA:340,1
DA:341,1
DA:343,1
DA:344,1
DA:345,1
DA:349,1
DA:350,1
DA:351,1
DA:352,1
DA:353,1
DA:356,1
DA:357,1
DA:359,1
DA:360,1
DA:361,1
DA:365,1
DA:366,1
DA:367,1
DA:368,0
DA:371,0
DA:372,0
DA:373,0
DA:374,1
DA:382,2
DA:383,3
DA:387,2
DA:388,1
DA:390,1
DA:391,1
DA:392,1
DA:396,1
DA:397,1
DA:398,1
DA:399,1
DA:400,0
DA:401,2
DA:402,3
DA:404,2
DA:405,1
DA:407,1
DA:408,1
DA:412,1
DA:413,1
DA:414,1
DA:415,1
DA:416,1
DA:417,1
DA:418,1
DA:419,1
DA:426,1
DA:427,1
DA:429,1
DA:430,1
DA:434,1
DA:435,1
DA:436,1
DA:437,1
DA:438,0
DA:441,0
DA:442,0
DA:443,0
DA:444,1
DA:452,1
DA:457,1
DA:458,1
DA:460,1
DA:461,1
DA:462,1
DA:466,1
DA:467,1
DA:468,1
DA:469,1
DA:470,0
DA:473,0
DA:474,0
DA:475,0
DA:476,0
DA:477,1
DA:486,1
DA:488,1
DA:489,1
DA:491,1
DA:492,1
DA:493,1
DA:497,1
DA:498,1
DA:499,1
DA:500,1
DA:501,1
DA:502,3
DA:504,2
DA:505,1
DA:507,1
DA:508,1
DA:512,1
DA:513,1
DA:514,1
DA:515,1
DA:516,1
DA:520,1
DA:521,1
DA:523,1
DA:524,1
DA:525,1
DA:529,1
DA:530,1
DA:531,1
DA:532,1
DA:533,3
DA:535,2
DA:536,1
DA:538,1
DA:539,1
DA:540,1
DA:544,1
DA:545,1
DA:546,1
DA:547,1
DA:548,0
DA:553,3
DA:554,2
DA:555,1
DA:557,1
DA:558,1
DA:559,1
DA:563,1
DA:564,1
DA:565,1
DA:566,3
DA:569,2
DA:570,1
DA:572,1
DA:573,1
DA:577,1
DA:578,1
DA:579,1
DA:580,1
DA:581,1
DA:582,1
DA:584,1
DA:585,1
DA:586,1
DA:590,1
DA:591,1
DA:592,1
DA:593,1
DA:594,1
DA:596,1
DA:597,1
DA:599,1
DA:600,1
DA:604,1
DA:605,1
DA:606,1
DA:607,1
DA:609,1
DA:610,1
DA:612,1
DA:613,1
DA:614,1
DA:618,1
DA:619,1
DA:620,1
DA:621,1
DA:622,2
DA:627,1
DA:628,1
DA:629,1
DA:630,1
DA:634,1
DA:635,1
DA:636,1
DA:637,1
DA:638,1
DA:642,1
DA:643,1
DA:644,1
DA:645,1
DA:646,1
DA:647,1
DA:657,1
DA:659,1
DA:663,1
DA:664,1
DA:667,1
DA:670,1
DA:671,1
DA:674,1
DA:677,1
DA:680,1
DA:681,1
DA:682,1
DA:686,1
DA:687,0
DA:688,0
DA:690,1
DA:691,0
DA:692,0
DA:694,1
DA:695,0
DA:697,0
DA:699,0
DA:703,1
DA:704,0
DA:705,0
DA:706,0
DA:710,0
DA:711,0
DA:712,0
DA:713,0
DA:714,0
DA:716,0
DA:717,0
DA:719,0
DA:720,0
DA:721,0
DA:722,0
DA:724,0
DA:725,0
DA:727,0
DA:728,0
DA:730,0
DA:731,0
DA:732,0
DA:735,0
DA:736,0
DA:737,0
DA:738,0
DA:740,0
DA:741,0
DA:743,0
DA:744,0
DA:745,1
DA:750,223
DA:752,223
DA:758,0
DA:760,0
LF:362
LH:285
end_of_record
TN:
SF:/usr/include/boost/test/impl/xml_log_formatter.ipp
FNL:0,108,115
FNA:0,0,_ZN5boost9unit_test6output17xml_log_formatter17test_unit_skippedERSoRKNS0_9test_unitENS0_13basic_cstringIKcEE
FNL:1,120,139
FNA:1,0,_ZN5boost9unit_test6output17xml_log_formatter19log_exception_startERSoRKNS0_19log_checkpoint_dataERKNS_19execution_exceptionE
FNL:2,144,147
FNA:2,0,_ZN5boost9unit_test6output17xml_log_formatter20log_exception_finishERSo
FNL:3,152,163
FNA:3,0,_ZN5boost9unit_test6output17xml_log_formatter15log_entry_startERSoRKNS0_14log_entry_dataENS0_23unit_test_log_formatter15log_entry_typesE
FNL:4,168,171
FNA:4,0,_ZN5boost9unit_test6output17xml_log_formatter15log_entry_valueERSoNS0_13basic_cstringIKcEE
FNL:5,176,186
FNA:5,0,_ZN5boost9unit_test6output17xml_log_formatter16log_entry_finishERSo
FNL:6,191,199
FNA:6,0,_ZN5boost9unit_test6output17xml_log_formatter19entry_context_startERSoNS0_9log_levelE
FNL:7,204,207
FNA:7,0,_ZN5boost9unit_test6output17xml_log_formatter20entry_context_finishERSoNS0_9log_levelE
FNL:8,212,215
FNA:8,0,_ZN5boost9unit_test6output17xml_log_formatter17log_entry_contextERSoNS0_9log_levelENS0_13basic_cstringIKcEE
FNL:9,40,43
FNA:9,0,_ZN5boost9unit_test6outputL12tu_type_nameERKNS0_9test_unitE
FNL:10,50,53
FNA:10,0,_ZN5boost9unit_test6output17xml_log_formatter9log_startERSom
FNL:11,58,61
FNA:11,0,_ZN5boost9unit_test6output17xml_log_formatter10log_finishERSo
FNL:12,66,78
FNA:12,0,_ZN5boost9unit_test6output17xml_log_formatter14log_build_infoERSob
FNL:13,83,92
FNA:13,0,_ZN5boost9unit_test6output17xml_log_formatter15test_unit_startERSoRKNS0_9test_unitE
FNL:14,97,103
FNA:14,0,_ZN5boost9unit_test6output17xml_log_formatter16test_unit_finishERSoRKNS0_9test_unitEm
FNF:15
FNH:0
DA:40,0
DA:42,0
DA:50,0
DA:52,0
DA:53,0
DA:58,0
DA:60,0
DA:61,0
DA:66,0
DA:68,0
DA:70,0
DA:71,0
DA:72,0
DA:73,0
DA:74,0
DA:76,0
DA:78,0
DA:83,0
DA:85,0
DA:87,0
DA:88,0
DA:89,0
DA:91,0
DA:92,0
DA:97,0
DA:99,0
DA:100,0
DA:102,0
DA:103,0
DA:108,0
DA:110,0
DA:111,0
DA:112,0
DA:113,0
DA:114,0
DA:115,0
DA:120,0
DA:122,0
DA:124,0
DA:125,0
DA:127,0
DA:128,0
DA:130,0
DA:132,0
DA:133,0
DA:134,0
DA:135,0
DA:136,0
DA:137,0
DA:139,0
DA:144,0
DA:146,0
DA:147,0
DA:152,0
DA:154,0
DA:156,0
DA:157,0
DA:158,0
DA:159,0
DA:160,0
DA:162,0
DA:163,0
DA:168,0
DA:170,0
DA:171,0
DA:176,0
DA:178,0
DA:179,0
DA:180,0
DA:183,0
DA:185,0
DA:186,0
DA:191,0
DA:193,0
DA:194,0
DA:195,0
DA:198,0
DA:199,0
DA:204,0
DA:206,0
DA:207,0
DA:212,0
DA:214,0
DA:215,0
LF:84
LH:0
end_of_record
TN:
SF:/usr/include/boost/test/impl/xml_report_formatter.ipp
FNL:0,103,107
FNA:0,0,_ZN5boost9unit_test6output20xml_report_formatter22do_confirmation_reportERKNS0_9test_unitERSo
FNL:1,35,38
FNA:1,0,_ZN5boost9unit_test6output20xml_report_formatter20results_report_startERSo
FNL:2,43,46
FNA:2,0,_ZN5boost9unit_test6output20xml_report_formatter21results_report_finishERSo
FNL:3,52,90
FNA:3,0,_ZN5boost9unit_test6output20xml_report_formatter22test_unit_report_startERKNS0_9test_unitERSo
FNL:4,95,98
FNA:4,0,_ZN5boost9unit_test6output20xml_report_formatter23test_unit_report_finishERKNS0_9test_unitERSo
FNF:5
FNH:0
DA:35,0
DA:37,0
DA:38,0
DA:43,0
DA:45,0
DA:46,0
DA:52,0
DA:54,0
DA:56,0
DA:58,0
DA:59,0
DA:60,0
DA:61,0
DA:62,0
DA:63,0
DA:64,0
DA:65,0
DA:67,0
DA:69,0
DA:70,0
DA:71,0
DA:72,0
DA:73,0
DA:74,0
DA:75,0
DA:78,0
DA:79,0
DA:80,0
DA:81,0
DA:82,0
DA:83,0
DA:84,0
DA:85,0
DA:89,0
DA:90,0
DA:95,0
DA:97,0
DA:98,0
DA:103,0
DA:105,0
DA:106,0
DA:107,0
LF:42
LH:0
end_of_record
TN:
SF:/usr/include/boost/test/output/compiler_log_formatter.hpp
FNL:0,36,36
FNA:0,1,_ZN5boost9unit_test6output22compiler_log_formatterC2Ev
FNF:1
FNH:1
DA:36,1
LF:1
LH:1
end_of_record
TN:
SF:/usr/include/boost/test/output/junit_log_formatter.hpp
FNL:0,126,134
FNA:0,2,_ZN5boost9unit_test6output19junit_log_formatter13set_log_levelENS0_9log_levelE
FNL:1,147,152
FNA:1,0,_ZN5boost9unit_test6output19junit_log_formatter21get_current_log_entryEv
FNL:2,49,50
FNA:2,0,_ZN5boost9unit_test6output10junit_impl16junit_log_helper15assertion_entryC2Ev
FNL:3,70,71
FNA:3,1,_ZN5boost9unit_test6output10junit_impl16junit_log_helperC2Ev
FNL:4,73,79
FNA:4,0,_ZN5boost9unit_test6output10junit_impl16junit_log_helper5clearEv
FNL:5,92,99
FNA:5,1,_ZN5boost9unit_test6output19junit_log_formatterC2Ev
FNF:6
FNH:3
DA:49,0
DA:50,0
DA:70,1
DA:71,1
DA:73,0
DA:74,0
DA:75,0
DA:76,0
DA:77,0
DA:78,0
DA:79,0
DA:92,1
DA:97,1
DA:98,1
DA:99,1
DA:126,2
DA:128,2
DA:129,0
DA:130,2
DA:131,0
DA:133,2
DA:134,2
DA:147,0
DA:148,0
DA:149,0
DA:150,0
DA:151,0
LF:27
LH:11
end_of_record
TN:
SF:/usr/include/boost/test/output/plain_report_formatter.hpp
FNL:0,36,36
FNA:0,2,_ZN5boost9unit_test6output22plain_report_formatterC2Ev
FNF:1
FNH:1
DA:36,2
LF:1
LH:1
end_of_record
TN:
SF:/usr/include/boost/test/output/xml_log_formatter.hpp
FNF:0
FNH:0
LF:0
LH:0
end_of_record
TN:
SF:/usr/include/boost/test/output/xml_report_formatter.hpp
FNF:0
FNH:0
LF:0
LH:0
end_of_record
TN:
SF:/usr/include/boost/test/progress_monitor.hpp
FNL:0,43,43
FNA:0,0,_ZN5boost9unit_test18progress_monitor_t8priorityEv
FNL:1,52,52
FNA:1,0,_ZN5boost9unit_test18progress_monitor_tD0Ev
FNA:1,1,_ZN5boost9unit_test18progress_monitor_tD2Ev
FNF:2
FNH:1
DA:43,0
DA:52,1
LF:2
LH:1
end_of_record
TN:
SF:/usr/include/boost/test/results_collector.hpp
FNL:0,135,135
FNA:0,12,_ZN5boost9unit_test19results_collector_t8priorityEv
FNL:1,143,143
FNA:1,0,_ZN5boost9unit_test19results_collector_tD0Ev
FNA:1,1,_ZN5boost9unit_test19results_collector_tD2Ev
FNL:2,41,41
FNA:2,0,_ZN5boost9unit_test12_GLOBAL__N_1L22first_failed_assertionEv
FNL:3,57,57
FNA:3,689,_ZN5boost9unit_test12test_results19readonly_property57C2Ev
FNL:4,61,61
FNA:4,159,_ZN5boost9unit_test12test_results19readonly_property61C2Ev
FNF:5
FNH:4
DA:41,0
DA:57,689
DA:61,159
DA:135,12
DA:143,1
LF:5
LH:4
end_of_record
TN:
SF:/usr/include/boost/test/results_reporter.hpp
FNL:0,46,46
FNA:0,0,_ZN5boost9unit_test16results_reporter6formatD0Ev
FNA:0,2,_ZN5boost9unit_test16results_reporter6formatD2Ev
FNF:1
FNH:1
DA:46,2
LF:1
LH:1
end_of_record
TN:
SF:/usr/include/boost/test/test_framework_init_observer.hpp
FNL:0,37,37
FNA:0,1,_ZN5boost9unit_test25framework_init_observer_tC2Ev
FNL:1,45,45
FNA:1,27,_ZN5boost9unit_test25framework_init_observer_t8priorityEv
FNF:2
FNH:2
DA:37,1
DA:45,27
LF:2
LH:2
end_of_record
TN:
SF:/usr/include/boost/test/tools/assertion_result.hpp
FNL:0,52,54
FNA:0,190,_ZN5boost10test_tools16assertion_resultC2Eb
FNL:1,60,60
FNA:1,190,_ZNK5boost10test_tools16assertion_resultntEv
FNL:2,61,61
FNA:2,0,_ZN5boost10test_tools16assertion_resultaSEb
FNL:3,65,65
FNA:3,190,_ZN5boost10test_tools16assertion_result19readonly_property65C2Eb
FNL:4,68,68
FNA:4,137,_ZNK5boost10test_tools16assertion_result17has_empty_messageEv
FNL:5,69,75
FNA:5,0,_ZN5boost10test_tools16assertion_result7messageEv
FNL:6,76,76
FNA:6,0,_ZNK5boost10test_tools16assertion_result7messageEv
FNF:7
FNH:4
DA:52,190
DA:53,190
DA:54,190
DA:60,190
DA:61,0
DA:65,190
DA:68,137
DA:69,0
DA:71,0
DA:72,0
DA:74,0
DA:76,0
LF:12
LH:6
end_of_record
TN:
SF:/usr/include/boost/test/tools/detail/print_helper.hpp
FNL:0,118,118
FNA:0,0,_ZN5boost10test_tools9tt_detail15print_log_valueIA11_cE13set_precisionERSoN4mpl_5bool_ILb1EEE
FNA:0,0,_ZN5boost10test_tools9tt_detail15print_log_valueIA16_cE13set_precisionERSoN4mpl_5bool_ILb1EEE
FNA:0,0,_ZN5boost10test_tools9tt_detail15print_log_valueIA1_cE13set_precisionERSoN4mpl_5bool_ILb1EEE
FNA:0,0,_ZN5boost10test_tools9tt_detail15print_log_valueIA25_cE13set_precisionERSoN4mpl_5bool_ILb1EEE
FNA:0,0,_ZN5boost10test_tools9tt_detail15print_log_valueIA26_cE13set_precisionERSoN4mpl_5bool_ILb1EEE
FNA:0,0,_ZN5boost10test_tools9tt_detail15print_log_valueIA2_cE13set_precisionERSoN4mpl_5bool_ILb1EEE
FNA:0,0,_ZN5boost10test_tools9tt_detail15print_log_valueIA30_cE13set_precisionERSoN4mpl_5bool_ILb1EEE
FNA:0,0,_ZN5boost10test_tools9tt_detail15print_log_valueIA34_cE13set_precisionERSoN4mpl_5bool_ILb1EEE
FNA:0,0,_ZN5boost10test_tools9tt_detail15print_log_valueIA42_cE13set_precisionERSoN4mpl_5bool_ILb1EEE
FNA:0,0,_ZN5boost10test_tools9tt_detail15print_log_valueIA43_cE13set_precisionERSoN4mpl_5bool_ILb1EEE
FNA:0,0,_ZN5boost10test_tools9tt_detail15print_log_valueIA44_cE13set_precisionERSoN4mpl_5bool_ILb1EEE
FNA:0,0,_ZN5boost10test_tools9tt_detail15print_log_valueIA45_cE13set_precisionERSoN4mpl_5bool_ILb1EEE
FNA:0,0,_ZN5boost10test_tools9tt_detail15print_log_valueIA46_cE13set_precisionERSoN4mpl_5bool_ILb1EEE
FNA:0,0,_ZN5boost10test_tools9tt_detail15print_log_valueIA47_cE13set_precisionERSoN4mpl_5bool_ILb1EEE
FNA:0,0,_ZN5boost10test_tools9tt_detail15print_log_valueIA48_cE13set_precisionERSoN4mpl_5bool_ILb1EEE
FNA:0,0,_ZN5boost10test_tools9tt_detail15print_log_valueIA49_cE13set_precisionERSoN4mpl_5bool_ILb1EEE
FNA:0,0,_ZN5boost10test_tools9tt_detail15print_log_valueIA4_cE13set_precisionERSoN4mpl_5bool_ILb1EEE
FNA:0,0,_ZN5boost10test_tools9tt_detail15print_log_valueIA50_cE13set_precisionERSoN4mpl_5bool_ILb1EEE
FNA:0,0,_ZN5boost10test_tools9tt_detail15print_log_valueIA51_cE13set_precisionERSoN4mpl_5bool_ILb1EEE
FNA:0,0,_ZN5boost10test_tools9tt_detail15print_log_valueIA5_cE13set_precisionERSoN4mpl_5bool_ILb1EEE
FNA:0,0,_ZN5boost10test_tools9tt_detail15print_log_valueIA6_cE13set_precisionERSoN4mpl_5bool_ILb1EEE
FNA:0,0,_ZN5boost10test_tools9tt_detail15print_log_valueIA7_cE13set_precisionERSoN4mpl_5bool_ILb1EEE
FNA:0,0,_ZN5boost10test_tools9tt_detail15print_log_valueIA8_cE13set_precisionERSoN4mpl_5bool_ILb1EEE
FNA:0,0,_ZN5boost10test_tools9tt_detail15print_log_valueIA9_cE13set_precisionERSoN4mpl_5bool_ILb1EEE
FNL:1,195,195
FNA:1,0,_ZN5boost10test_tools9tt_detail14print_helper_tIA11_cEC2ERA11_Kc
FNA:1,0,_ZN5boost10test_tools9tt_detail14print_helper_tIA16_cEC2ERA16_Kc
FNA:1,0,_ZN5boost10test_tools9tt_detail14print_helper_tIA1_cEC2ERA1_Kc
FNA:1,0,_ZN5boost10test_tools9tt_detail14print_helper_tIA25_cEC2ERA25_Kc
FNA:1,0,_ZN5boost10test_tools9tt_detail14print_helper_tIA26_cEC2ERA26_Kc
FNA:1,2,_ZN5boost10test_tools9tt_detail14print_helper_tIA2_cEC2ERA2_Kc
FNA:1,0,_ZN5boost10test_tools9tt_detail14print_helper_tIA30_cEC2ERA30_Kc
FNA:1,0,_ZN5boost10test_tools9tt_detail14print_helper_tIA34_cEC2ERA34_Kc
FNA:1,0,_ZN5boost10test_tools9tt_detail14print_helper_tIA42_cEC2ERA42_Kc
FNA:1,0,_ZN5boost10test_tools9tt_detail14print_helper_tIA43_cEC2ERA43_Kc
FNA:1,0,_ZN5boost10test_tools9tt_detail14print_helper_tIA44_cEC2ERA44_Kc
FNA:1,0,_ZN5boost10test_tools9tt_detail14print_helper_tIA45_cEC2ERA45_Kc
FNA:1,0,_ZN5boost10test_tools9tt_detail14print_helper_tIA46_cEC2ERA46_Kc
FNA:1,0,_ZN5boost10test_tools9tt_detail14print_helper_tIA47_cEC2ERA47_Kc
FNA:1,0,_ZN5boost10test_tools9tt_detail14print_helper_tIA48_cEC2ERA48_Kc
FNA:1,0,_ZN5boost10test_tools9tt_detail14print_helper_tIA49_cEC2ERA49_Kc
FNA:1,8,_ZN5boost10test_tools9tt_detail14print_helper_tIA4_cEC2ERA4_Kc
FNA:1,0,_ZN5boost10test_tools9tt_detail14print_helper_tIA50_cEC2ERA50_Kc
FNA:1,0,_ZN5boost10test_tools9tt_detail14print_helper_tIA51_cEC2ERA51_Kc
FNA:1,1,_ZN5boost10test_tools9tt_detail14print_helper_tIA5_cEC2ERA5_Kc
FNA:1,15,_ZN5boost10test_tools9tt_detail14print_helper_tIA6_cEC2ERA6_Kc
FNA:1,9,_ZN5boost10test_tools9tt_detail14print_helper_tIA7_cEC2ERA7_Kc
FNA:1,0,_ZN5boost10test_tools9tt_detail14print_helper_tIA8_cEC2ERA8_Kc
FNA:1,1,_ZN5boost10test_tools9tt_detail14print_helper_tIA9_cEC2ERA9_Kc
FNA:1,0,_ZN5boost10test_tools9tt_detail14print_helper_tINS2_IA2_cEEEC2ERKS4_
FNA:1,0,_ZN5boost10test_tools9tt_detail14print_helper_tINS2_IA4_cEEEC2ERKS4_
FNA:1,0,_ZN5boost10test_tools9tt_detail14print_helper_tINS2_IA5_cEEEC2ERKS4_
FNA:1,0,_ZN5boost10test_tools9tt_detail14print_helper_tINS2_IA6_cEEEC2ERKS4_
FNA:1,0,_ZN5boost10test_tools9tt_detail14print_helper_tINS2_IA7_cEEEC2ERKS4_
FNA:1,0,_ZN5boost10test_tools9tt_detail14print_helper_tINS2_IA9_cEEEC2ERKS4_
FNA:1,0,_ZN5boost10test_tools9tt_detail14print_helper_tINS2_INSt7__cxx1112basic_stringIcSt11char_traitsIcESaIcEEEEEEC2ERKS9_
FNA:1,0,_ZN5boost10test_tools9tt_detail14print_helper_tINS2_IiEEEC2ERKS3_
FNA:1,0,_ZN5boost10test_tools9tt_detail14print_helper_tINS2_ImEEEC2ERKS3_
FNA:1,0,_ZN5boost10test_tools9tt_detail14print_helper_tINS_9unit_test13basic_cstringIKcEEEC2ERKS6_
FNA:1,36,_ZN5boost10test_tools9tt_detail14print_helper_tINSt7__cxx1112basic_stringIcSt11char_traitsIcESaIcEEEEC2ERKS8_
FNA:1,0,_ZN5boost10test_tools9tt_detail14print_helper_tIcEC2ERKc
FNA:1,70,_ZN5boost10test_tools9tt_detail14print_helper_tIiEC2ERKi
FNA:1,0,_ZN5boost10test_tools9tt_detail14print_helper_tIjEC2ERKj
FNA:1,18,_ZN5boost10test_tools9tt_detail14print_helper_tImEC2ERKm
FNL:2,216,219
FNA:2,0,_ZN5boost10test_tools9tt_detail12print_helperIA11_cEENS1_14print_helper_tIT_EERKS5_
FNA:2,0,_ZN5boost10test_tools9tt_detail12print_helperIA16_cEENS1_14print_helper_tIT_EERKS5_
FNA:2,0,_ZN5boost10test_tools9tt_detail12print_helperIA1_cEENS1_14print_helper_tIT_EERKS5_
FNA:2,0,_ZN5boost10test_tools9tt_detail12print_helperIA25_cEENS1_14print_helper_tIT_EERKS5_
FNA:2,0,_ZN5boost10test_tools9tt_detail12print_helperIA26_cEENS1_14print_helper_tIT_EERKS5_
FNA:2,2,_ZN5boost10test_tools9tt_detail12print_helperIA2_cEENS1_14print_helper_tIT_EERKS5_
FNA:2,0,_ZN5boost10test_tools9tt_detail12print_helperIA30_cEENS1_14print_helper_tIT_EERKS5_
FNA:2,0,_ZN5boost10test_tools9tt_detail12print_helperIA34_cEENS1_14print_helper_tIT_EERKS5_
FNA:2,0,_ZN5boost10test_tools9tt_detail12print_helperIA42_cEENS1_14print_helper_tIT_EERKS5_
FNA:2,0,_ZN5boost10test_tools9tt_detail12print_helperIA43_cEENS1_14print_helper_tIT_EERKS5_
FNA:2,0,_ZN5boost10test_tools9tt_detail12print_helperIA44_cEENS1_14print_helper_tIT_EERKS5_
FNA:2,0,_ZN5boost10test_tools9tt_detail12print_helperIA45_cEENS1_14print_helper_tIT_EERKS5_
FNA:2,0,_ZN5boost10test_tools9tt_detail12print_helperIA46_cEENS1_14print_helper_tIT_EERKS5_
FNA:2,0,_ZN5boost10test_tools9tt_detail12print_helperIA47_cEENS1_14print_helper_tIT_EERKS5_
FNA:2,0,_ZN5boost10test_tools9tt_detail12print_helperIA48_cEENS1_14print_helper_tIT_EERKS5_
FNA:2,0,_ZN5boost10test_tools9tt_detail12print_helperIA49_cEENS1_14print_helper_tIT_EERKS5_
FNA:2,8,_ZN5boost10test_tools9tt_detail12print_helperIA4_cEENS1_14print_helper_tIT_EERKS5_
FNA:2,0,_ZN5boost10test_tools9tt_detail12print_helperIA50_cEENS1_14print_helper_tIT_EERKS5_
FNA:2,0,_ZN5boost10test_tools9tt_detail12print_helperIA51_cEENS1_14print_helper_tIT_EERKS5_
FNA:2,1,_ZN5boost10test_tools9tt_detail12print_helperIA5_cEENS1_14print_helper_tIT_EERKS5_
FNA:2,15,_ZN5boost10test_tools9tt_detail12print_helperIA6_cEENS1_14print_helper_tIT_EERKS5_
FNA:2,9,_ZN5boost10test_tools9tt_detail12print_helperIA7_cEENS1_14print_helper_tIT_EERKS5_
FNA:2,0,_ZN5boost10test_tools9tt_detail12print_helperIA8_cEENS1_14print_helper_tIT_EERKS5_
FNA:2,1,_ZN5boost10test_tools9tt_detail12print_helperIA9_cEENS1_14print_helper_tIT_EERKS5_
FNA:2,0,_ZN5boost10test_tools9tt_detail12print_helperINS1_14print_helper_tIA2_cEEEENS3_IT_EERKS6_
FNA:2,0,_ZN5boost10test_tools9tt_detail12print_helperINS1_14print_helper_tIA4_cEEEENS3_IT_EERKS6_
FNA:2,0,_ZN5boost10test_tools9tt_detail12print_helperINS1_14print_helper_tIA5_cEEEENS3_IT_EERKS6_
FNA:2,0,_ZN5boost10test_tools9tt_detail12print_helperINS1_14print_helper_tIA6_cEEEENS3_IT_EERKS6_
FNA:2,0,_ZN5boost10test_tools9tt_detail12print_helperINS1_14print_helper_tIA7_cEEEENS3_IT_EERKS6_
FNA:2,0,_ZN5boost10test_tools9tt_detail12print_helperINS1_14print_helper_tIA9_cEEEENS3_IT_EERKS6_
FNA:2,0,_ZN5boost10test_tools9tt_detail12print_helperINS1_14print_helper_tINSt7__cxx1112basic_stringIcSt11char_traitsIcESaIcEEEEEEENS3_IT_EERKSB_
FNA:2,0,_ZN5boost10test_tools9tt_detail12print_helperINS1_14print_helper_tIiEEEENS3_IT_EERKS5_
FNA:2,0,_ZN5boost10test_tools9tt_detail12print_helperINS1_14print_helper_tImEEEENS3_IT_EERKS5_
FNA:2,0,_ZN5boost10test_tools9tt_detail12print_helperINS_9unit_test13basic_cstringIKcEEEENS1_14print_helper_tIT_EERKS8_
FNA:2,36,_ZN5boost10test_tools9tt_detail12print_helperINSt7__cxx1112basic_stringIcSt11char_traitsIcESaIcEEEEENS1_14print_helper_tIT_EERKSA_
FNA:2,0,_ZN5boost10test_tools9tt_detail12print_helperIcEENS1_14print_helper_tIT_EERKS4_
FNA:2,70,_ZN5boost10test_tools9tt_detail12print_helperIiEENS1_14print_helper_tIT_EERKS4_
FNA:2,0,_ZN5boost10test_tools9tt_detail12print_helperIjEENS1_14print_helper_tIT_EERKS4_
FNA:2,18,_ZN5boost10test_tools9tt_detail12print_helperImEENS1_14print_helper_tIT_EERKS4_
FNL:3,225,230
FNA:3,0,_ZN5boost10test_tools9tt_detaillsIA11_cEERSoS4_RKNS1_14print_helper_tIT_EE
FNA:3,0,_ZN5boost10test_tools9tt_detaillsIA16_cEERSoS4_RKNS1_14print_helper_tIT_EE
FNA:3,0,_ZN5boost10test_tools9tt_detaillsIA1_cEERSoS4_RKNS1_14print_helper_tIT_EE
FNA:3,0,_ZN5boost10test_tools9tt_detaillsIA25_cEERSoS4_RKNS1_14print_helper_tIT_EE
FNA:3,0,_ZN5boost10test_tools9tt_detaillsIA26_cEERSoS4_RKNS1_14print_helper_tIT_EE
FNA:3,0,_ZN5boost10test_tools9tt_detaillsIA2_cEERSoS4_RKNS1_14print_helper_tIT_EE
FNA:3,0,_ZN5boost10test_tools9tt_detaillsIA30_cEERSoS4_RKNS1_14print_helper_tIT_EE
FNA:3,0,_ZN5boost10test_tools9tt_detaillsIA34_cEERSoS4_RKNS1_14print_helper_tIT_EE
FNA:3,0,_ZN5boost10test_tools9tt_detaillsIA42_cEERSoS4_RKNS1_14print_helper_tIT_EE
FNA:3,0,_ZN5boost10test_tools9tt_detaillsIA43_cEERSoS4_RKNS1_14print_helper_tIT_EE
FNA:3,0,_ZN5boost10test_tools9tt_detaillsIA44_cEERSoS4_RKNS1_14print_helper_tIT_EE
FNA:3,0,_ZN5boost10test_tools9tt_detaillsIA45_cEERSoS4_RKNS1_14print_helper_tIT_EE
FNA:3,0,_ZN5boost10test_tools9tt_detaillsIA46_cEERSoS4_RKNS1_14print_helper_tIT_EE
FNA:3,0,_ZN5boost10test_tools9tt_detaillsIA47_cEERSoS4_RKNS1_14print_helper_tIT_EE
FNA:3,0,_ZN5boost10test_tools9tt_detaillsIA48_cEERSoS4_RKNS1_14print_helper_tIT_EE
FNA:3,0,_ZN5boost10test_tools9tt_detaillsIA49_cEERSoS4_RKNS1_14print_helper_tIT_EE
FNA:3,0,_ZN5boost10test_tools9tt_detaillsIA4_cEERSoS4_RKNS1_14print_helper_tIT_EE
FNA:3,0,_ZN5boost10test_tools9tt_detaillsIA50_cEERSoS4_RKNS1_14print_helper_tIT_EE
FNA:3,0,_ZN5boost10test_tools9tt_detaillsIA51_cEERSoS4_RKNS1_14print_helper_tIT_EE
FNA:3,0,_ZN5boost10test_tools9tt_detaillsIA5_cEERSoS4_RKNS1_14print_helper_tIT_EE
FNA:3,0,_ZN5boost10test_tools9tt_detaillsIA6_cEERSoS4_RKNS1_14print_helper_tIT_EE
FNA:3,0,_ZN5boost10test_tools9tt_detaillsIA7_cEERSoS4_RKNS1_14print_helper_tIT_EE
FNA:3,0,_ZN5boost10test_tools9tt_detaillsIA8_cEERSoS4_RKNS1_14print_helper_tIT_EE
FNA:3,0,_ZN5boost10test_tools9tt_detaillsIA9_cEERSoS4_RKNS1_14print_helper_tIT_EE
FNA:3,0,_ZN5boost10test_tools9tt_detaillsINS1_14print_helper_tIA2_cEEEERSoS6_RKNS3_IT_EE
FNA:3,0,_ZN5boost10test_tools9tt_detaillsINS1_14print_helper_tIA4_cEEEERSoS6_RKNS3_IT_EE
FNA:3,0,_ZN5boost10test_tools9tt_detaillsINS1_14print_helper_tIA5_cEEEERSoS6_RKNS3_IT_EE
FNA:3,0,_ZN5boost10test_tools9tt_detaillsINS1_14print_helper_tIA6_cEEEERSoS6_RKNS3_IT_EE
FNA:3,0,_ZN5boost10test_tools9tt_detaillsINS1_14print_helper_tIA7_cEEEERSoS6_RKNS3_IT_EE
FNA:3,0,_ZN5boost10test_tools9tt_detaillsINS1_14print_helper_tIA9_cEEEERSoS6_RKNS3_IT_EE
FNA:3,0,_ZN5boost10test_tools9tt_detaillsINS1_14print_helper_tINSt7__cxx1112basic_stringIcSt11char_traitsIcESaIcEEEEEEERSoSB_RKNS3_IT_EE
FNA:3,0,_ZN5boost10test_tools9tt_detaillsINS1_14print_helper_tIiEEEERSoS5_RKNS3_IT_EE
FNA:3,0,_ZN5boost10test_tools9tt_detaillsINS1_14print_helper_tImEEEERSoS5_RKNS3_IT_EE
FNA:3,0,_ZN5boost10test_tools9tt_detaillsINS_9unit_test13basic_cstringIKcEEEERSoS7_RKNS1_14print_helper_tIT_EE
FNA:3,0,_ZN5boost10test_tools9tt_detaillsINSt7__cxx1112basic_stringIcSt11char_traitsIcESaIcEEEEERSoS9_RKNS1_14print_helper_tIT_EE
FNA:3,0,_ZN5boost10test_tools9tt_detaillsIcEERSoS3_RKNS1_14print_helper_tIT_EE
FNA:3,0,_ZN5boost10test_tools9tt_detaillsIiEERSoS3_RKNS1_14print_helper_tIT_EE
FNA:3,0,_ZN5boost10test_tools9tt_detaillsIjEERSoS3_RKNS1_14print_helper_tIT_EE
FNA:3,0,_ZN5boost10test_tools9tt_detaillsImEERSoS3_RKNS1_14print_helper_tIT_EE
FNL:4,52,57
FNA:4,0,_ZN5boost10test_tools9tt_detail4impl21boost_test_print_typeIA11_cEERSoS5_RKT_
FNA:4,0,_ZN5boost10test_tools9tt_detail4impl21boost_test_print_typeIA16_cEERSoS5_RKT_
FNA:4,0,_ZN5boost10test_tools9tt_detail4impl21boost_test_print_typeIA1_cEERSoS5_RKT_
FNA:4,0,_ZN5boost10test_tools9tt_detail4impl21boost_test_print_typeIA25_cEERSoS5_RKT_
FNA:4,0,_ZN5boost10test_tools9tt_detail4impl21boost_test_print_typeIA26_cEERSoS5_RKT_
FNA:4,0,_ZN5boost10test_tools9tt_detail4impl21boost_test_print_typeIA2_cEERSoS5_RKT_
FNA:4,0,_ZN5boost10test_tools9tt_detail4impl21boost_test_print_typeIA30_cEERSoS5_RKT_
FNA:4,0,_ZN5boost10test_tools9tt_detail4impl21boost_test_print_typeIA34_cEERSoS5_RKT_
FNA:4,0,_ZN5boost10test_tools9tt_detail4impl21boost_test_print_typeIA42_cEERSoS5_RKT_
FNA:4,0,_ZN5boost10test_tools9tt_detail4impl21boost_test_print_typeIA43_cEERSoS5_RKT_
FNA:4,0,_ZN5boost10test_tools9tt_detail4impl21boost_test_print_typeIA44_cEERSoS5_RKT_
FNA:4,0,_ZN5boost10test_tools9tt_detail4impl21boost_test_print_typeIA45_cEERSoS5_RKT_
FNA:4,0,_ZN5boost10test_tools9tt_detail4impl21boost_test_print_typeIA46_cEERSoS5_RKT_
FNA:4,0,_ZN5boost10test_tools9tt_detail4impl21boost_test_print_typeIA47_cEERSoS5_RKT_
FNA:4,0,_ZN5boost10test_tools9tt_detail4impl21boost_test_print_typeIA48_cEERSoS5_RKT_
FNA:4,0,_ZN5boost10test_tools9tt_detail4impl21boost_test_print_typeIA49_cEERSoS5_RKT_
FNA:4,0,_ZN5boost10test_tools9tt_detail4impl21boost_test_print_typeIA4_cEERSoS5_RKT_
FNA:4,0,_ZN5boost10test_tools9tt_detail4impl21boost_test_print_typeIA50_cEERSoS5_RKT_
FNA:4,0,_ZN5boost10test_tools9tt_detail4impl21boost_test_print_typeIA51_cEERSoS5_RKT_
FNA:4,0,_ZN5boost10test_tools9tt_detail4impl21boost_test_print_typeIA5_cEERSoS5_RKT_
FNA:4,0,_ZN5boost10test_tools9tt_detail4impl21boost_test_print_typeIA6_cEERSoS5_RKT_
FNA:4,0,_ZN5boost10test_tools9tt_detail4impl21boost_test_print_typeIA7_cEERSoS5_RKT_
FNA:4,0,_ZN5boost10test_tools9tt_detail4impl21boost_test_print_typeIA8_cEERSoS5_RKT_
FNA:4,0,_ZN5boost10test_tools9tt_detail4impl21boost_test_print_typeIA9_cEERSoS5_RKT_
FNA:4,0,_ZN5boost10test_tools9tt_detail4impl21boost_test_print_typeINS1_14print_helper_tIA2_cEEEERSoS7_RKT_
FNA:4,0,_ZN5boost10test_tools9tt_detail4impl21boost_test_print_typeINS1_14print_helper_tIA4_cEEEERSoS7_RKT_
FNA:4,0,_ZN5boost10test_tools9tt_detail4impl21boost_test_print_typeINS1_14print_helper_tIA5_cEEEERSoS7_RKT_
FNA:4,0,_ZN5boost10test_tools9tt_detail4impl21boost_test_print_typeINS1_14print_helper_tIA6_cEEEERSoS7_RKT_
FNA:4,0,_ZN5boost10test_tools9tt_detail4impl21boost_test_print_typeINS1_14print_helper_tIA7_cEEEERSoS7_RKT_
FNA:4,0,_ZN5boost10test_tools9tt_detail4impl21boost_test_print_typeINS1_14print_helper_tIA9_cEEEERSoS7_RKT_
FNA:4,0,_ZN5boost10test_tools9tt_detail4impl21boost_test_print_typeINS1_14print_helper_tINSt7__cxx1112basic_stringIcSt11char_traitsIcESaIcEEEEEEERSoSC_RKT_
FNA:4,0,_ZN5boost10test_tools9tt_detail4impl21boost_test_print_typeINS1_14print_helper_tIiEEEERSoS6_RKT_
FNA:4,0,_ZN5boost10test_tools9tt_detail4impl21boost_test_print_typeINS1_14print_helper_tImEEEERSoS6_RKT_
FNA:4,0,_ZN5boost10test_tools9tt_detail4impl21boost_test_print_typeINS_9unit_test13basic_cstringIKcEEEERSoS8_RKT_
FNA:4,0,_ZN5boost10test_tools9tt_detail4impl21boost_test_print_typeINSt7__cxx1112basic_stringIcSt11char_traitsIcESaIcEEEEERSoSA_RKT_
FNA:4,0,_ZN5boost10test_tools9tt_detail4impl21boost_test_print_typeIiEERSoS4_RKT_
FNA:4,0,_ZN5boost10test_tools9tt_detail4impl21boost_test_print_typeIjEERSoS4_RKT_
FNA:4,0,_ZN5boost10test_tools9tt_detail4impl21boost_test_print_typeImEERSoS4_RKT_
FNL:5,61,63
FNA:5,0,_ZNK5boost10test_tools9tt_detail4impl26boost_test_print_type_implclIA11_cEERSoS6_RKT_
FNA:5,0,_ZNK5boost10test_tools9tt_detail4impl26boost_test_print_type_implclIA16_cEERSoS6_RKT_
FNA:5,0,_ZNK5boost10test_tools9tt_detail4impl26boost_test_print_type_implclIA1_cEERSoS6_RKT_
FNA:5,0,_ZNK5boost10test_tools9tt_detail4impl26boost_test_print_type_implclIA25_cEERSoS6_RKT_
FNA:5,0,_ZNK5boost10test_tools9tt_detail4impl26boost_test_print_type_implclIA26_cEERSoS6_RKT_
FNA:5,0,_ZNK5boost10test_tools9tt_detail4impl26boost_test_print_type_implclIA2_cEERSoS6_RKT_
FNA:5,0,_ZNK5boost10test_tools9tt_detail4impl26boost_test_print_type_implclIA30_cEERSoS6_RKT_
FNA:5,0,_ZNK5boost10test_tools9tt_detail4impl26boost_test_print_type_implclIA34_cEERSoS6_RKT_
FNA:5,0,_ZNK5boost10test_tools9tt_detail4impl26boost_test_print_type_implclIA42_cEERSoS6_RKT_
FNA:5,0,_ZNK5boost10test_tools9tt_detail4impl26boost_test_print_type_implclIA43_cEERSoS6_RKT_
FNA:5,0,_ZNK5boost10test_tools9tt_detail4impl26boost_test_print_type_implclIA44_cEERSoS6_RKT_
FNA:5,0,_ZNK5boost10test_tools9tt_detail4impl26boost_test_print_type_implclIA45_cEERSoS6_RKT_
FNA:5,0,_ZNK5boost10test_tools9tt_detail4impl26boost_test_print_type_implclIA46_cEERSoS6_RKT_
FNA:5,0,_ZNK5boost10test_tools9tt_detail4impl26boost_test_print_type_implclIA47_cEERSoS6_RKT_
FNA:5,0,_ZNK5boost10test_tools9tt_detail4impl26boost_test_print_type_implclIA48_cEERSoS6_RKT_
FNA:5,0,_ZNK5boost10test_tools9tt_detail4impl26boost_test_print_type_implclIA49_cEERSoS6_RKT_
FNA:5,0,_ZNK5boost10test_tools9tt_detail4impl26boost_test_print_type_implclIA4_cEERSoS6_RKT_
FNA:5,0,_ZNK5boost10test_tools9tt_detail4impl26boost_test_print_type_implclIA50_cEERSoS6_RKT_
FNA:5,0,_ZNK5boost10test_tools9tt_detail4impl26boost_test_print_type_implclIA51_cEERSoS6_RKT_
FNA:5,0,_ZNK5boost10test_tools9tt_detail4impl26boost_test_print_type_implclIA5_cEERSoS6_RKT_
FNA:5,0,_ZNK5boost10test_tools9tt_detail4impl26boost_test_print_type_implclIA6_cEERSoS6_RKT_
FNA:5,0,_ZNK5boost10test_tools9tt_detail4impl26boost_test_print_type_implclIA7_cEERSoS6_RKT_
FNA:5,0,_ZNK5boost10test_tools9tt_detail4impl26boost_test_print_type_implclIA8_cEERSoS6_RKT_
FNA:5,0,_ZNK5boost10test_tools9tt_detail4impl26boost_test_print_type_implclIA9_cEERSoS6_RKT_
FNA:5,0,_ZNK5boost10test_tools9tt_detail4impl26boost_test_print_type_implclINS1_14print_helper_tIA2_cEEEERSoS8_RKT_
FNA:5,0,_ZNK5boost10test_tools9tt_detail4impl26boost_test_print_type_implclINS1_14print_helper_tIA4_cEEEERSoS8_RKT_
FNA:5,0,_ZNK5boost10test_tools9tt_detail4impl26boost_test_print_type_implclINS1_14print_helper_tIA5_cEEEERSoS8_RKT_
FNA:5,0,_ZNK5boost10test_tools9tt_detail4impl26boost_test_print_type_implclINS1_14print_helper_tIA6_cEEEERSoS8_RKT_
FNA:5,0,_ZNK5boost10test_tools9tt_detail4impl26boost_test_print_type_implclINS1_14print_helper_tIA7_cEEEERSoS8_RKT_
FNA:5,0,_ZNK5boost10test_tools9tt_detail4impl26boost_test_print_type_implclINS1_14print_helper_tIA9_cEEEERSoS8_RKT_
FNA:5,0,_ZNK5boost10test_tools9tt_detail4impl26boost_test_print_type_implclINS1_14print_helper_tINSt7__cxx1112basic_stringIcSt11char_traitsIcESaIcEEEEEEERSoSD_RKT_
FNA:5,0,_ZNK5boost10test_tools9tt_detail4impl26boost_test_print_type_implclINS1_14print_helper_tIiEEEERSoS7_RKT_
FNA:5,0,_ZNK5boost10test_tools9tt_detail4impl26boost_test_print_type_implclINS1_14print_helper_tImEEEERSoS7_RKT_
FNA:5,0,_ZNK5boost10test_tools9tt_detail4impl26boost_test_print_type_implclINS_9unit_test13basic_cstringIKcEEEERSoS9_RKT_
FNA:5,0,_ZNK5boost10test_tools9tt_detail4impl26boost_test_print_type_implclINSt7__cxx1112basic_stringIcSt11char_traitsIcESaIcEEEEERSoSB_RKT_
FNA:5,0,_ZNK5boost10test_tools9tt_detail4impl26boost_test_print_type_implclIiEERSoS5_RKT_
FNA:5,0,_ZNK5boost10test_tools9tt_detail4impl26boost_test_print_type_implclIjEERSoS5_RKT_
FNA:5,0,_ZNK5boost10test_tools9tt_detail4impl26boost_test_print_type_implclImEERSoS5_RKT_
FNL:6,83,95
FNA:6,0,_ZN5boost10test_tools9tt_detail15print_log_valueIA11_cEclERSoRA11_Kc
FNA:6,0,_ZN5boost10test_tools9tt_detail15print_log_valueIA16_cEclERSoRA16_Kc
FNA:6,0,_ZN5boost10test_tools9tt_detail15print_log_valueIA1_cEclERSoRA1_Kc
FNA:6,0,_ZN5boost10test_tools9tt_detail15print_log_valueIA25_cEclERSoRA25_Kc
FNA:6,0,_ZN5boost10test_tools9tt_detail15print_log_valueIA26_cEclERSoRA26_Kc
FNA:6,0,_ZN5boost10test_tools9tt_detail15print_log_valueIA2_cEclERSoRA2_Kc
FNA:6,0,_ZN5boost10test_tools9tt_detail15print_log_valueIA30_cEclERSoRA30_Kc
FNA:6,0,_ZN5boost10test_tools9tt_detail15print_log_valueIA34_cEclERSoRA34_Kc
FNA:6,0,_ZN5boost10test_tools9tt_detail15print_log_valueIA42_cEclERSoRA42_Kc
FNA:6,0,_ZN5boost10test_tools9tt_detail15print_log_valueIA43_cEclERSoRA43_Kc
FNA:6,0,_ZN5boost10test_tools9tt_detail15print_log_valueIA44_cEclERSoRA44_Kc
FNA:6,0,_ZN5boost10test_tools9tt_detail15print_log_valueIA45_cEclERSoRA45_Kc
FNA:6,0,_ZN5boost10test_tools9tt_detail15print_log_valueIA46_cEclERSoRA46_Kc
FNA:6,0,_ZN5boost10test_tools9tt_detail15print_log_valueIA47_cEclERSoRA47_Kc
FNA:6,0,_ZN5boost10test_tools9tt_detail15print_log_valueIA48_cEclERSoRA48_Kc
FNA:6,0,_ZN5boost10test_tools9tt_detail15print_log_valueIA49_cEclERSoRA49_Kc
FNA:6,0,_ZN5boost10test_tools9tt_detail15print_log_valueIA4_cEclERSoRA4_Kc
FNA:6,0,_ZN5boost10test_tools9tt_detail15print_log_valueIA50_cEclERSoRA50_Kc
FNA:6,0,_ZN5boost10test_tools9tt_detail15print_log_valueIA51_cEclERSoRA51_Kc
FNA:6,0,_ZN5boost10test_tools9tt_detail15print_log_valueIA5_cEclERSoRA5_Kc
FNA:6,0,_ZN5boost10test_tools9tt_detail15print_log_valueIA6_cEclERSoRA6_Kc
FNA:6,0,_ZN5boost10test_tools9tt_detail15print_log_valueIA7_cEclERSoRA7_Kc
FNA:6,0,_ZN5boost10test_tools9tt_detail15print_log_valueIA8_cEclERSoRA8_Kc
FNA:6,0,_ZN5boost10test_tools9tt_detail15print_log_valueIA9_cEclERSoRA9_Kc
FNA:6,0,_ZN5boost10test_tools9tt_detail15print_log_valueINS1_14print_helper_tIA2_cEEEclERSoRKS5_
FNA:6,0,_ZN5boost10test_tools9tt_detail15print_log_valueINS1_14print_helper_tIA4_cEEEclERSoRKS5_
FNA:6,0,_ZN5boost10test_tools9tt_detail15print_log_valueINS1_14print_helper_tIA5_cEEEclERSoRKS5_
FNA:6,0,_ZN5boost10test_tools9tt_detail15print_log_valueINS1_14print_helper_tIA6_cEEEclERSoRKS5_
FNA:6,0,_ZN5boost10test_tools9tt_detail15print_log_valueINS1_14print_helper_tIA7_cEEEclERSoRKS5_
FNA:6,0,_ZN5boost10test_tools9tt_detail15print_log_valueINS1_14print_helper_tIA9_cEEEclERSoRKS5_
FNA:6,0,_ZN5boost10test_tools9tt_detail15print_log_valueINS1_14print_helper_tINSt7__cxx1112basic_stringIcSt11char_traitsIcESaIcEEEEEEclERSoRKSA_
FNA:6,0,_ZN5boost10test_tools9tt_detail15print_log_valueINS1_14print_helper_tIiEEEclERSoRKS4_
FNA:6,0,_ZN5boost10test_tools9tt_detail15print_log_valueINS1_14print_helper_tImEEEclERSoRKS4_
FNA:6,0,_ZN5boost10test_tools9tt_detail15print_log_valueINS_9unit_test13basic_cstringIKcEEEclERSoRKS6_
FNA:6,0,_ZN5boost10test_tools9tt_detail15print_log_valueINSt7__cxx1112basic_stringIcSt11char_traitsIcESaIcEEEEclERSoRKS8_
FNA:6,0,_ZN5boost10test_tools9tt_detail15print_log_valueIiEclERSoRKi
FNA:6,0,_ZN5boost10test_tools9tt_detail15print_log_valueIjEclERSoRKj
FNA:6,0,_ZN5boost10test_tools9tt_detail15print_log_valueImEclERSoRKm
FNL:7,97,116
FNA:7,0,_ZN5boost10test_tools9tt_detail15print_log_valueINS1_14print_helper_tIA2_cEEE13set_precisionERSoN4mpl_5bool_ILb0EEE
FNA:7,0,_ZN5boost10test_tools9tt_detail15print_log_valueINS1_14print_helper_tIA4_cEEE13set_precisionERSoN4mpl_5bool_ILb0EEE
FNA:7,0,_ZN5boost10test_tools9tt_detail15print_log_valueINS1_14print_helper_tIA5_cEEE13set_precisionERSoN4mpl_5bool_ILb0EEE
FNA:7,0,_ZN5boost10test_tools9tt_detail15print_log_valueINS1_14print_helper_tIA6_cEEE13set_precisionERSoN4mpl_5bool_ILb0EEE
FNA:7,0,_ZN5boost10test_tools9tt_detail15print_log_valueINS1_14print_helper_tIA7_cEEE13set_precisionERSoN4mpl_5bool_ILb0EEE
FNA:7,0,_ZN5boost10test_tools9tt_detail15print_log_valueINS1_14print_helper_tIA9_cEEE13set_precisionERSoN4mpl_5bool_ILb0EEE
FNA:7,0,_ZN5boost10test_tools9tt_detail15print_log_valueINS1_14print_helper_tINSt7__cxx1112basic_stringIcSt11char_traitsIcESaIcEEEEEE13set_precisionERSoN4mpl_5bool_ILb0EEE
FNA:7,0,_ZN5boost10test_tools9tt_detail15print_log_valueINS1_14print_helper_tIiEEE13set_precisionERSoN4mpl_5bool_ILb0EEE
FNA:7,0,_ZN5boost10test_tools9tt_detail15print_log_valueINS1_14print_helper_tImEEE13set_precisionERSoN4mpl_5bool_ILb0EEE
FNA:7,0,_ZN5boost10test_tools9tt_detail15print_log_valueINS_9unit_test13basic_cstringIKcEEE13set_precisionERSoN4mpl_5bool_ILb0EEE
FNA:7,0,_ZN5boost10test_tools9tt_detail15print_log_valueINSt7__cxx1112basic_stringIcSt11char_traitsIcESaIcEEEE13set_precisionERSoN4mpl_5bool_ILb0EEE
FNA:7,0,_ZN5boost10test_tools9tt_detail15print_log_valueIiE13set_precisionERSoN4mpl_5bool_ILb0EEE
FNA:7,0,_ZN5boost10test_tools9tt_detail15print_log_valueIjE13set_precisionERSoN4mpl_5bool_ILb0EEE
FNA:7,0,_ZN5boost10test_tools9tt_detail15print_log_valueImE13set_precisionERSoN4mpl_5bool_ILb0EEE
FNF:8
FNH:2
DA:52,0
DA:55,0
DA:56,0
DA:61,0
DA:62,0
DA:83,0
DA:87,0
DA:91,0
DA:93,0
DA:94,0
DA:95,0
DA:97,0
DA:100,0
DA:115,0
DA:118,0
DA:195,160
DA:216,160
DA:218,160
DA:225,0
DA:227,0
DA:229,0
LF:21
LH:3
end_of_record
TN:
SF:/usr/include/boost/test/tools/old/impl.hpp
FNL:0,105,108
FNA:0,2,_ZN5boost10test_tools9tt_detail10equal_implINSt7__cxx1112basic_stringIcSt11char_traitsIcESaIcEEEA2_cEENS0_16assertion_resultERKT_RKT0_
FNA:0,8,_ZN5boost10test_tools9tt_detail10equal_implINSt7__cxx1112basic_stringIcSt11char_traitsIcESaIcEEEA4_cEENS0_16assertion_resultERKT_RKT0_
FNA:0,1,_ZN5boost10test_tools9tt_detail10equal_implINSt7__cxx1112basic_stringIcSt11char_traitsIcESaIcEEEA5_cEENS0_16assertion_resultERKT_RKT0_
FNA:0,15,_ZN5boost10test_tools9tt_detail10equal_implINSt7__cxx1112basic_stringIcSt11char_traitsIcESaIcEEEA6_cEENS0_16assertion_resultERKT_RKT0_
FNA:0,9,_ZN5boost10test_tools9tt_detail10equal_implINSt7__cxx1112basic_stringIcSt11char_traitsIcESaIcEEEA7_cEENS0_16assertion_resultERKT_RKT0_
FNA:0,1,_ZN5boost10test_tools9tt_detail10equal_implINSt7__cxx1112basic_stringIcSt11char_traitsIcESaIcEEEA9_cEENS0_16assertion_resultERKT_RKT0_
FNA:0,26,_ZN5boost10test_tools9tt_detail10equal_implIiiEENS0_16assertion_resultERKT_RKT0_
FNA:0,18,_ZN5boost10test_tools9tt_detail10equal_implImiEENS0_16assertion_resultERKT_RKT0_
FNL:1,128,131
FNA:1,2,_ZNK5boost10test_tools9tt_detail15equal_impl_frwd9call_implINSt7__cxx1112basic_stringIcSt11char_traitsIcESaIcEEEA2_cEENS0_16assertion_resultERKT_RKT0_N4mpl_5bool_ILb0EEE
FNA:1,8,_ZNK5boost10test_tools9tt_detail15equal_impl_frwd9call_implINSt7__cxx1112basic_stringIcSt11char_traitsIcESaIcEEEA4_cEENS0_16assertion_resultERKT_RKT0_N4mpl_5bool_ILb0EEE
FNA:1,1,_ZNK5boost10test_tools9tt_detail15equal_impl_frwd9call_implINSt7__cxx1112basic_stringIcSt11char_traitsIcESaIcEEEA5_cEENS0_16assertion_resultERKT_RKT0_N4mpl_5bool_ILb0EEE
FNA:1,15,_ZNK5boost10test_tools9tt_detail15equal_impl_frwd9call_implINSt7__cxx1112basic_stringIcSt11char_traitsIcESaIcEEEA6_cEENS0_16assertion_resultERKT_RKT0_N4mpl_5bool_ILb0EEE
FNA:1,9,_ZNK5boost10test_tools9tt_detail15equal_impl_frwd9call_implINSt7__cxx1112basic_stringIcSt11char_traitsIcESaIcEEEA7_cEENS0_16assertion_resultERKT_RKT0_N4mpl_5bool_ILb0EEE
FNA:1,1,_ZNK5boost10test_tools9tt_detail15equal_impl_frwd9call_implINSt7__cxx1112basic_stringIcSt11char_traitsIcESaIcEEEA9_cEENS0_16assertion_resultERKT_RKT0_N4mpl_5bool_ILb0EEE
FNA:1,26,_ZNK5boost10test_tools9tt_detail15equal_impl_frwd9call_implIiiEENS0_16assertion_resultERKT_RKT0_N4mpl_5bool_ILb0EEE
FNA:1,18,_ZNK5boost10test_tools9tt_detail15equal_impl_frwd9call_implImiEENS0_16assertion_resultERKT_RKT0_N4mpl_5bool_ILb0EEE
FNL:2,142,146
FNA:2,2,_ZNK5boost10test_tools9tt_detail15equal_impl_frwdclINSt7__cxx1112basic_stringIcSt11char_traitsIcESaIcEEEA2_cEENS0_16assertion_resultERKT_RKT0_
FNA:2,8,_ZNK5boost10test_tools9tt_detail15equal_impl_frwdclINSt7__cxx1112basic_stringIcSt11char_traitsIcESaIcEEEA4_cEENS0_16assertion_resultERKT_RKT0_
FNA:2,1,_ZNK5boost10test_tools9tt_detail15equal_impl_frwdclINSt7__cxx1112basic_stringIcSt11char_traitsIcESaIcEEEA5_cEENS0_16assertion_resultERKT_RKT0_
FNA:2,15,_ZNK5boost10test_tools9tt_detail15equal_impl_frwdclINSt7__cxx1112basic_stringIcSt11char_traitsIcESaIcEEEA6_cEENS0_16assertion_resultERKT_RKT0_
FNA:2,9,_ZNK5boost10test_tools9tt_detail15equal_impl_frwdclINSt7__cxx1112basic_stringIcSt11char_traitsIcESaIcEEEA7_cEENS0_16assertion_resultERKT_RKT0_
FNA:2,1,_ZNK5boost10test_tools9tt_detail15equal_impl_frwdclINSt7__cxx1112basic_stringIcSt11char_traitsIcESaIcEEEA9_cEENS0_16assertion_resultERKT_RKT0_
FNA:2,26,_ZNK5boost10test_tools9tt_detail15equal_impl_frwdclIiiEENS0_16assertion_resultERKT_RKT0_
FNA:2,18,_ZNK5boost10test_tools9tt_detail15equal_impl_frwdclImiEENS0_16assertion_resultERKT_RKT0_
FNL:3,92,92
FNA:3,2,_ZN5boost10test_tools9tt_detail10check_frwdINS1_15equal_impl_frwdENSt7__cxx1112basic_stringIcSt11char_traitsIcESaIcEEEA2_cEEbT_RKNS_9unit_test12lazy_ostreamENSC_13basic_cstringIKcEEmNS1_10tool_levelENS1_10check_typeERKT0_PSH_RKT1_SO_
FNA:3,8,_ZN5boost10test_tools9tt_detail10check_frwdINS1_15equal_impl_frwdENSt7__cxx1112basic_stringIcSt11char_traitsIcESaIcEEEA4_cEEbT_RKNS_9unit_test12lazy_ostreamENSC_13basic_cstringIKcEEmNS1_10tool_levelENS1_10check_typeERKT0_PSH_RKT1_SO_
FNA:3,1,_ZN5boost10test_tools9tt_detail10check_frwdINS1_15equal_impl_frwdENSt7__cxx1112basic_stringIcSt11char_traitsIcESaIcEEEA5_cEEbT_RKNS_9unit_test12lazy_ostreamENSC_13basic_cstringIKcEEmNS1_10tool_levelENS1_10check_typeERKT0_PSH_RKT1_SO_
FNA:3,15,_ZN5boost10test_tools9tt_detail10check_frwdINS1_15equal_impl_frwdENSt7__cxx1112basic_stringIcSt11char_traitsIcESaIcEEEA6_cEEbT_RKNS_9unit_test12lazy_ostreamENSC_13basic_cstringIKcEEmNS1_10tool_levelENS1_10check_typeERKT0_PSH_RKT1_SO_
FNA:3,9,_ZN5boost10test_tools9tt_detail10check_frwdINS1_15equal_impl_frwdENSt7__cxx1112basic_stringIcSt11char_traitsIcESaIcEEEA7_cEEbT_RKNS_9unit_test12lazy_ostreamENSC_13basic_cstringIKcEEmNS1_10tool_levelENS1_10check_typeERKT0_PSH_RKT1_SO_
FNA:3,1,_ZN5boost10test_tools9tt_detail10check_frwdINS1_15equal_impl_frwdENSt7__cxx1112basic_stringIcSt11char_traitsIcESaIcEEEA9_cEEbT_RKNS_9unit_test12lazy_ostreamENSC_13basic_cstringIKcEEmNS1_10tool_levelENS1_10check_typeERKT0_PSH_RKT1_SO_
FNA:3,26,_ZN5boost10test_tools9tt_detail10check_frwdINS1_15equal_impl_frwdEiiEEbT_RKNS_9unit_test12lazy_ostreamENS5_13basic_cstringIKcEEmNS1_10tool_levelENS1_10check_typeERKT0_PSA_RKT1_SH_
FNA:3,18,_ZN5boost10test_tools9tt_detail10check_frwdINS1_15equal_impl_frwdEmiEEbT_RKNS_9unit_test12lazy_ostreamENS5_13basic_cstringIKcEEmNS1_10tool_levelENS1_10check_typeERKT0_PSA_RKT1_SH_
FNF:4
FNH:4
DA:92,80
DA:105,80
DA:107,80
DA:128,80
DA:130,80
DA:142,80
DA:145,80
LF:7
LH:7
end_of_record
TN:
SF:/usr/include/boost/test/tools/output_test_stream.hpp
FNF:0
FNH:0
LF:0
LH:0
end_of_record
TN:
SF:/usr/include/boost/test/tree/decorator.hpp
FNL:0,111,111
FNA:0,0,_ZN5boost9unit_test9decorator15stack_decoratorC2Ev
FNL:1,118,118
FNA:1,0,_ZNK5boost9unit_test9decorator15stack_decorator5cloneEv
FNL:2,127,127
FNA:2,0,_ZN5boost9unit_test9decorator5labelC2ENS0_13basic_cstringIKcEE
FNL:3,132,132
FNA:3,0,_ZNK5boost9unit_test9decorator5label5cloneEv
FNL:4,144,144
FNA:4,0,_ZN5boost9unit_test9decorator17expected_failuresC2Em
FNL:5,149,149
FNA:5,0,_ZNK5boost9unit_test9decorator17expected_failures5cloneEv
FNL:6,161,161
FNA:6,0,_ZN5boost9unit_test9decorator7timeoutC2Ej
FNL:7,166,166
FNA:7,0,_ZNK5boost9unit_test9decorator7timeout5cloneEv
FNL:8,178,178
FNA:8,0,_ZN5boost9unit_test9decorator11descriptionC2ENS0_13basic_cstringIKcEE
FNL:9,183,183
FNA:9,0,_ZNK5boost9unit_test9decorator11description5cloneEv
FNL:10,195,195
FNA:10,0,_ZN5boost9unit_test9decorator10depends_onC2ENS0_13basic_cstringIKcEE
FNL:11,200,200
FNA:11,0,_ZNK5boost9unit_test9decorator10depends_on5cloneEv
FNL:12,233,233
FNA:12,0,_ZN5boost9unit_test9decorator9fixture_tC2ENS_10shared_ptrINS0_17test_unit_fixtureEEE
FNL:13,238,238
FNA:13,0,_ZNK5boost9unit_test9decorator9fixture_t5cloneEv
FNL:14,280,280
FNA:14,0,_ZN5boost9unit_test9decorator12preconditionC2ENS_8functionIFNS_10test_tools16assertion_resultEmEEE
FNL:15,285,285
FNA:15,0,_ZNK5boost9unit_test9decorator12precondition5cloneEv
FNL:16,67,67
FNA:16,1,_ZN5boost9unit_test9decorator11collector_tD2Ev
FNL:17,71,71
FNA:17,1,_ZN5boost9unit_test9decorator11collector_tC2Ev
FNL:18,94,94
FNA:18,0,_ZN5boost9unit_test9decorator4baseD0Ev
FNA:18,0,_ZN5boost9unit_test9decorator4baseD2Ev
FNF:19
FNH:2
DA:67,1
DA:71,3
DA:94,0
DA:111,0
DA:118,0
DA:127,0
DA:132,0
DA:144,0
DA:149,0
DA:161,0
DA:166,0
DA:178,0
DA:183,0
DA:195,0
DA:200,0
DA:233,0
DA:238,0
DA:280,0
DA:285,0
LF:19
LH:2
end_of_record
TN:
SF:/usr/include/boost/test/tree/fixture.hpp
FNL:0,104,104
FNA:0,1,_ZN5boost9unit_test12impl_fixture13call_teardownILb0EEclIN10ArrayTests11ArrayExtendEEEvRT_
FNA:0,1,_ZN5boost9unit_test12impl_fixture13call_teardownILb0EEclIN10ArrayTests11ArraySearchEEEvRT_
FNA:0,1,_ZN5boost9unit_test12impl_fixture13call_teardownILb0EEclIN10ArrayTests12ArrayGetHeadEEEvRT_
FNA:0,1,_ZN5boost9unit_test12impl_fixture13call_teardownILb0EEclIN10ArrayTests15ArrayExceptionsEEEvRT_
FNA:0,1,_ZN5boost9unit_test12impl_fixture13call_teardownILb0EEclIN10ArrayTests15ArraySetElementEEEvRT_
FNA:0,1,_ZN5boost9unit_test12impl_fixture13call_teardownILb0EEclIN10ArrayTests17ArrayAddAndDeleteEEEvRT_
FNA:0,1,_ZN5boost9unit_test12impl_fixture13call_teardownILb0EEclIN10ArrayTests22ArrayStringConstructorEEEvRT_
FNA:0,1,_ZN5boost9unit_test12impl_fixture13call_teardownILb0EEclIN10ArrayTests34ArrayConstructorAndBasicOperationsEEEvRT_
FNA:0,1,_ZN5boost9unit_test12impl_fixture13call_teardownILb0EEclIN10QueueTests11QueueDeleteEEEvRT_
FNA:0,1,_ZN5boost9unit_test12impl_fixture13call_teardownILb0EEclIN10QueueTests12QueueGetHeadEEEvRT_
FNA:0,1,_ZN5boost9unit_test12impl_fixture13call_teardownILb0EEclIN10QueueTests14QueueEdgeCasesEEEvRT_
FNA:0,1,_ZN5boost9unit_test12impl_fixture13call_teardownILb0EEclIN10QueueTests15QueueExceptionsEEEvRT_
FNA:0,1,_ZN5boost9unit_test12impl_fixture13call_teardownILb0EEclIN10QueueTests19QueueEnqueueDequeueEEEvRT_
FNA:0,1,_ZN5boost9unit_test12impl_fixture13call_teardownILb0EEclIN10StackTests12StackPushPopEEEvRT_
FNA:0,1,_ZN5boost9unit_test12impl_fixture13call_teardownILb0EEclIN10StackTests20StackEmptyOperationsEEEvRT_
FNA:0,1,_ZN5boost9unit_test12impl_fixture13call_teardownILb0EEclIN10StackTests22StackOverflowUnderflowEEEvRT_
FNA:0,1,_ZN5boost9unit_test12impl_fixture13call_teardownILb0EEclIN11RBTreeTests18RBTreeRootDeletionEEEvRT_
FNA:0,1,_ZN5boost9unit_test12impl_fixture13call_teardownILb0EEclIN11RBTreeTests21RBTreeDuplicateInsertEEEvRT_
FNA:0,1,_ZN5boost9unit_test12impl_fixture13call_teardownILb0EEclIN11RBTreeTests21RBTreeEmptyOperationsEEEvRT_
FNA:0,1,_ZN5boost9unit_test12impl_fixture13call_teardownILb0EEclIN11RBTreeTests21firstFixViolationTestEEEvRT_
FNA:0,1,_ZN5boost9unit_test12impl_fixture13call_teardownILb0EEclIN11RBTreeTests21sixthFixViolationTestEEEvRT_
FNA:0,1,_ZN5boost9unit_test12impl_fixture13call_teardownILb0EEclIN11RBTreeTests21thirdFixViolationTestEEEvRT_
FNA:0,1,_ZN5boost9unit_test12impl_fixture13call_teardownILb0EEclIN11RBTreeTests22secondFixViolationTestEEEvRT_
FNA:0,1,_ZN5boost9unit_test12impl_fixture13call_teardownILb0EEclIN11RBTreeTests23RBTreeComplexOperationsEEEvRT_
FNA:0,1,_ZN5boost9unit_test12impl_fixture13call_teardownILb0EEclIN11RBTreeTests30RBTreeComplexDeletionScenariosEEEvRT_
FNA:0,1,_ZN5boost9unit_test12impl_fixture13call_teardownILb0EEclIN13ChainMapTests14ChainMapDeleteEEEvRT_
FNA:0,1,_ZN5boost9unit_test12impl_fixture13call_teardownILb0EEclIN13ChainMapTests14ChainMapRehashEEEvRT_
FNA:0,1,_ZN5boost9unit_test12impl_fixture13call_teardownILb0EEclIN13ChainMapTests15ChainMapAddFindEEEvRT_
FNA:0,1,_ZN5boost9unit_test12impl_fixture13call_teardownILb0EEclIN13ChainMapTests18ChainMapExceptionsEEEvRT_
FNA:0,1,_ZN5boost9unit_test12impl_fixture13call_teardownILb0EEclIN13ChainMapTests18ChainMapGetAllKeysEEEvRT_
FNA:0,1,_ZN5boost9unit_test12impl_fixture13call_teardownILb0EEclIN13ChainMapTests19ChainMapUpdateValueEEEvRT_
FNA:0,1,_ZN5boost9unit_test12impl_fixture13call_teardownILb0EEclIN13ChainMapTests21ChainMapPrintContentsEEEvRT_
FNA:0,1,_ZN5boost9unit_test12impl_fixture13call_teardownILb0EEclIN15DoubleListTests19DoubleListEdgeCasesEEEvRT_
FNA:0,1,_ZN5boost9unit_test12impl_fixture13call_teardownILb0EEclIN15DoubleListTests20DoubleListExceptionsEEEvRT_
FNA:0,1,_ZN5boost9unit_test12impl_fixture13call_teardownILb0EEclIN15DoubleListTests20DoubleListFindAndPopEEEvRT_
FNA:0,1,_ZN5boost9unit_test12impl_fixture13call_teardownILb0EEclIN15DoubleListTests22DoubleListAddAndRemoveEEEvRT_
FNA:0,1,_ZN5boost9unit_test12impl_fixture13call_teardownILb0EEclIN15DoubleListTests23DoubleListDeleteByValueEEEvRT_
FNA:0,1,_ZN5boost9unit_test12impl_fixture13call_teardownILb0EEclIN15DoubleListTests24DoubleListAddBeforeAfterEEEvRT_
FNA:0,1,_ZN5boost9unit_test12impl_fixture13call_teardownILb0EEclIN15DoubleListTests27DoubleListFromTailTraversalEEEvRT_
FNA:0,1,_ZN5boost9unit_test12impl_fixture13call_teardownILb0EEclIN16ForwardListTests15ForwardListFindEEEvRT_
FNA:0,1,_ZN5boost9unit_test12impl_fixture13call_teardownILb0EEclIN16ForwardListTests21ForwardListExceptionsEEEvRT_
FNA:0,1,_ZN5boost9unit_test12impl_fixture13call_teardownILb0EEclIN16ForwardListTests22ForwardListRemoveAfterEEEvRT_
FNA:0,1,_ZN5boost9unit_test12impl_fixture13call_teardownILb0EEclIN16ForwardListTests23ForwardListInsertRemoveEEEvRT_
FNA:0,1,_ZN5boost9unit_test12impl_fixture13call_teardownILb0EEclIN16ForwardListTests26ForwardListBasicOperationsEEEvRT_
FNA:0,1,_ZN5boost9unit_test12impl_fixture13call_teardownILb0EEclIN16ForwardListTests26ForwardListEmptyOperationsEEEvRT_
FNL:1,112,114
FNA:1,1,_ZN5boost9unit_test17setup_conditionalIN10ArrayTests11ArrayExtendEEEvRT_
FNA:1,1,_ZN5boost9unit_test17setup_conditionalIN10ArrayTests11ArraySearchEEEvRT_
FNA:1,1,_ZN5boost9unit_test17setup_conditionalIN10ArrayTests12ArrayGetHeadEEEvRT_
FNA:1,1,_ZN5boost9unit_test17setup_conditionalIN10ArrayTests15ArrayExceptionsEEEvRT_
FNA:1,1,_ZN5boost9unit_test17setup_conditionalIN10ArrayTests15ArraySetElementEEEvRT_
FNA:1,1,_ZN5boost9unit_test17setup_conditionalIN10ArrayTests17ArrayAddAndDeleteEEEvRT_
FNA:1,1,_ZN5boost9unit_test17setup_conditionalIN10ArrayTests22ArrayStringConstructorEEEvRT_
FNA:1,1,_ZN5boost9unit_test17setup_conditionalIN10ArrayTests34ArrayConstructorAndBasicOperationsEEEvRT_
FNA:1,1,_ZN5boost9unit_test17setup_conditionalIN10QueueTests11QueueDeleteEEEvRT_
FNA:1,1,_ZN5boost9unit_test17setup_conditionalIN10QueueTests12QueueGetHeadEEEvRT_
FNA:1,1,_ZN5boost9unit_test17setup_conditionalIN10QueueTests14QueueEdgeCasesEEEvRT_
FNA:1,1,_ZN5boost9unit_test17setup_conditionalIN10QueueTests15QueueExceptionsEEEvRT_
FNA:1,1,_ZN5boost9unit_test17setup_conditionalIN10QueueTests19QueueEnqueueDequeueEEEvRT_
FNA:1,1,_ZN5boost9unit_test17setup_conditionalIN10StackTests12StackPushPopEEEvRT_
FNA:1,1,_ZN5boost9unit_test17setup_conditionalIN10StackTests20StackEmptyOperationsEEEvRT_
FNA:1,1,_ZN5boost9unit_test17setup_conditionalIN10StackTests22StackOverflowUnderflowEEEvRT_
FNA:1,1,_ZN5boost9unit_test17setup_conditionalIN11RBTreeTests18RBTreeRootDeletionEEEvRT_
FNA:1,1,_ZN5boost9unit_test17setup_conditionalIN11RBTreeTests21RBTreeDuplicateInsertEEEvRT_
FNA:1,1,_ZN5boost9unit_test17setup_conditionalIN11RBTreeTests21RBTreeEmptyOperationsEEEvRT_
FNA:1,1,_ZN5boost9unit_test17setup_conditionalIN11RBTreeTests21firstFixViolationTestEEEvRT_
FNA:1,1,_ZN5boost9unit_test17setup_conditionalIN11RBTreeTests21sixthFixViolationTestEEEvRT_
FNA:1,1,_ZN5boost9unit_test17setup_conditionalIN11RBTreeTests21thirdFixViolationTestEEEvRT_
FNA:1,1,_ZN5boost9unit_test17setup_conditionalIN11RBTreeTests22secondFixViolationTestEEEvRT_
FNA:1,1,_ZN5boost9unit_test17setup_conditionalIN11RBTreeTests23RBTreeComplexOperationsEEEvRT_
FNA:1,1,_ZN5boost9unit_test17setup_conditionalIN11RBTreeTests30RBTreeComplexDeletionScenariosEEEvRT_
FNA:1,1,_ZN5boost9unit_test17setup_conditionalIN13ChainMapTests14ChainMapDeleteEEEvRT_
FNA:1,1,_ZN5boost9unit_test17setup_conditionalIN13ChainMapTests14ChainMapRehashEEEvRT_
FNA:1,1,_ZN5boost9unit_test17setup_conditionalIN13ChainMapTests15ChainMapAddFindEEEvRT_
FNA:1,1,_ZN5boost9unit_test17setup_conditionalIN13ChainMapTests18ChainMapExceptionsEEEvRT_
FNA:1,1,_ZN5boost9unit_test17setup_conditionalIN13ChainMapTests18ChainMapGetAllKeysEEEvRT_
FNA:1,1,_ZN5boost9unit_test17setup_conditionalIN13ChainMapTests19ChainMapUpdateValueEEEvRT_
FNA:1,1,_ZN5boost9unit_test17setup_conditionalIN13ChainMapTests21ChainMapPrintContentsEEEvRT_
FNA:1,1,_ZN5boost9unit_test17setup_conditionalIN15DoubleListTests19DoubleListEdgeCasesEEEvRT_
FNA:1,1,_ZN5boost9unit_test17setup_conditionalIN15DoubleListTests20DoubleListExceptionsEEEvRT_
FNA:1,1,_ZN5boost9unit_test17setup_conditionalIN15DoubleListTests20DoubleListFindAndPopEEEvRT_
FNA:1,1,_ZN5boost9unit_test17setup_conditionalIN15DoubleListTests22DoubleListAddAndRemoveEEEvRT_
FNA:1,1,_ZN5boost9unit_test17setup_conditionalIN15DoubleListTests23DoubleListDeleteByValueEEEvRT_
FNA:1,1,_ZN5boost9unit_test17setup_conditionalIN15DoubleListTests24DoubleListAddBeforeAfterEEEvRT_
FNA:1,1,_ZN5boost9unit_test17setup_conditionalIN15DoubleListTests27DoubleListFromTailTraversalEEEvRT_
FNA:1,1,_ZN5boost9unit_test17setup_conditionalIN16ForwardListTests15ForwardListFindEEEvRT_
FNA:1,1,_ZN5boost9unit_test17setup_conditionalIN16ForwardListTests21ForwardListExceptionsEEEvRT_
FNA:1,1,_ZN5boost9unit_test17setup_conditionalIN16ForwardListTests22ForwardListRemoveAfterEEEvRT_
FNA:1,1,_ZN5boost9unit_test17setup_conditionalIN16ForwardListTests23ForwardListInsertRemoveEEEvRT_
FNA:1,1,_ZN5boost9unit_test17setup_conditionalIN16ForwardListTests26ForwardListBasicOperationsEEEvRT_
FNA:1,1,_ZN5boost9unit_test17setup_conditionalIN16ForwardListTests26ForwardListEmptyOperationsEEEvRT_
FNL:2,118,120
FNA:2,1,_ZN5boost9unit_test20teardown_conditionalIN10ArrayTests11ArrayExtendEEEvRT_
FNA:2,1,_ZN5boost9unit_test20teardown_conditionalIN10ArrayTests11ArraySearchEEEvRT_
FNA:2,1,_ZN5boost9unit_test20teardown_conditionalIN10ArrayTests12ArrayGetHeadEEEvRT_
FNA:2,1,_ZN5boost9unit_test20teardown_conditionalIN10ArrayTests15ArrayExceptionsEEEvRT_
FNA:2,1,_ZN5boost9unit_test20teardown_conditionalIN10ArrayTests15ArraySetElementEEEvRT_
FNA:2,1,_ZN5boost9unit_test20teardown_conditionalIN10ArrayTests17ArrayAddAndDeleteEEEvRT_
FNA:2,1,_ZN5boost9unit_test20teardown_conditionalIN10ArrayTests22ArrayStringConstructorEEEvRT_
FNA:2,1,_ZN5boost9unit_test20teardown_conditionalIN10ArrayTests34ArrayConstructorAndBasicOperationsEEEvRT_
FNA:2,1,_ZN5boost9unit_test20teardown_conditionalIN10QueueTests11QueueDeleteEEEvRT_
FNA:2,1,_ZN5boost9unit_test20teardown_conditionalIN10QueueTests12QueueGetHeadEEEvRT_
FNA:2,1,_ZN5boost9unit_test20teardown_conditionalIN10QueueTests14QueueEdgeCasesEEEvRT_
FNA:2,1,_ZN5boost9unit_test20teardown_conditionalIN10QueueTests15QueueExceptionsEEEvRT_
FNA:2,1,_ZN5boost9unit_test20teardown_conditionalIN10QueueTests19QueueEnqueueDequeueEEEvRT_
FNA:2,1,_ZN5boost9unit_test20teardown_conditionalIN10StackTests12StackPushPopEEEvRT_
FNA:2,1,_ZN5boost9unit_test20teardown_conditionalIN10StackTests20StackEmptyOperationsEEEvRT_
FNA:2,1,_ZN5boost9unit_test20teardown_conditionalIN10StackTests22StackOverflowUnderflowEEEvRT_
FNA:2,1,_ZN5boost9unit_test20teardown_conditionalIN11RBTreeTests18RBTreeRootDeletionEEEvRT_
FNA:2,1,_ZN5boost9unit_test20teardown_conditionalIN11RBTreeTests21RBTreeDuplicateInsertEEEvRT_
FNA:2,1,_ZN5boost9unit_test20teardown_conditionalIN11RBTreeTests21RBTreeEmptyOperationsEEEvRT_
FNA:2,1,_ZN5boost9unit_test20teardown_conditionalIN11RBTreeTests21firstFixViolationTestEEEvRT_
FNA:2,1,_ZN5boost9unit_test20teardown_conditionalIN11RBTreeTests21sixthFixViolationTestEEEvRT_
FNA:2,1,_ZN5boost9unit_test20teardown_conditionalIN11RBTreeTests21thirdFixViolationTestEEEvRT_
FNA:2,1,_ZN5boost9unit_test20teardown_conditionalIN11RBTreeTests22secondFixViolationTestEEEvRT_
FNA:2,1,_ZN5boost9unit_test20teardown_conditionalIN11RBTreeTests23RBTreeComplexOperationsEEEvRT_
FNA:2,1,_ZN5boost9unit_test20teardown_conditionalIN11RBTreeTests30RBTreeComplexDeletionScenariosEEEvRT_
FNA:2,1,_ZN5boost9unit_test20teardown_conditionalIN13ChainMapTests14ChainMapDeleteEEEvRT_
FNA:2,1,_ZN5boost9unit_test20teardown_conditionalIN13ChainMapTests14ChainMapRehashEEEvRT_
FNA:2,1,_ZN5boost9unit_test20teardown_conditionalIN13ChainMapTests15ChainMapAddFindEEEvRT_
FNA:2,1,_ZN5boost9unit_test20teardown_conditionalIN13ChainMapTests18ChainMapExceptionsEEEvRT_
FNA:2,1,_ZN5boost9unit_test20teardown_conditionalIN13ChainMapTests18ChainMapGetAllKeysEEEvRT_
FNA:2,1,_ZN5boost9unit_test20teardown_conditionalIN13ChainMapTests19ChainMapUpdateValueEEEvRT_
FNA:2,1,_ZN5boost9unit_test20teardown_conditionalIN13ChainMapTests21ChainMapPrintContentsEEEvRT_
FNA:2,1,_ZN5boost9unit_test20teardown_conditionalIN15DoubleListTests19DoubleListEdgeCasesEEEvRT_
FNA:2,1,_ZN5boost9unit_test20teardown_conditionalIN15DoubleListTests20DoubleListExceptionsEEEvRT_
FNA:2,1,_ZN5boost9unit_test20teardown_conditionalIN15DoubleListTests20DoubleListFindAndPopEEEvRT_
FNA:2,1,_ZN5boost9unit_test20teardown_conditionalIN15DoubleListTests22DoubleListAddAndRemoveEEEvRT_
FNA:2,1,_ZN5boost9unit_test20teardown_conditionalIN15DoubleListTests23DoubleListDeleteByValueEEEvRT_
FNA:2,1,_ZN5boost9unit_test20teardown_conditionalIN15DoubleListTests24DoubleListAddBeforeAfterEEEvRT_
FNA:2,1,_ZN5boost9unit_test20teardown_conditionalIN15DoubleListTests27DoubleListFromTailTraversalEEEvRT_
FNA:2,1,_ZN5boost9unit_test20teardown_conditionalIN16ForwardListTests15ForwardListFindEEEvRT_
FNA:2,1,_ZN5boost9unit_test20teardown_conditionalIN16ForwardListTests21ForwardListExceptionsEEEvRT_
FNA:2,1,_ZN5boost9unit_test20teardown_conditionalIN16ForwardListTests22ForwardListRemoveAfterEEEvRT_
FNA:2,1,_ZN5boost9unit_test20teardown_conditionalIN16ForwardListTests23ForwardListInsertRemoveEEEvRT_
FNA:2,1,_ZN5boost9unit_test20teardown_conditionalIN16ForwardListTests26ForwardListBasicOperationsEEEvRT_
FNA:2,1,_ZN5boost9unit_test20teardown_conditionalIN16ForwardListTests26ForwardListEmptyOperationsEEEvRT_
FNL:3,37,37
FNA:3,0,_ZN5boost9unit_test17test_unit_fixtureD0Ev
FNA:3,0,_ZN5boost9unit_test17test_unit_fixtureD2Ev
FNL:4,98,98
FNA:4,1,_ZN5boost9unit_test12impl_fixture10call_setupILb0EEclIN10ArrayTests11ArrayExtendEEEvRT_
FNA:4,1,_ZN5boost9unit_test12impl_fixture10call_setupILb0EEclIN10ArrayTests11ArraySearchEEEvRT_
FNA:4,1,_ZN5boost9unit_test12impl_fixture10call_setupILb0EEclIN10ArrayTests12ArrayGetHeadEEEvRT_
FNA:4,1,_ZN5boost9unit_test12impl_fixture10call_setupILb0EEclIN10ArrayTests15ArrayExceptionsEEEvRT_
FNA:4,1,_ZN5boost9unit_test12impl_fixture10call_setupILb0EEclIN10ArrayTests15ArraySetElementEEEvRT_
FNA:4,1,_ZN5boost9unit_test12impl_fixture10call_setupILb0EEclIN10ArrayTests17ArrayAddAndDeleteEEEvRT_
FNA:4,1,_ZN5boost9unit_test12impl_fixture10call_setupILb0EEclIN10ArrayTests22ArrayStringConstructorEEEvRT_
FNA:4,1,_ZN5boost9unit_test12impl_fixture10call_setupILb0EEclIN10ArrayTests34ArrayConstructorAndBasicOperationsEEEvRT_
FNA:4,1,_ZN5boost9unit_test12impl_fixture10call_setupILb0EEclIN10QueueTests11QueueDeleteEEEvRT_
FNA:4,1,_ZN5boost9unit_test12impl_fixture10call_setupILb0EEclIN10QueueTests12QueueGetHeadEEEvRT_
FNA:4,1,_ZN5boost9unit_test12impl_fixture10call_setupILb0EEclIN10QueueTests14QueueEdgeCasesEEEvRT_
FNA:4,1,_ZN5boost9unit_test12impl_fixture10call_setupILb0EEclIN10QueueTests15QueueExceptionsEEEvRT_
FNA:4,1,_ZN5boost9unit_test12impl_fixture10call_setupILb0EEclIN10QueueTests19QueueEnqueueDequeueEEEvRT_
FNA:4,1,_ZN5boost9unit_test12impl_fixture10call_setupILb0EEclIN10StackTests12StackPushPopEEEvRT_
FNA:4,1,_ZN5boost9unit_test12impl_fixture10call_setupILb0EEclIN10StackTests20StackEmptyOperationsEEEvRT_
FNA:4,1,_ZN5boost9unit_test12impl_fixture10call_setupILb0EEclIN10StackTests22StackOverflowUnderflowEEEvRT_
FNA:4,1,_ZN5boost9unit_test12impl_fixture10call_setupILb0EEclIN11RBTreeTests18RBTreeRootDeletionEEEvRT_
FNA:4,1,_ZN5boost9unit_test12impl_fixture10call_setupILb0EEclIN11RBTreeTests21RBTreeDuplicateInsertEEEvRT_
FNA:4,1,_ZN5boost9unit_test12impl_fixture10call_setupILb0EEclIN11RBTreeTests21RBTreeEmptyOperationsEEEvRT_
FNA:4,1,_ZN5boost9unit_test12impl_fixture10call_setupILb0EEclIN11RBTreeTests21firstFixViolationTestEEEvRT_
FNA:4,1,_ZN5boost9unit_test12impl_fixture10call_setupILb0EEclIN11RBTreeTests21sixthFixViolationTestEEEvRT_
FNA:4,1,_ZN5boost9unit_test12impl_fixture10call_setupILb0EEclIN11RBTreeTests21thirdFixViolationTestEEEvRT_
FNA:4,1,_ZN5boost9unit_test12impl_fixture10call_setupILb0EEclIN11RBTreeTests22secondFixViolationTestEEEvRT_
FNA:4,1,_ZN5boost9unit_test12impl_fixture10call_setupILb0EEclIN11RBTreeTests23RBTreeComplexOperationsEEEvRT_
FNA:4,1,_ZN5boost9unit_test12impl_fixture10call_setupILb0EEclIN11RBTreeTests30RBTreeComplexDeletionScenariosEEEvRT_
FNA:4,1,_ZN5boost9unit_test12impl_fixture10call_setupILb0EEclIN13ChainMapTests14ChainMapDeleteEEEvRT_
FNA:4,1,_ZN5boost9unit_test12impl_fixture10call_setupILb0EEclIN13ChainMapTests14ChainMapRehashEEEvRT_
FNA:4,1,_ZN5boost9unit_test12impl_fixture10call_setupILb0EEclIN13ChainMapTests15ChainMapAddFindEEEvRT_
FNA:4,1,_ZN5boost9unit_test12impl_fixture10call_setupILb0EEclIN13ChainMapTests18ChainMapExceptionsEEEvRT_
FNA:4,1,_ZN5boost9unit_test12impl_fixture10call_setupILb0EEclIN13ChainMapTests18ChainMapGetAllKeysEEEvRT_
FNA:4,1,_ZN5boost9unit_test12impl_fixture10call_setupILb0EEclIN13ChainMapTests19ChainMapUpdateValueEEEvRT_
FNA:4,1,_ZN5boost9unit_test12impl_fixture10call_setupILb0EEclIN13ChainMapTests21ChainMapPrintContentsEEEvRT_
FNA:4,1,_ZN5boost9unit_test12impl_fixture10call_setupILb0EEclIN15DoubleListTests19DoubleListEdgeCasesEEEvRT_
FNA:4,1,_ZN5boost9unit_test12impl_fixture10call_setupILb0EEclIN15DoubleListTests20DoubleListExceptionsEEEvRT_
FNA:4,1,_ZN5boost9unit_test12impl_fixture10call_setupILb0EEclIN15DoubleListTests20DoubleListFindAndPopEEEvRT_
FNA:4,1,_ZN5boost9unit_test12impl_fixture10call_setupILb0EEclIN15DoubleListTests22DoubleListAddAndRemoveEEEvRT_
FNA:4,1,_ZN5boost9unit_test12impl_fixture10call_setupILb0EEclIN15DoubleListTests23DoubleListDeleteByValueEEEvRT_
FNA:4,1,_ZN5boost9unit_test12impl_fixture10call_setupILb0EEclIN15DoubleListTests24DoubleListAddBeforeAfterEEEvRT_
FNA:4,1,_ZN5boost9unit_test12impl_fixture10call_setupILb0EEclIN15DoubleListTests27DoubleListFromTailTraversalEEEvRT_
FNA:4,1,_ZN5boost9unit_test12impl_fixture10call_setupILb0EEclIN16ForwardListTests15ForwardListFindEEEvRT_
FNA:4,1,_ZN5boost9unit_test12impl_fixture10call_setupILb0EEclIN16ForwardListTests21ForwardListExceptionsEEEvRT_
FNA:4,1,_ZN5boost9unit_test12impl_fixture10call_setupILb0EEclIN16ForwardListTests22ForwardListRemoveAfterEEEvRT_
FNA:4,1,_ZN5boost9unit_test12impl_fixture10call_setupILb0EEclIN16ForwardListTests23ForwardListInsertRemoveEEEvRT_
FNA:4,1,_ZN5boost9unit_test12impl_fixture10call_setupILb0EEclIN16ForwardListTests26ForwardListBasicOperationsEEEvRT_
FNA:4,1,_ZN5boost9unit_test12impl_fixture10call_setupILb0EEclIN16ForwardListTests26ForwardListEmptyOperationsEEEvRT_
FNF:5
FNH:4
DA:37,0
DA:98,45
DA:104,45
DA:112,45
DA:113,45
DA:118,45
DA:119,45
LF:7
LH:6
end_of_record
TN:
SF:/usr/include/boost/test/tree/global_fixture.hpp
FNL:0,49,49
FNA:0,0,_ZN5boost9unit_test20global_configuration8priorityEv
FNF:1
FNH:0
DA:49,0
LF:1
LH:0
end_of_record
TN:
SF:/usr/include/boost/test/tree/observer.hpp
FNL:0,102,102
FNA:0,0,_ZN5boost9unit_test13test_observer8priorityEv
FNL:1,106,106
FNA:1,0,_ZN5boost9unit_test13test_observerD0Ev
FNA:1,4,_ZN5boost9unit_test13test_observerD2Ev
FNL:2,48,48
FNA:2,0,_ZN5boost9unit_test13test_observer10test_startEmm
FNL:3,53,53
FNA:3,2,_ZN5boost9unit_test13test_observer11test_finishEv
FNL:4,62,62
FNA:4,0,_ZN5boost9unit_test13test_observer12test_abortedEv
FNL:5,67,67
FNA:5,0,_ZN5boost9unit_test13test_observer15test_unit_startERKNS0_9test_unitE
FNL:6,72,72
FNA:6,0,_ZN5boost9unit_test13test_observer16test_unit_finishERKNS0_9test_unitEm
FNL:7,73,73
FNA:7,0,_ZN5boost9unit_test13test_observer17test_unit_skippedERKNS0_9test_unitENS0_13basic_cstringIKcEE
FNL:8,74,74
FNA:8,0,_ZN5boost9unit_test13test_observer17test_unit_skippedERKNS0_9test_unitE
FNL:9,80,80
FNA:9,0,_ZN5boost9unit_test13test_observer19test_unit_timed_outERKNS0_9test_unitE
FNL:10,87,87
FNA:10,0,_ZN5boost9unit_test13test_observer17test_unit_abortedERKNS0_9test_unitE
FNL:11,89,91
FNA:11,137,_ZN5boost9unit_test13test_observer16assertion_resultENS0_16assertion_resultE
FNL:12,98,98
FNA:12,0,_ZN5boost9unit_test13test_observer16exception_caughtERKNS_19execution_exceptionE
FNF:13
FNH:3
DA:48,0
DA:53,2
DA:62,0
DA:67,0
DA:72,0
DA:73,0
DA:74,0
DA:80,0
DA:87,0
DA:89,137
DA:91,137
DA:98,0
DA:102,0
DA:106,4
LF:14
LH:4
end_of_record
TN:
SF:/usr/include/boost/test/tree/test_case_counter.hpp
FNL:0,38,41
FNA:0,1,_ZN5boost9unit_test17test_case_counterC2Eb
FNL:1,43,43
FNA:1,1,_ZN5boost9unit_test17test_case_counter19readonly_property43C2Em
FNL:2,46,46
FNA:2,45,_ZN5boost9unit_test17test_case_counter5visitERKNS0_9test_caseE
FNL:3,47,47
FNA:3,8,_ZN5boost9unit_test17test_case_counter16test_suite_startERKNS0_10test_suiteE
FNF:4
FNH:4
DA:38,1
DA:39,2
DA:40,1
DA:41,1
DA:43,1
DA:46,45
DA:47,8
LF:7
LH:7
end_of_record
TN:
SF:/usr/include/boost/test/tree/test_unit.hpp
FNL:0,144,144
FNA:0,45,_ZN5boost9unit_test9test_case20readonly_property144C2ERKNS_8functionIFvvEEE
FNL:1,150,150
FNA:1,45,_ZN5boost9unit_test9test_caseD2Ev
FNL:2,204,204
FNA:2,7,_ZN5boost9unit_test10test_suiteD0Ev
FNA:2,8,_ZN5boost9unit_test10test_suiteD2Ev
FNL:3,263,266
FNA:3,45,_ZN5boost9unit_test14make_test_caseERKNS_8functionIFvvEEENS0_13basic_cstringIKcEES8_m
FNL:4,62,62
FNA:4,53,_ZN5boost9unit_test9test_unit19readonly_property62C2Em
FNL:5,63,63
FNA:5,53,_ZN5boost9unit_test9test_unit19readonly_property63C2Em
FNL:6,64,64
FNA:6,53,_ZN5boost9unit_test9test_unit19readonly_property64C2Ev
FNL:7,66,66
FNA:7,53,_ZN5boost9unit_test9test_unit19readonly_property66C2Ev
FNL:8,69,69
FNA:8,53,_ZN5boost9unit_test9test_unit19readonly_property69C2Ev
FNL:9,82,82
FNA:9,400,_ZNK5boost9unit_test9test_unit10is_enabledEv
FNF:10
FNH:10
DA:62,53
DA:63,53
DA:64,53
DA:66,53
DA:69,53
DA:82,400
DA:144,45
DA:150,45
DA:204,15
DA:263,45
DA:265,90
LF:11
LH:11
end_of_record
TN:
SF:/usr/include/boost/test/tree/traverse.hpp
FNL:0,43,49
FNA:0,8,_ZN5boost9unit_test18traverse_test_treeERKNS0_9test_unitERNS0_17test_tree_visitorEb
FNF:1
FNH:1
DA:43,8
DA:45,8
DA:46,0
DA:48,8
DA:49,8
LF:5
LH:4
end_of_record
TN:
SF:/usr/include/boost/test/tree/visitor.hpp
FNL:0,37,37
FNA:0,0,_ZN5boost9unit_test17test_tree_visitor5visitERKNS0_9test_unitE
FNL:1,38,38
FNA:1,135,_ZN5boost9unit_test17test_tree_visitor5visitERKNS0_9test_caseE
FNL:2,39,39
FNA:2,24,_ZN5boost9unit_test17test_tree_visitor16test_suite_startERKNS0_10test_suiteE
FNL:3,40,40
FNA:3,40,_ZN5boost9unit_test17test_tree_visitor17test_suite_finishERKNS0_10test_suiteE
FNL:4,43,43
FNA:4,0,_ZN5boost9unit_test17test_tree_visitorD0Ev
FNA:4,13,_ZN5boost9unit_test17test_tree_visitorD2Ev
FNF:5
FNH:4
DA:37,0
DA:38,135
DA:39,24
DA:40,40
DA:43,13
LF:5
LH:4
end_of_record
TN:
SF:/usr/include/boost/test/unit_test_log.hpp
FNL:0,126,126
FNA:0,21,_ZN5boost9unit_test15unit_test_log_t8priorityEv
FNL:1,224,224
FNA:1,0,_ZN5boost9unit_test15unit_test_log_tD0Ev
FNA:1,1,_ZN5boost9unit_test15unit_test_log_tD2Ev
FNL:2,46,49
FNA:2,142,_ZN5boost9unit_test3log5beginC2ENS0_13basic_cstringIKcEEm
FNL:3,68,68
FNA:3,5,_ZN5boost9unit_test9ut_detail21entry_value_collectorC2Ev
FNF:4
FNH:4
DA:46,142
DA:47,142
DA:48,142
DA:49,142
DA:68,5
DA:126,21
DA:224,1
LF:7
LH:7
end_of_record
TN:
SF:/usr/include/boost/test/unit_test_log_formatter.hpp
FNL:0,118,120
FNA:0,3,_ZN5boost9unit_test23unit_test_log_formatterC2Ev
FNL:1,123,123
FNA:1,0,_ZN5boost9unit_test23unit_test_log_formatterD0Ev
FNA:1,3,_ZN5boost9unit_test23unit_test_log_formatterD2Ev
FNL:2,169,172
FNA:2,0,_ZN5boost9unit_test23unit_test_log_formatter17test_unit_skippedERSoRKNS0_9test_unitENS0_13basic_cstringIKcEE
FNL:3,176,176
FNA:3,0,_ZN5boost9unit_test23unit_test_log_formatter17test_unit_skippedERSoRKNS0_9test_unitE
FNL:4,179,179
FNA:4,0,_ZN5boost9unit_test23unit_test_log_formatter17test_unit_abortedERSoRKNS0_9test_unitE
FNL:5,182,182
FNA:5,0,_ZN5boost9unit_test23unit_test_log_formatter19test_unit_timed_outERSoRKNS0_9test_unitE
FNL:6,307,310
FNA:6,0,_ZNK5boost9unit_test23unit_test_log_formatter30get_default_stream_descriptionB5cxx11Ev
FNL:7,40,43
FNA:7,1,_ZN5boost9unit_test14log_entry_dataC2Ev
FNL:8,49,54
FNA:8,142,_ZN5boost9unit_test14log_entry_data5clearEv
FNL:9,67,72
FNA:9,53,_ZN5boost9unit_test19log_checkpoint_data5clearEv
FNF:10
FNH:5
DA:40,1
DA:41,1
DA:42,1
DA:43,1
DA:49,142
DA:51,142
DA:52,142
DA:53,142
DA:54,142
DA:67,53
DA:69,53
DA:70,53
DA:71,53
DA:72,53
DA:118,3
DA:119,3
DA:120,3
DA:123,3
DA:169,0
DA:171,0
DA:172,0
DA:176,0
DA:179,0
DA:182,0
DA:307,0
DA:309,0
LF:26
LH:18
end_of_record
TN:
SF:/usr/include/boost/test/unit_test_monitor.hpp
FNL:0,45,45
FNA:0,158,_ZN5boost9unit_test19unit_test_monitor_t17is_critical_errorENS1_11error_levelE
FNL:1,52,52
FNA:1,1,_ZN5boost9unit_test19unit_test_monitor_tC2Ev
FNA:1,1,_ZN5boost9unit_test19unit_test_monitor_tD2Ev
FNF:2
FNH:2
DA:45,158
DA:52,2
LF:2
LH:2
end_of_record
TN:
SF:/usr/include/boost/test/unit_test_parameters.hpp
FNL:0,102,105
FNA:0,2,_ZN5boost9unit_test14runtime_config13stream_holderC2ERSo
FNL:1,107,136
FNA:1,1,_ZN5boost9unit_test14runtime_config13stream_holder5setupERKNS0_13basic_cstringIKcEERKNS_8functionIFvvEEE
FNL:2,139,139
FNA:2,2,_ZNK5boost9unit_test14runtime_config13stream_holder3refEv
FNL:3,143,146
FNA:3,0,_ZN5boost9unit_test14runtime_config13stream_holder16callback_cleanerC2ENS_8functionIFvvEEE
FNL:4,147,150
FNA:4,0,_ZN5boost9unit_test14runtime_config13stream_holder16callback_cleanerD2Ev
FNL:5,82,85
FNA:5,1,_ZN5boost9unit_test14runtime_config3getINS0_12report_levelEEERKT_NS0_13basic_cstringIKcEE
FNA:5,3,_ZN5boost9unit_test14runtime_config3getINS0_13output_formatEEERKT_NS0_13basic_cstringIKcEE
FNA:5,1,_ZN5boost9unit_test14runtime_config3getINS0_9log_levelEEERKT_NS0_13basic_cstringIKcEE
FNA:5,1,_ZN5boost9unit_test14runtime_config3getINSt7__cxx1112basic_stringIcSt11char_traitsIcESaIcEEEEERKT_NS0_13basic_cstringIKcEE
FNA:5,2,_ZN5boost9unit_test14runtime_config3getISt6vectorINSt7__cxx1112basic_stringIcSt11char_traitsIcESaIcEEESaIS9_EEEERKT_NS0_13basic_cstringIKcEE
FNA:5,202,_ZN5boost9unit_test14runtime_config3getIbEERKT_NS0_13basic_cstringIKcEE
FNA:5,9,_ZN5boost9unit_test14runtime_config3getIjEERKT_NS0_13basic_cstringIKcEE
FNA:5,1,_ZN5boost9unit_test14runtime_config3getImEERKT_NS0_13basic_cstringIKcEE
FNL:6,87,90
FNA:6,3,_ZN5boost9unit_test14runtime_config3hasENS0_13basic_cstringIKcEE
FNF:7
FNH:5
DA:82,220
DA:84,220
DA:87,3
DA:89,3
DA:102,2
DA:103,2
DA:105,2
DA:107,1
DA:110,1
DA:111,0
DA:113,1
DA:114,1
DA:115,1
DA:116,0
DA:119,1
DA:122,0
DA:123,0
DA:124,0
DA:125,0
DA:128,0
DA:132,0
DA:133,0
DA:134,0
DA:139,2
DA:143,0
DA:144,0
DA:145,0
DA:146,0
DA:147,0
DA:148,0
DA:149,0
DA:150,0
LF:32
LH:14
end_of_record
TN:
SF:/usr/include/boost/test/unit_test_suite.hpp
FNL:0,390,398
FNA:0,1,_Z20init_unit_test_suiteiPPc
FNF:1
FNH:1
DA:390,1
DA:397,1
LF:2
LH:2
end_of_record
TN:
SF:/usr/include/boost/test/utils/algorithm.hpp
FNL:0,138,148
FNA:0,1,_ZN5boost9unit_test5utils12find_last_ofIPKcS4_EET_S5_S5_T0_S6_
FNL:1,234,247
FNA:1,0,_ZN5boost9unit_test5utils26replace_all_occurrences_ofINSt7__cxx1112basic_stringIcSt11char_traitsIcESaIcEEEPKS8_EET_SB_T0_SC_SC_SC_
FNF:2
FNH:1
DA:138,1
DA:141,1
DA:142,0
DA:144,1
DA:145,5
DA:147,1
DA:234,0
DA:238,0
DA:239,0
DA:240,0
DA:241,0
DA:242,0
DA:246,0
LF:13
LH:5
end_of_record
TN:
SF:/usr/include/boost/test/utils/assign_op.hpp
FNL:0,28,31
FNA:0,1,_ZN5boost9unit_test9assign_opINS0_12report_levelES2_EEvRT_RKT0_l
FNA:0,4,_ZN5boost9unit_test9assign_opINS0_13output_formatES2_EEvRT_RKT0_l
FNA:0,1,_ZN5boost9unit_test9assign_opINS0_9log_levelES2_EEvRT_RKT0_l
FNA:0,1,_ZN5boost9unit_test9assign_opINS_8functionIFvNS0_13basic_cstringIKcEEEEEZNS0_14runtime_config12_GLOBAL__N_1L19register_parametersERNS_7runtime16parameters_storeEEUlS5_E_EEvRT_RKT0_l
FNA:0,2,_ZN5boost9unit_test9assign_opINSt7__cxx1112basic_stringIcSt11char_traitsIcESaIcEEES7_EEvRT_RKT0_l
FNA:0,26,_ZN5boost9unit_test9assign_opIbbEEvRT_RKT0_l
FNA:0,2,_ZN5boost9unit_test9assign_opIjjEEvRT_RKT0_l
FNA:0,2,_ZN5boost9unit_test9assign_opImlEEvRT_RKT0_l
FNF:1
FNH:1
DA:28,39
DA:30,39
DA:31,39
LF:3
LH:3
end_of_record
TN:
SF:/usr/include/boost/test/utils/basic_cstring/basic_cstring.hpp
FNL:0,142,145
FNA:0,245,_ZN5boost9unit_test13basic_cstringIKcE6assignIlEERS3_PS2_T_
FNL:1,206,209
FNA:1,957,_ZN5boost9unit_test13basic_cstringIKcE8null_strEv
FNL:2,215,219
FNA:2,932,_ZN5boost9unit_test13basic_cstringIKcEC2Ev
FNL:3,225,229
FNA:3,4142,_ZN5boost9unit_test13basic_cstringIKcEC2ERKS3_
FNL:4,235,239
FNA:4,850,_ZN5boost9unit_test13basic_cstringIKcEC2ERKNSt7__cxx1112basic_stringIcSt11char_traitsIcESaIcEEE
FNL:5,245,249
FNA:5,1012,_ZN5boost9unit_test13basic_cstringIKcEC2EPS2_
FNL:6,255,259
FNA:6,343,_ZN5boost9unit_test13basic_cstringIKcEC2EPS2_S4_
FNL:7,265,268
FNA:7,52,_ZNK5boost9unit_test13basic_cstringIKcEixEm
FNL:8,286,289
FNA:8,11447,_ZNK5boost9unit_test13basic_cstringIKcE4sizeEv
FNA:8,0,_ZNK5boost9unit_test13basic_cstringIcE4sizeEv
FNL:9,295,298
FNA:9,1317,_ZNK5boost9unit_test13basic_cstringIKcE8is_emptyEv
FNL:10,304,307
FNA:10,581,_ZNK5boost9unit_test13basic_cstringIKcE5emptyEv
FNL:11,313,316
FNA:11,70,_ZN5boost9unit_test13basic_cstringIKcE5clearEv
FNA:11,0,_ZN5boost9unit_test13basic_cstringIcE5clearEv
FNL:12,332,339
FNA:12,0,_ZN5boost9unit_test13basic_cstringIKcE9trim_leftEm
FNA:12,0,_ZN5boost9unit_test13basic_cstringIcE9trim_leftEm
FNL:13,345,352
FNA:13,74,_ZN5boost9unit_test13basic_cstringIKcE9trim_leftEPS2_
FNL:14,358,370
FNA:14,73,_ZN5boost9unit_test13basic_cstringIKcE9trim_leftES3_
FNL:15,389,396
FNA:15,56,_ZN5boost9unit_test13basic_cstringIKcE10trim_rightEPS2_
FNL:16,402,420
FNA:16,73,_ZN5boost9unit_test13basic_cstringIKcE10trim_rightES3_
FNL:17,426,432
FNA:17,73,_ZN5boost9unit_test13basic_cstringIKcE4trimES3_
FNL:18,438,444
FNA:18,1109,_ZN5boost9unit_test13basic_cstringIKcEaSERKS3_
FNL:19,459,462
FNA:19,1,_ZN5boost9unit_test13basic_cstringIKcEaSEPS2_
FNL:20,486,489
FNA:20,343,_ZN5boost9unit_test13basic_cstringIKcE6assignEPS2_S4_
FNL:21,512,515
FNA:21,3006,_ZN5boost9unit_test13basic_cstringIKcE5beginEv
FNA:21,0,_ZN5boost9unit_test13basic_cstringIcE5beginEv
FNL:22,521,524
FNA:22,2233,_ZNK5boost9unit_test13basic_cstringIKcE5beginEv
FNL:23,530,533
FNA:23,613,_ZN5boost9unit_test13basic_cstringIKcE3endEv
FNL:24,539,542
FNA:24,343,_ZNK5boost9unit_test13basic_cstringIKcE3endEv
FNL:25,548,561
FNA:25,343,_ZNK5boost9unit_test13basic_cstringIKcE4findES3_
FNL:26,588,595
FNA:26,0,_ZNK5boost9unit_test13basic_cstringIKcE6substrEmm
FNL:27,601,606
FNA:27,125,_ZN5boost9unit_test13basic_cstringIKcE15default_trim_exEv
FNL:28,616,621
FNA:28,22,_ZN5boost9unit_testeqIKcS2_EEbRKNS0_13basic_cstringIT_EERKNS3_IT0_EE
FNL:29,627,634
FNA:29,1,_ZN5boost9unit_testeqIKcS2_EEbRKNS0_13basic_cstringIT_EEPT0_
FNL:30,640,643
FNA:30,21,_ZN5boost9unit_testeqIKcEEbRKNS0_13basic_cstringIT_EERKNS5_10std_stringE
FNL:31,658,661
FNA:31,0,_ZN5boost9unit_testeqIKcEEbRKNS0_13basic_cstringIT_E10std_stringERKS5_
FNL:32,685,688
FNA:32,0,_ZN5boost9unit_testneIKcEEbRKNS0_13basic_cstringIT_EES7_
FNL:33,716,721
FNA:33,0,_ZN5boost9unit_test10first_charIKcEENS0_13basic_cstringIT_E14value_ret_typeES5_
FNL:34,731,736
FNA:34,0,_ZN5boost9unit_test9last_charIKcEENS0_13basic_cstringIT_E14value_ret_typeES5_
FNL:35,746,749
FNA:35,626,_ZN5boost9unit_test9assign_opIcKcEEvRNSt7__cxx1112basic_stringIT_St11char_traitsIS5_ESaIS5_EEENS0_13basic_cstringIT0_EEi
FNL:36,755,759
FNA:36,0,_ZN5boost9unit_testpLIcKcEERNSt7__cxx1112basic_stringIT_St11char_traitsIS5_ESaIS5_EEESA_RKNS0_13basic_cstringIT0_EE
FNL:37,765,771
FNA:37,0,_ZN5boost9unit_testplIcKcEENSt7__cxx1112basic_stringIT_St11char_traitsIS5_ESaIS5_EEERKS9_RKNS0_13basic_cstringIT0_EE
FNL:38,83,83
FNA:38,125,_ZN5boost9unit_test13basic_cstringIKcEC2IiEEPS2_T_
FNA:38,245,_ZN5boost9unit_test13basic_cstringIKcEC2IlEEPS2_T_
FNA:38,606,_ZN5boost9unit_test13basic_cstringIKcEC2ImEEPS2_T_
FNA:38,0,_ZN5boost9unit_test13basic_cstringIcEC2ImEEPcT_
FNF:39
FNH:31
DA:83,976
DA:142,245
DA:144,245
DA:206,957
DA:208,957
DA:215,932
DA:216,932
DA:217,932
DA:219,932
DA:225,4142
DA:226,4142
DA:227,4142
DA:229,4142
DA:235,850
DA:236,850
DA:237,850
DA:239,850
DA:245,1012
DA:246,1012
DA:247,1012
DA:249,1012
DA:255,343
DA:256,343
DA:257,343
DA:259,343
DA:265,52
DA:267,52
DA:286,11447
DA:288,11447
DA:295,1317
DA:297,1317
DA:304,581
DA:306,581
DA:313,70
DA:315,70
DA:316,70
DA:332,0
DA:334,0
DA:335,0
DA:336,0
DA:338,0
DA:345,74
DA:347,74
DA:348,74
DA:349,17
DA:351,74
DA:358,73
DA:360,73
DA:361,71
DA:364,90
DA:365,73
DA:366,56
DA:369,73
DA:389,56
DA:391,56
DA:392,56
DA:393,0
DA:395,56
DA:402,73
DA:404,73
DA:405,17
DA:408,56
DA:409,54
DA:411,56
DA:414,56
DA:415,56
DA:416,56
DA:417,0
DA:419,56
DA:426,73
DA:428,73
DA:429,73
DA:431,73
DA:438,1109
DA:440,1109
DA:441,1109
DA:443,1109
DA:459,1
DA:461,1
DA:486,343
DA:488,343
DA:512,3006
DA:514,3006
DA:521,2233
DA:523,2233
DA:530,613
DA:532,613
DA:539,343
DA:541,343
DA:548,343
DA:550,343
DA:551,0
DA:553,343
DA:555,1764
DA:556,1421
DA:557,0
DA:560,343
DA:588,0
DA:590,0
DA:591,0
DA:592,0
DA:593,0
DA:594,0
DA:601,125
DA:605,125
DA:616,22
DA:619,26
DA:620,26
DA:627,1
DA:630,1
DA:640,21
DA:642,21
DA:658,0
DA:660,0
DA:685,0
DA:687,0
DA:716,0
DA:720,0
DA:731,0
DA:735,0
DA:746,626
DA:748,626
DA:749,626
DA:755,0
DA:757,0
DA:758,0
DA:765,0
DA:767,0
DA:769,0
DA:770,0
DA:771,0
LF:131
LH:100
end_of_record
TN:
SF:/usr/include/boost/test/utils/basic_cstring/bcs_char_traits.hpp
FNL:0,60,63
FNA:0,24506,_ZN5boost9unit_test9ut_detail20bcs_char_traits_implIKcE2eqEcc
FNL:1,64,67
FNA:1,1687,_ZN5boost9unit_test9ut_detail20bcs_char_traits_implIKcE2ltEcc
FNL:2,69,80
FNA:2,2366,_ZN5boost9unit_test9ut_detail20bcs_char_traits_implIKcE7compareEPS3_S5_m
FNL:3,82,91
FNA:3,987,_ZN5boost9unit_test9ut_detail20bcs_char_traits_implIKcE6lengthEPS3_
FNL:4,93,103
FNA:4,129,_ZN5boost9unit_test9ut_detail20bcs_char_traits_implIKcE4findEPS3_mc
FNF:5
FNH:5
DA:60,24506
DA:62,24506
DA:64,1687
DA:66,1687
DA:69,2366
DA:71,10835
DA:72,10156
DA:73,1687
DA:74,8469
DA:75,8469
DA:76,8469
DA:79,679
DA:82,987
DA:84,987
DA:86,987
DA:87,14005
DA:88,13018
DA:90,987
DA:93,129
DA:95,457
DA:96,345
DA:97,17
DA:99,328
DA:100,328
DA:102,112
LF:25
LH:25
end_of_record
TN:
SF:/usr/include/boost/test/utils/basic_cstring/compare.hpp
FNL:0,102,109
FNA:0,2199,_ZN5boost9unit_testltIKcEEbRKNS0_13basic_cstringIT_EES7_
FNL:1,46,46
FNA:1,0,_ZN5boost9unit_test9ut_detail8case_insIKcE2eqEcc
FNL:2,47,47
FNA:2,0,_ZN5boost9unit_test9ut_detail8case_insIKcE2ltEcc
FNL:3,49,56
FNA:3,0,_ZN5boost9unit_test9ut_detail8case_insIKcE7compareEPS3_S5_m
FNL:4,67,70
FNA:4,0,_ZN5boost9unit_test11case_ins_eqIKcEEbNS0_13basic_cstringIT_EES5_
FNF:5
FNH:1
DA:46,0
DA:47,0
DA:49,0
DA:51,0
DA:52,0
DA:53,0
DA:55,0
DA:67,0
DA:69,0
DA:102,2199
DA:106,2199
DA:107,2199
DA:108,2199
LF:13
LH:4
end_of_record
TN:
SF:/usr/include/boost/test/utils/basic_cstring/io.hpp
FNL:0,51,58
FNA:0,0,_ZN5boost9unit_testlsIcSt11char_traitsIcEKcEERSt13basic_ostreamIT_T0_ES9_RKNS0_13basic_cstringIT1_EE
FNF:1
FNH:0
DA:51,0
DA:53,0
DA:54,0
DA:55,0
DA:57,0
LF:5
LH:0
end_of_record
TN:
SF:/usr/include/boost/test/utils/class_properties.hpp
FNL:0,113,113
FNA:0,506,_ZN5boost9unit_testeqINS0_9test_unit10run_statusEEEbRKNS0_14class_propertyIT_EERKS5_
FNA:0,0,_ZN5boost9unit_testeqINS0_9test_unit10run_statusEEEbRKNS0_14class_propertyIT_EES8_
FNA:0,63,_ZN5boost9unit_testeqImEEbRKNS0_14class_propertyIT_EERKS3_
FNA:0,25,_ZN5boost9unit_testeqImEEbRKNS0_14class_propertyIT_EES6_
FNL:1,114,114
FNA:1,52,_ZN5boost9unit_testneImEEbRKNS0_14class_propertyIT_EERKS3_
FNA:1,0,_ZN5boost9unit_testneImEEbRKNS0_14class_propertyIT_EES6_
FNA:1,0,_ZN5boost9unit_testneImEEbRKT_RKNS0_14class_propertyIS2_EE
FNL:2,130,130
FNA:2,53,_ZN5boost9unit_test17readonly_propertyISt6vectorINS_8functionIFNS_10test_tools16assertion_resultEmEEESaIS7_EEEC2Ev
FNA:2,53,_ZN5boost9unit_test17readonly_propertyISt6vectorINSt7__cxx1112basic_stringIcSt11char_traitsIcESaIcEEESaIS8_EEEC2Ev
FNA:2,53,_ZN5boost9unit_test17readonly_propertyISt6vectorImSaImEEEC2Ev
FNA:2,159,_ZN5boost9unit_test17readonly_propertyIbEC2Ev
FNA:2,689,_ZN5boost9unit_test17readonly_propertyImEC2Ev
FNL:3,131,131
FNA:3,45,_ZN5boost9unit_test17readonly_propertyINS_8functionIFvvEEEEC2ERKS4_
FNA:3,190,_ZN5boost9unit_test17readonly_propertyIbEC2Eb
FNA:3,107,_ZN5boost9unit_test17readonly_propertyImEC2Em
FNL:4,134,134
FNA:4,0,_ZNK5boost9unit_test17readonly_propertyISt6vectorINSt7__cxx1112basic_stringIcSt11char_traitsIcESaIcEEESaIS8_EEEptEv
FNL:5,173,173
FNA:5,54,_ZN5boost9unit_test18readwrite_propertyINSt7__cxx1112basic_stringIcSt11char_traitsIcESaIcEEEEC2Ev
FNA:5,53,_ZN5boost9unit_test18readwrite_propertyISt6vectorINS_10shared_ptrINS0_17test_unit_fixtureEEESaIS5_EEEC2Ev
FNA:5,53,_ZN5boost9unit_test18readwrite_propertyISt6vectorINS_10shared_ptrINS0_9decorator4baseEEESaIS6_EEEC2Ev
FNL:6,174,174
FNA:6,1,_ZN5boost9unit_test18readwrite_propertyINS0_12report_levelEEC2ES2_
FNA:6,3,_ZN5boost9unit_test18readwrite_propertyINS0_13output_formatEEC2ES2_
FNA:6,1,_ZN5boost9unit_test18readwrite_propertyINS0_9log_levelEEC2ES2_
FNA:6,106,_ZN5boost9unit_test18readwrite_propertyINS0_9test_unit10run_statusEEC2ES3_
FNA:6,54,_ZN5boost9unit_test18readwrite_propertyINSt7__cxx1112basic_stringIcSt11char_traitsIcESaIcEEEEC2ERKS7_
FNA:6,2,_ZN5boost9unit_test18readwrite_propertyISt6vectorINSt7__cxx1112basic_stringIcSt11char_traitsIcESaIcEEESaIS8_EEEC2ERKSA_
FNA:6,75,_ZN5boost9unit_test18readwrite_propertyIbEC2Eb
FNA:6,56,_ZN5boost9unit_test18readwrite_propertyIjEC2Ej
FNA:6,109,_ZN5boost9unit_test18readwrite_propertyImEC2Em
FNL:7,179,179
FNA:7,0,_ZNK5boost9unit_test18readwrite_propertyINSt7__cxx1112basic_stringIcSt11char_traitsIcESaIcEEEEptEv
FNL:8,53,53
FNA:8,54,_ZN5boost9unit_test14class_propertyINSt7__cxx1112basic_stringIcSt11char_traitsIcESaIcEEEEC2Ev
FNA:8,53,_ZN5boost9unit_test14class_propertyISt6vectorINS_10shared_ptrINS0_17test_unit_fixtureEEESaIS5_EEEC2Ev
FNA:8,53,_ZN5boost9unit_test14class_propertyISt6vectorINS_10shared_ptrINS0_9decorator4baseEEESaIS6_EEEC2Ev
FNA:8,53,_ZN5boost9unit_test14class_propertyISt6vectorINS_8functionIFNS_10test_tools16assertion_resultEmEEESaIS7_EEEC2Ev
FNA:8,53,_ZN5boost9unit_test14class_propertyISt6vectorINSt7__cxx1112basic_stringIcSt11char_traitsIcESaIcEEESaIS8_EEEC2Ev
FNA:8,53,_ZN5boost9unit_test14class_propertyISt6vectorImSaImEEEC2Ev
FNA:8,159,_ZN5boost9unit_test14class_propertyIbEC2Ev
FNA:8,689,_ZN5boost9unit_test14class_propertyImEC2Ev
FNL:9,54,55
FNA:9,1,_ZN5boost9unit_test14class_propertyINS0_12report_levelEEC2ES2_
FNA:9,3,_ZN5boost9unit_test14class_propertyINS0_13output_formatEEC2ES2_
FNA:9,1,_ZN5boost9unit_test14class_propertyINS0_9log_levelEEC2ES2_
FNA:9,106,_ZN5boost9unit_test14class_propertyINS0_9test_unit10run_statusEEC2ES3_
FNA:9,45,_ZN5boost9unit_test14class_propertyINS_8functionIFvvEEEEC2ERKS4_
FNA:9,54,_ZN5boost9unit_test14class_propertyINSt7__cxx1112basic_stringIcSt11char_traitsIcESaIcEEEEC2ERKS7_
FNA:9,2,_ZN5boost9unit_test14class_propertyISt6vectorINSt7__cxx1112basic_stringIcSt11char_traitsIcESaIcEEESaIS8_EEEC2ERKSA_
FNA:9,265,_ZN5boost9unit_test14class_propertyIbEC2Eb
FNA:9,56,_ZN5boost9unit_test14class_propertyIjEC2Ej
FNA:9,216,_ZN5boost9unit_test14class_propertyImEC2Em
FNL:10,58,58
FNA:10,105,_ZNK5boost9unit_test14class_propertyINS0_9test_unit10run_statusEEcvRKS3_Ev
FNA:10,45,_ZNK5boost9unit_test14class_propertyINS_8functionIFvvEEEEcvRKS4_Ev
FNA:10,62,_ZNK5boost9unit_test14class_propertyINSt7__cxx1112basic_stringIcSt11char_traitsIcESaIcEEEEcvRKS7_Ev
FNA:10,319,_ZNK5boost9unit_test14class_propertyIbEcvRKbEv
FNA:10,102,_ZNK5boost9unit_test14class_propertyIjEcvRKjEv
FNA:10,1866,_ZNK5boost9unit_test14class_propertyImEcvRKmEv
FNL:11,59,59
FNA:11,506,_ZNK5boost9unit_test14class_propertyINS0_9test_unit10run_statusEE3getEv
FNA:11,21,_ZNK5boost9unit_test14class_propertyINSt7__cxx1112basic_stringIcSt11char_traitsIcESaIcEEEE3getEv
FNA:11,636,_ZNK5boost9unit_test14class_propertyISt6vectorINS_10shared_ptrINS0_17test_unit_fixtureEEESaIS5_EEE3getEv
FNA:11,318,_ZNK5boost9unit_test14class_propertyISt6vectorINS_10shared_ptrINS0_9decorator4baseEEESaIS6_EEE3getEv
FNA:11,318,_ZNK5boost9unit_test14class_propertyISt6vectorINS_8functionIFNS_10test_tools16assertion_resultEmEEESaIS7_EEE3getEv
FNA:11,0,_ZNK5boost9unit_test14class_propertyISt6vectorINSt7__cxx1112basic_stringIcSt11char_traitsIcESaIcEEESaIS8_EEE3getEv
FNA:11,636,_ZNK5boost9unit_test14class_propertyISt6vectorImSaImEEE3getEv
FNA:11,0,_ZNK5boost9unit_test14class_propertyIjE3getEv
FNA:11,165,_ZNK5boost9unit_test14class_propertyImE3getEv
FNL:12,60,60
FNA:12,400,_ZNK5boost9unit_test14class_propertyIbEntEv
FNL:13,82,87
FNA:13,0,_ZN5boost9unit_testlsIcSt11char_traitsIcENSt7__cxx1112basic_stringIcS3_SaIcEEEEERSt13basic_ostreamIT_T0_ESC_RKNS0_14class_propertyIT1_EE
FNA:13,0,_ZN5boost9unit_testlsIcSt11char_traitsIcEjEERSt13basic_ostreamIT_T0_ES8_RKNS0_14class_propertyIT1_EE
FNA:13,0,_ZN5boost9unit_testlsIcSt11char_traitsIcEmEERSt13basic_ostreamIT_T0_ES8_RKNS0_14class_propertyIT1_EE
FNF:14
FNH:11
DA:53,1167
DA:54,749
DA:55,749
DA:58,2499
DA:59,2600
DA:60,400
DA:82,0
DA:86,0
DA:113,594
DA:114,52
DA:130,1007
DA:131,342
DA:134,0
DA:173,160
DA:174,407
DA:179,0
LF:16
LH:12
end_of_record
TN:
SF:/usr/include/boost/test/utils/custom_manip.hpp
FNL:0,35,35
FNA:0,0,_ZN5boost9unit_test5utils14custom_printerINS1_12custom_manipINS0_6output12_GLOBAL__N_17quote_tEEEEC2ERSo
FNA:0,0,_ZN5boost9unit_test5utils14custom_printerINS1_12custom_manipINS1_12attr_value_tEEEEC2ERSo
FNA:0,0,_ZN5boost9unit_test5utils14custom_printerINS1_12custom_manipINS1_7cdata_tEEEEC2ERSo
FNL:1,37,37
FNA:1,0,_ZNK5boost9unit_test5utils14custom_printerINS1_12custom_manipINS0_6output12_GLOBAL__N_17quote_tEEEEdeEv
FNA:1,0,_ZNK5boost9unit_test5utils14custom_printerINS1_12custom_manipINS1_12attr_value_tEEEEdeEv
FNA:1,0,_ZNK5boost9unit_test5utils14custom_printerINS1_12custom_manipINS1_7cdata_tEEEEdeEv
FNL:2,51,51
FNA:2,0,_ZN5boost9unit_test5utilslsINS0_6output12_GLOBAL__N_17quote_tEEENS1_14custom_printerINS1_12custom_manipIT_EEEERSoRKS9_
FNA:2,0,_ZN5boost9unit_test5utilslsINS1_12attr_value_tEEENS1_14custom_printerINS1_12custom_manipIT_EEEERSoRKS7_
FNA:2,0,_ZN5boost9unit_test5utilslsINS1_7cdata_tEEENS1_14custom_printerINS1_12custom_manipIT_EEEERSoRKS7_
FNF:3
FNH:0
DA:35,0
DA:37,0
DA:51,0
LF:3
LH:0
end_of_record
TN:
SF:/usr/include/boost/test/utils/foreach.hpp
FNL:0,102,105
FNA:0,3,_ZN5boost9unit_test8for_each5beginISt3mapINS0_13basic_cstringIKcEENS_10shared_ptrINS_7runtime11basic_paramEEENS8_16parameters_store10lg_compareESaISt4pairIKS6_SA_EEEEENS1_10static_anyINT_14const_iteratorEEERKSJ_N4mpl_5bool_ILb1EEE
FNA:0,0,_ZN5boost9unit_test8for_each5beginISt6vectorINS0_13basic_cstringIKcEESaIS6_EEEENS1_10static_anyINT_14const_iteratorEEERKSA_N4mpl_5bool_ILb1EEE
FNA:0,106,_ZN5boost9unit_test8for_each5beginISt6vectorINS_10shared_ptrINS0_17test_unit_fixtureEEESaIS6_EEEENS1_10static_anyINT_14const_iteratorEEERKSA_N4mpl_5bool_ILb1EEE
FNA:0,53,_ZN5boost9unit_test8for_each5beginISt6vectorINS_10shared_ptrINS0_9decorator4baseEEESaIS7_EEEENS1_10static_anyINT_14const_iteratorEEERKSB_N4mpl_5bool_ILb1EEE
FNA:0,28,_ZN5boost9unit_test8for_each5beginISt6vectorINS_7runtime16parameter_cla_idESaIS5_EEEENS1_10static_anyINT_14const_iteratorEEERKS9_N4mpl_5bool_ILb1EEE
FNA:0,53,_ZN5boost9unit_test8for_each5beginISt6vectorINS_8functionIFNS_10test_tools16assertion_resultEmEEESaIS8_EEEENS1_10static_anyINT_14const_iteratorEEERKSC_N4mpl_5bool_ILb1EEE
FNA:0,0,_ZN5boost9unit_test8for_each5beginISt6vectorINSt7__cxx1112basic_stringIcSt11char_traitsIcESaIcEEESaIS9_EEEENS1_10static_anyINT_14const_iteratorEEERKSD_N4mpl_5bool_ILb1EEE
FNA:0,181,_ZN5boost9unit_test8for_each5beginISt6vectorImSaImEEEENS1_10static_anyINT_14const_iteratorEEERKS7_N4mpl_5bool_ILb1EEE
FNA:0,8,_ZN5boost9unit_test8for_each5beginISt8multimapImmSt4lessImESaISt4pairIKmmEEEEENS1_10static_anyINT_14const_iteratorEEERKSC_N4mpl_5bool_ILb1EEE
FNL:1,115,118
FNA:1,0,_ZN5boost9unit_test8for_each3endINS0_13basic_cstringIKcEEEENS1_10static_anyINT_8iteratorEEERS7_N4mpl_5bool_ILb0EEE
FNA:1,0,_ZN5boost9unit_test8for_each3endISt3mapIcNS_10shared_ptrINS_7runtime3cla13rt_cla_detail14parameter_trieEEESt4lessIcESaISt4pairIKcS9_EEEEENS1_10static_anyINT_8iteratorEEERSI_N4mpl_5bool_ILb0EEE
FNA:1,246,_ZN5boost9unit_test8for_each3endISt3setIPNS0_13test_observerENS0_9framework5state14priority_orderESaIS5_EEEENS1_10static_anyINT_8iteratorEEERSC_N4mpl_5bool_ILb0EEE
FNA:1,2,_ZN5boost9unit_test8for_each3endISt3setIPNS0_14global_fixtureESt4lessIS5_ESaIS5_EEEENS1_10static_anyINT_8iteratorEEERSB_N4mpl_5bool_ILb0EEE
FNA:1,0,_ZN5boost9unit_test8for_each3endISt6vectorINS_10shared_ptrINS_7runtime3cla13rt_cla_detail14parameter_trieEEESaIS9_EEEENS1_10static_anyINT_8iteratorEEERSD_N4mpl_5bool_ILb0EEE
FNA:1,0,_ZN5boost9unit_test8for_each3endISt6vectorINS_17reference_wrapperIKNS_7runtime16parameter_cla_idEEESaIS8_EEEENS1_10static_anyINT_8iteratorEEERSC_N4mpl_5bool_ILb0EEE
FNA:1,0,_ZN5boost9unit_test8for_each3endISt6vectorINSt7__cxx1112basic_stringIcSt11char_traitsIcESaIcEEESaIS9_EEEENS1_10static_anyINT_8iteratorEEERSD_N4mpl_5bool_ILb0EEE
FNA:1,16,_ZN5boost9unit_test8for_each3endISt6vectorImSaImEEEENS1_10static_anyINT_8iteratorEEERS7_N4mpl_5bool_ILb0EEE
FNL:2,124,127
FNA:2,3,_ZN5boost9unit_test8for_each3endISt3mapINS0_13basic_cstringIKcEENS_10shared_ptrINS_7runtime11basic_paramEEENS8_16parameters_store10lg_compareESaISt4pairIKS6_SA_EEEEENS1_10static_anyINT_14const_iteratorEEERKSJ_N4mpl_5bool_ILb1EEE
FNA:2,0,_ZN5boost9unit_test8for_each3endISt6vectorINS0_13basic_cstringIKcEESaIS6_EEEENS1_10static_anyINT_14const_iteratorEEERKSA_N4mpl_5bool_ILb1EEE
FNA:2,106,_ZN5boost9unit_test8for_each3endISt6vectorINS_10shared_ptrINS0_17test_unit_fixtureEEESaIS6_EEEENS1_10static_anyINT_14const_iteratorEEERKSA_N4mpl_5bool_ILb1EEE
FNA:2,53,_ZN5boost9unit_test8for_each3endISt6vectorINS_10shared_ptrINS0_9decorator4baseEEESaIS7_EEEENS1_10static_anyINT_14const_iteratorEEERKSB_N4mpl_5bool_ILb1EEE
FNA:2,28,_ZN5boost9unit_test8for_each3endISt6vectorINS_7runtime16parameter_cla_idESaIS5_EEEENS1_10static_anyINT_14const_iteratorEEERKS9_N4mpl_5bool_ILb1EEE
FNA:2,53,_ZN5boost9unit_test8for_each3endISt6vectorINS_8functionIFNS_10test_tools16assertion_resultEmEEESaIS8_EEEENS1_10static_anyINT_14const_iteratorEEERKSC_N4mpl_5bool_ILb1EEE
FNA:2,0,_ZN5boost9unit_test8for_each3endISt6vectorINSt7__cxx1112basic_stringIcSt11char_traitsIcESaIcEEESaIS9_EEEENS1_10static_anyINT_14const_iteratorEEERKSD_N4mpl_5bool_ILb1EEE
FNA:2,181,_ZN5boost9unit_test8for_each3endISt6vectorImSaImEEEENS1_10static_anyINT_14const_iteratorEEERKS7_N4mpl_5bool_ILb1EEE
FNA:2,8,_ZN5boost9unit_test8for_each3endISt8multimapImmSt4lessImESaISt4pairIKmmEEEEENS1_10static_anyINT_14const_iteratorEEERKSC_N4mpl_5bool_ILb1EEE
FNL:3,137,141
FNA:3,0,_ZN5boost9unit_test8for_each4doneINS0_13basic_cstringIKcEEEEbRKNS1_15static_any_baseES8_RT_N4mpl_5bool_ILb0EEE
FNA:3,0,_ZN5boost9unit_test8for_each4doneISt3mapIcNS_10shared_ptrINS_7runtime3cla13rt_cla_detail14parameter_trieEEESt4lessIcESaISt4pairIKcS9_EEEEEbRKNS1_15static_any_baseESJ_RT_N4mpl_5bool_ILb0EEE
FNA:3,740,_ZN5boost9unit_test8for_each4doneISt3setIPNS0_13test_observerENS0_9framework5state14priority_orderESaIS5_EEEEbRKNS1_15static_any_baseESD_RT_N4mpl_5bool_ILb0EEE
FNA:3,2,_ZN5boost9unit_test8for_each4doneISt3setIPNS0_14global_fixtureESt4lessIS5_ESaIS5_EEEEbRKNS1_15static_any_baseESC_RT_N4mpl_5bool_ILb0EEE
FNA:3,0,_ZN5boost9unit_test8for_each4doneISt6vectorINS_10shared_ptrINS_7runtime3cla13rt_cla_detail14parameter_trieEEESaIS9_EEEEbRKNS1_15static_any_baseESE_RT_N4mpl_5bool_ILb0EEE
FNA:3,0,_ZN5boost9unit_test8for_each4doneISt6vectorINS_17reference_wrapperIKNS_7runtime16parameter_cla_idEEESaIS8_EEEEbRKNS1_15static_any_baseESD_RT_N4mpl_5bool_ILb0EEE
FNA:3,0,_ZN5boost9unit_test8for_each4doneISt6vectorINSt7__cxx1112basic_stringIcSt11char_traitsIcESaIcEEESaIS9_EEEEbRKNS1_15static_any_baseESE_RT_N4mpl_5bool_ILb0EEE
FNA:3,120,_ZN5boost9unit_test8for_each4doneISt6vectorImSaImEEEEbRKNS1_15static_any_baseES8_RT_N4mpl_5bool_ILb0EEE
FNL:4,147,151
FNA:4,87,_ZN5boost9unit_test8for_each4doneISt3mapINS0_13basic_cstringIKcEENS_10shared_ptrINS_7runtime11basic_paramEEENS8_16parameters_store10lg_compareESaISt4pairIKS6_SA_EEEEEbRKNS1_15static_any_baseESK_RKT_N4mpl_5bool_ILb1EEE
FNA:4,0,_ZN5boost9unit_test8for_each4doneISt6vectorINS0_13basic_cstringIKcEESaIS6_EEEEbRKNS1_15static_any_baseESB_RKT_N4mpl_5bool_ILb1EEE
FNA:4,106,_ZN5boost9unit_test8for_each4doneISt6vectorINS_10shared_ptrINS0_17test_unit_fixtureEEESaIS6_EEEEbRKNS1_15static_any_baseESB_RKT_N4mpl_5bool_ILb1EEE
FNA:4,53,_ZN5boost9unit_test8for_each4doneISt6vectorINS_10shared_ptrINS0_9decorator4baseEEESaIS7_EEEEbRKNS1_15static_any_baseESC_RKT_N4mpl_5bool_ILb1EEE
FNA:4,99,_ZN5boost9unit_test8for_each4doneISt6vectorINS_7runtime16parameter_cla_idESaIS5_EEEEbRKNS1_15static_any_baseESA_RKT_N4mpl_5bool_ILb1EEE
FNA:4,53,_ZN5boost9unit_test8for_each4doneISt6vectorINS_8functionIFNS_10test_tools16assertion_resultEmEEESaIS8_EEEEbRKNS1_15static_any_baseESD_RKT_N4mpl_5bool_ILb1EEE
FNA:4,0,_ZN5boost9unit_test8for_each4doneISt6vectorINSt7__cxx1112basic_stringIcSt11char_traitsIcESaIcEEESaIS9_EEEEbRKNS1_15static_any_baseESE_RKT_N4mpl_5bool_ILb1EEE
FNA:4,306,_ZN5boost9unit_test8for_each4doneISt6vectorImSaImEEEEbRKNS1_15static_any_baseES8_RKT_N4mpl_5bool_ILb1EEE
FNA:4,60,_ZN5boost9unit_test8for_each4doneISt8multimapImmSt4lessImESaISt4pairIKmmEEEEEbRKNS1_15static_any_baseESD_RKT_N4mpl_5bool_ILb1EEE
FNL:5,161,164
FNA:5,0,_ZN5boost9unit_test8for_each4nextINS0_13basic_cstringIKcEEEEvRKNS1_15static_any_baseERT_N4mpl_5bool_ILb0EEE
FNA:5,0,_ZN5boost9unit_test8for_each4nextISt3mapIcNS_10shared_ptrINS_7runtime3cla13rt_cla_detail14parameter_trieEEESt4lessIcESaISt4pairIKcS9_EEEEEvRKNS1_15static_any_baseERT_N4mpl_5bool_ILb0EEE
FNA:5,385,_ZN5boost9unit_test8for_each4nextISt3setIPNS0_13test_observerENS0_9framework5state14priority_orderESaIS5_EEEEvRKNS1_15static_any_baseERT_N4mpl_5bool_ILb0EEE
FNA:5,0,_ZN5boost9unit_test8for_each4nextISt3setIPNS0_14global_fixtureESt4lessIS5_ESaIS5_EEEEvRKNS1_15static_any_baseERT_N4mpl_5bool_ILb0EEE
FNA:5,0,_ZN5boost9unit_test8for_each4nextISt6vectorINS_10shared_ptrINS_7runtime3cla13rt_cla_detail14parameter_trieEEESaIS9_EEEEvRKNS1_15static_any_baseERT_N4mpl_5bool_ILb0EEE
FNA:5,0,_ZN5boost9unit_test8for_each4nextISt6vectorINS_17reference_wrapperIKNS_7runtime16parameter_cla_idEEESaIS8_EEEEvRKNS1_15static_any_baseERT_N4mpl_5bool_ILb0EEE
FNA:5,0,_ZN5boost9unit_test8for_each4nextISt6vectorINSt7__cxx1112basic_stringIcSt11char_traitsIcESaIcEEESaIS9_EEEEvRKNS1_15static_any_baseERT_N4mpl_5bool_ILb0EEE
FNA:5,104,_ZN5boost9unit_test8for_each4nextISt6vectorImSaImEEEEvRKNS1_15static_any_baseERT_N4mpl_5bool_ILb0EEE
FNL:6,170,173
FNA:6,84,_ZN5boost9unit_test8for_each4nextISt3mapINS0_13basic_cstringIKcEENS_10shared_ptrINS_7runtime11basic_paramEEENS8_16parameters_store10lg_compareESaISt4pairIKS6_SA_EEEEEvRKNS1_15static_any_baseERKT_N4mpl_5bool_ILb1EEE
FNA:6,0,_ZN5boost9unit_test8for_each4nextISt6vectorINS0_13basic_cstringIKcEESaIS6_EEEEvRKNS1_15static_any_baseERKT_N4mpl_5bool_ILb1EEE
FNA:6,0,_ZN5boost9unit_test8for_each4nextISt6vectorINS_10shared_ptrINS0_17test_unit_fixtureEEESaIS6_EEEEvRKNS1_15static_any_baseERKT_N4mpl_5bool_ILb1EEE
FNA:6,0,_ZN5boost9unit_test8for_each4nextISt6vectorINS_10shared_ptrINS0_9decorator4baseEEESaIS7_EEEEvRKNS1_15static_any_baseERKT_N4mpl_5bool_ILb1EEE
FNA:6,71,_ZN5boost9unit_test8for_each4nextISt6vectorINS_7runtime16parameter_cla_idESaIS5_EEEEvRKNS1_15static_any_baseERKT_N4mpl_5bool_ILb1EEE
FNA:6,0,_ZN5boost9unit_test8for_each4nextISt6vectorINS_8functionIFNS_10test_tools16assertion_resultEmEEESaIS8_EEEEvRKNS1_15static_any_baseERKT_N4mpl_5bool_ILb1EEE
FNA:6,0,_ZN5boost9unit_test8for_each4nextISt6vectorINSt7__cxx1112basic_stringIcSt11char_traitsIcESaIcEEESaIS9_EEEEvRKNS1_15static_any_baseERKT_N4mpl_5bool_ILb1EEE
FNA:6,125,_ZN5boost9unit_test8for_each4nextISt6vectorImSaImEEEEvRKNS1_15static_any_baseERKT_N4mpl_5bool_ILb1EEE
FNA:6,52,_ZN5boost9unit_test8for_each4nextISt8multimapImmSt4lessImESaISt4pairIKmmEEEEEvRKNS1_15static_any_baseERKT_N4mpl_5bool_ILb1EEE
FNL:7,183,186
FNA:7,109,_ZN5boost9unit_test8for_each4prevISt3setIPNS0_13test_observerENS0_9framework5state14priority_orderESaIS5_EEEEvRKNS1_15static_any_baseERT_N4mpl_5bool_ILb0EEE
FNL:8,192,195
FNA:8,0,_ZN5boost9unit_test8for_each4prevISt6vectorINS_10shared_ptrINS0_17test_unit_fixtureEEESaIS6_EEEEvRKNS1_15static_any_baseERKT_N4mpl_5bool_ILb1EEE
FNL:9,205,208
FNA:9,0,_ZN5boost9unit_test8for_each5derefINS_10shared_ptrINS_7runtime3cla13rt_cla_detail14parameter_trieEEESt6vectorIS8_SaIS8_EEEET_RKNS1_15static_any_baseERT0_NS_4typeISC_EEN4mpl_5bool_ILb0EEE
FNA:9,494,_ZN5boost9unit_test8for_each5derefIPNS0_13test_observerESt3setIS4_NS0_9framework5state14priority_orderESaIS4_EEEET_RKNS1_15static_any_baseERT0_NS_4typeISB_EEN4mpl_5bool_ILb0EEE
FNA:9,0,_ZN5boost9unit_test8for_each5derefIPNS0_14global_fixtureESt3setIS4_St4lessIS4_ESaIS4_EEEET_RKNS1_15static_any_baseERT0_NS_4typeISA_EEN4mpl_5bool_ILb0EEE
FNA:9,0,_ZN5boost9unit_test8for_each5derefIPNS0_17test_unit_fixtureESt3setIPNS0_14global_fixtureESt4lessIS7_ESaIS7_EEEET_RKNS1_15static_any_baseERT0_NS_4typeISC_EEN4mpl_5bool_ILb0EEE
FNA:9,0,_ZN5boost9unit_test8for_each5derefIRKNS_7runtime16parameter_cla_idESt6vectorINS_17reference_wrapperIS5_EESaIS9_EEEET_RKNS1_15static_any_baseERT0_NS_4typeISC_EEN4mpl_5bool_ILb0EEE
FNA:9,0,_ZN5boost9unit_test8for_each5derefIRKNSt7__cxx1112basic_stringIcSt11char_traitsIcESaIcEEESt6vectorIS8_SaIS8_EEEET_RKNS1_15static_any_baseERT0_NS_4typeISE_EEN4mpl_5bool_ILb0EEE
FNA:9,0,_ZN5boost9unit_test8for_each5derefIRKSt4pairIKcNS_10shared_ptrINS_7runtime3cla13rt_cla_detail14parameter_trieEEEESt3mapIcSA_St4lessIcESaISB_EEEET_RKNS1_15static_any_baseERT0_NS_4typeISJ_EEN4mpl_5bool_ILb0EEE
FNA:9,0,_ZN5boost9unit_test8for_each5derefIcNS0_13basic_cstringIKcEEEET_RKNS1_15static_any_baseERT0_NS_4typeIS6_EEN4mpl_5bool_ILb0EEE
FNA:9,104,_ZN5boost9unit_test8for_each5derefImSt6vectorImSaImEEEET_RKNS1_15static_any_baseERT0_NS_4typeIS6_EEN4mpl_5bool_ILb0EEE
FNL:10,214,217
FNA:10,0,_ZN5boost9unit_test8for_each5derefINS0_13basic_cstringIKcEESt6vectorINSt7__cxx1112basic_stringIcSt11char_traitsIcESaIcEEESaISC_EEEET_RKNS1_15static_any_baseERKT0_NS_4typeISF_EEN4mpl_5bool_ILb1EEE
FNA:10,0,_ZN5boost9unit_test8for_each5derefINS0_13basic_cstringIKcEESt6vectorIS5_SaIS5_EEEET_RKNS1_15static_any_baseERKT0_NS_4typeIS9_EEN4mpl_5bool_ILb1EEE
FNA:10,0,_ZN5boost9unit_test8for_each5derefINS_10shared_ptrINS0_17test_unit_fixtureEEESt6vectorIS5_SaIS5_EEEET_RKNS1_15static_any_baseERKT0_NS_4typeIS9_EEN4mpl_5bool_ILb1EEE
FNA:10,0,_ZN5boost9unit_test8for_each5derefINS_10shared_ptrINS0_9decorator4baseEEESt6vectorIS6_SaIS6_EEEET_RKNS1_15static_any_baseERKT0_NS_4typeISA_EEN4mpl_5bool_ILb1EEE
FNA:10,0,_ZN5boost9unit_test8for_each5derefINS_8functionIFNS_10test_tools16assertion_resultEmEEESt6vectorIS7_SaIS7_EEEET_RKNS1_15static_any_baseERKT0_NS_4typeISB_EEN4mpl_5bool_ILb1EEE
FNA:10,71,_ZN5boost9unit_test8for_each5derefIRKNS_7runtime16parameter_cla_idESt6vectorIS4_SaIS4_EEEET_RKNS1_15static_any_baseERKT0_NS_4typeISA_EEN4mpl_5bool_ILb1EEE
FNA:10,0,_ZN5boost9unit_test8for_each5derefIRKNSt7__cxx1112basic_stringIcSt11char_traitsIcESaIcEEESt6vectorIS8_SaIS8_EEEET_RKNS1_15static_any_baseERKT0_NS_4typeISE_EEN4mpl_5bool_ILb1EEE
FNA:10,84,_ZN5boost9unit_test8for_each5derefIRKSt4pairIKNS0_13basic_cstringIKcEENS_10shared_ptrINS_7runtime11basic_paramEEEESt3mapIS6_SB_NS9_16parameters_store10lg_compareESaISC_EEEET_RKNS1_15static_any_baseERKT0_NS_4typeISK_EEN4mpl_5bool_ILb1EEE
FNA:10,52,_ZN5boost9unit_test8for_each5derefISt4pairImmESt8multimapImmSt4lessImESaIS3_IKmmEEEEET_RKNS1_15static_any_baseERKT0_NS_4typeISC_EEN4mpl_5bool_ILb1EEE
FNA:10,125,_ZN5boost9unit_test8for_each5derefImSt6vectorImSaImEEEET_RKNS1_15static_any_baseERKT0_NS_4typeIS6_EEN4mpl_5bool_ILb1EEE
FNL:11,46,46
FNA:11,1392,_ZNK5boost9unit_test8for_each15static_any_basecvbEv
FNL:12,54,54
FNA:12,0,_ZN5boost9unit_test8for_each10static_anyIN9__gnu_cxx17__normal_iteratorIPKNS0_13basic_cstringIKcEESt6vectorIS7_SaIS7_EEEEEC2ERKSD_
FNA:12,212,_ZN5boost9unit_test8for_each10static_anyIN9__gnu_cxx17__normal_iteratorIPKNS_10shared_ptrINS0_17test_unit_fixtureEEESt6vectorIS7_SaIS7_EEEEEC2ERKSD_
FNA:12,106,_ZN5boost9unit_test8for_each10static_anyIN9__gnu_cxx17__normal_iteratorIPKNS_10shared_ptrINS0_9decorator4baseEEESt6vectorIS8_SaIS8_EEEEEC2ERKSE_
FNA:12,56,_ZN5boost9unit_test8for_each10static_anyIN9__gnu_cxx17__normal_iteratorIPKNS_7runtime16parameter_cla_idESt6vectorIS6_SaIS6_EEEEEC2ERKSC_
FNA:12,106,_ZN5boost9unit_test8for_each10static_anyIN9__gnu_cxx17__normal_iteratorIPKNS_8functionIFNS_10test_tools16assertion_resultEmEEESt6vectorIS9_SaIS9_EEEEEC2ERKSF_
FNA:12,0,_ZN5boost9unit_test8for_each10static_anyIN9__gnu_cxx17__normal_iteratorIPKNSt7__cxx1112basic_stringIcSt11char_traitsIcESaIcEEESt6vectorISA_SaISA_EEEEEC2ERKSG_
FNA:12,362,_ZN5boost9unit_test8for_each10static_anyIN9__gnu_cxx17__normal_iteratorIPKmSt6vectorImSaImEEEEEC2ERKSA_
FNA:12,0,_ZN5boost9unit_test8for_each10static_anyIN9__gnu_cxx17__normal_iteratorIPNS_10shared_ptrINS_7runtime3cla13rt_cla_detail14parameter_trieEEESt6vectorISA_SaISA_EEEEEC2ERKSF_
FNA:12,0,_ZN5boost9unit_test8for_each10static_anyIN9__gnu_cxx17__normal_iteratorIPNS_17reference_wrapperIKNS_7runtime16parameter_cla_idEEESt6vectorIS9_SaIS9_EEEEEC2ERKSE_
FNA:12,0,_ZN5boost9unit_test8for_each10static_anyIN9__gnu_cxx17__normal_iteratorIPNSt7__cxx1112basic_stringIcSt11char_traitsIcESaIcEEESt6vectorISA_SaISA_EEEEEC2ERKSF_
FNA:12,32,_ZN5boost9unit_test8for_each10static_anyIN9__gnu_cxx17__normal_iteratorIPmSt6vectorImSaImEEEEEC2ERKS9_
FNA:12,0,_ZN5boost9unit_test8for_each10static_anyIPKcEC2ERKS4_
FNA:12,0,_ZN5boost9unit_test8for_each10static_anyISt17_Rb_tree_iteratorISt4pairIKcNS_10shared_ptrINS_7runtime3cla13rt_cla_detail14parameter_trieEEEEEEC2ERKSD_
FNA:12,492,_ZN5boost9unit_test8for_each10static_anyISt23_Rb_tree_const_iteratorIPNS0_13test_observerEEEC2ERKS6_
FNA:12,4,_ZN5boost9unit_test8for_each10static_anyISt23_Rb_tree_const_iteratorIPNS0_14global_fixtureEEEC2ERKS6_
FNA:12,6,_ZN5boost9unit_test8for_each10static_anyISt23_Rb_tree_const_iteratorISt4pairIKNS0_13basic_cstringIKcEENS_10shared_ptrINS_7runtime11basic_paramEEEEEEC2ERKSE_
FNA:12,16,_ZN5boost9unit_test8for_each10static_anyISt23_Rb_tree_const_iteratorISt4pairIKmmEEEC2ERKS7_
FNL:13,67,70
FNA:13,0,_ZN5boost9unit_test8for_each15static_any_castIN9__gnu_cxx17__normal_iteratorIPKNS0_13basic_cstringIKcEESt6vectorIS7_SaIS7_EEEEEERT_RKNS1_15static_any_baseEPSE_
FNA:13,212,_ZN5boost9unit_test8for_each15static_any_castIN9__gnu_cxx17__normal_iteratorIPKNS_10shared_ptrINS0_17test_unit_fixtureEEESt6vectorIS7_SaIS7_EEEEEERT_RKNS1_15static_any_baseEPSE_
FNA:13,106,_ZN5boost9unit_test8for_each15static_any_castIN9__gnu_cxx17__normal_iteratorIPKNS_10shared_ptrINS0_9decorator4baseEEESt6vectorIS8_SaIS8_EEEEEERT_RKNS1_15static_any_baseEPSF_
FNA:13,340,_ZN5boost9unit_test8for_each15static_any_castIN9__gnu_cxx17__normal_iteratorIPKNS_7runtime16parameter_cla_idESt6vectorIS6_SaIS6_EEEEEERT_RKNS1_15static_any_baseEPSD_
FNA:13,106,_ZN5boost9unit_test8for_each15static_any_castIN9__gnu_cxx17__normal_iteratorIPKNS_8functionIFNS_10test_tools16assertion_resultEmEEESt6vectorIS9_SaIS9_EEEEEERT_RKNS1_15static_any_baseEPSG_
FNA:13,0,_ZN5boost9unit_test8for_each15static_any_castIN9__gnu_cxx17__normal_iteratorIPKNSt7__cxx1112basic_stringIcSt11char_traitsIcESaIcEEESt6vectorISA_SaISA_EEEEEERT_RKNS1_15static_any_baseEPSH_
FNA:13,862,_ZN5boost9unit_test8for_each15static_any_castIN9__gnu_cxx17__normal_iteratorIPKmSt6vectorImSaImEEEEEERT_RKNS1_15static_any_baseEPSB_
FNA:13,0,_ZN5boost9unit_test8for_each15static_any_castIN9__gnu_cxx17__normal_iteratorIPNS_10shared_ptrINS_7runtime3cla13rt_cla_detail14parameter_trieEEESt6vectorISA_SaISA_EEEEEERT_RKNS1_15static_any_baseEPSG_
FNA:13,0,_ZN5boost9unit_test8for_each15static_any_castIN9__gnu_cxx17__normal_iteratorIPNS_17reference_wrapperIKNS_7runtime16parameter_cla_idEEESt6vectorIS9_SaIS9_EEEEEERT_RKNS1_15static_any_baseEPSF_
FNA:13,0,_ZN5boost9unit_test8for_each15static_any_castIN9__gnu_cxx17__normal_iteratorIPNSt7__cxx1112basic_stringIcSt11char_traitsIcESaIcEEESt6vectorISA_SaISA_EEEEEERT_RKNS1_15static_any_baseEPSG_
FNA:13,448,_ZN5boost9unit_test8for_each15static_any_castIN9__gnu_cxx17__normal_iteratorIPmSt6vectorImSaImEEEEEERT_RKNS1_15static_any_baseEPSA_
FNA:13,0,_ZN5boost9unit_test8for_each15static_any_castIPKcEERT_RKNS1_15static_any_baseEPS5_
FNA:13,0,_ZN5boost9unit_test8for_each15static_any_castISt17_Rb_tree_iteratorISt4pairIKcNS_10shared_ptrINS_7runtime3cla13rt_cla_detail14parameter_trieEEEEEEERT_RKNS1_15static_any_baseEPSE_
FNA:13,2468,_ZN5boost9unit_test8for_each15static_any_castISt23_Rb_tree_const_iteratorIPNS0_13test_observerEEEERT_RKNS1_15static_any_baseEPS7_
FNA:13,4,_ZN5boost9unit_test8for_each15static_any_castISt23_Rb_tree_const_iteratorIPNS0_14global_fixtureEEEERT_RKNS1_15static_any_baseEPS7_
FNA:13,342,_ZN5boost9unit_test8for_each15static_any_castISt23_Rb_tree_const_iteratorISt4pairIKNS0_13basic_cstringIKcEENS_10shared_ptrINS_7runtime11basic_paramEEEEEEERT_RKNS1_15static_any_baseEPSF_
FNA:13,224,_ZN5boost9unit_test8for_each15static_any_castISt23_Rb_tree_const_iteratorISt4pairIKmmEEEERT_RKNS1_15static_any_baseEPS8_
FNL:14,80,83
FNA:14,261,_ZN5boost9unit_test8for_each13is_const_collIKSt3mapINS0_13basic_cstringIKcEENS_10shared_ptrINS_7runtime11basic_paramEEENS8_16parameters_store10lg_compareESaISt4pairIKS6_SA_EEEEENS_8is_constIT_EERSK_
FNA:14,0,_ZN5boost9unit_test8for_each13is_const_collIKSt6vectorINS0_13basic_cstringIKcEESaIS6_EEEENS_8is_constIT_EERSB_
FNA:14,318,_ZN5boost9unit_test8for_each13is_const_collIKSt6vectorINS_10shared_ptrINS0_17test_unit_fixtureEEESaIS6_EEEENS_8is_constIT_EERSB_
FNA:14,159,_ZN5boost9unit_test8for_each13is_const_collIKSt6vectorINS_10shared_ptrINS0_9decorator4baseEEESaIS7_EEEENS_8is_constIT_EERSC_
FNA:14,297,_ZN5boost9unit_test8for_each13is_const_collIKSt6vectorINS_7runtime16parameter_cla_idESaIS5_EEEENS_8is_constIT_EERSA_
FNA:14,159,_ZN5boost9unit_test8for_each13is_const_collIKSt6vectorINS_8functionIFNS_10test_tools16assertion_resultEmEEESaIS8_EEEENS_8is_constIT_EERSD_
FNA:14,0,_ZN5boost9unit_test8for_each13is_const_collIKSt6vectorINSt7__cxx1112basic_stringIcSt11char_traitsIcESaIcEEESaIS9_EEEENS_8is_constIT_EERSE_
FNA:14,918,_ZN5boost9unit_test8for_each13is_const_collIKSt6vectorImSaImEEEENS_8is_constIT_EERS8_
FNA:14,180,_ZN5boost9unit_test8for_each13is_const_collIKSt8multimapImmSt4lessImESaISt4pairIKmmEEEEENS_8is_constIT_EERSD_
FNA:14,0,_ZN5boost9unit_test8for_each13is_const_collINS0_13basic_cstringIKcEEEENS_8is_constIT_EERS7_
FNA:14,0,_ZN5boost9unit_test8for_each13is_const_collISt3mapIcNS_10shared_ptrINS_7runtime3cla13rt_cla_detail14parameter_trieEEESt4lessIcESaISt4pairIKcS9_EEEEENS_8is_constIT_EERSI_
FNA:14,2220,_ZN5boost9unit_test8for_each13is_const_collISt3setIPNS0_13test_observerENS0_9framework5state14priority_orderESaIS5_EEEENS_8is_constIT_EERSC_
FNA:14,6,_ZN5boost9unit_test8for_each13is_const_collISt3setIPNS0_14global_fixtureESt4lessIS5_ESaIS5_EEEENS_8is_constIT_EERSB_
FNA:14,0,_ZN5boost9unit_test8for_each13is_const_collISt6vectorINS_10shared_ptrINS_7runtime3cla13rt_cla_detail14parameter_trieEEESaIS9_EEEENS_8is_constIT_EERSD_
FNA:14,0,_ZN5boost9unit_test8for_each13is_const_collISt6vectorINS_17reference_wrapperIKNS_7runtime16parameter_cla_idEEESaIS8_EEEENS_8is_constIT_EERSC_
FNA:14,0,_ZN5boost9unit_test8for_each13is_const_collISt6vectorINSt7__cxx1112basic_stringIcSt11char_traitsIcESaIcEEESaIS9_EEEENS_8is_constIT_EERSD_
FNA:14,360,_ZN5boost9unit_test8for_each13is_const_collISt6vectorImSaImEEEENS_8is_constIT_EERS7_
FNL:15,93,96
FNA:15,0,_ZN5boost9unit_test8for_each5beginINS0_13basic_cstringIKcEEEENS1_10static_anyINT_8iteratorEEERS7_N4mpl_5bool_ILb0EEE
FNA:15,0,_ZN5boost9unit_test8for_each5beginISt3mapIcNS_10shared_ptrINS_7runtime3cla13rt_cla_detail14parameter_trieEEESt4lessIcESaISt4pairIKcS9_EEEEENS1_10static_anyINT_8iteratorEEERSI_N4mpl_5bool_ILb0EEE
FNA:15,246,_ZN5boost9unit_test8for_each5beginISt3setIPNS0_13test_observerENS0_9framework5state14priority_orderESaIS5_EEEENS1_10static_anyINT_8iteratorEEERSC_N4mpl_5bool_ILb0EEE
FNA:15,2,_ZN5boost9unit_test8for_each5beginISt3setIPNS0_14global_fixtureESt4lessIS5_ESaIS5_EEEENS1_10static_anyINT_8iteratorEEERSB_N4mpl_5bool_ILb0EEE
FNA:15,0,_ZN5boost9unit_test8for_each5beginISt6vectorINS_10shared_ptrINS_7runtime3cla13rt_cla_detail14parameter_trieEEESaIS9_EEEENS1_10static_anyINT_8iteratorEEERSD_N4mpl_5bool_ILb0EEE
FNA:15,0,_ZN5boost9unit_test8for_each5beginISt6vectorINS_17reference_wrapperIKNS_7runtime16parameter_cla_idEEESaIS8_EEEENS1_10static_anyINT_8iteratorEEERSC_N4mpl_5bool_ILb0EEE
FNA:15,0,_ZN5boost9unit_test8for_each5beginISt6vectorINSt7__cxx1112basic_stringIcSt11char_traitsIcESaIcEEESaIS9_EEEENS1_10static_anyINT_8iteratorEEERSD_N4mpl_5bool_ILb0EEE
FNA:15,16,_ZN5boost9unit_test8for_each5beginISt6vectorImSaImEEEENS1_10static_anyINT_8iteratorEEERS7_N4mpl_5bool_ILb0EEE
FNF:16
FNH:15
DA:46,1392
DA:54,1392
DA:67,5112
DA:69,5112
DA:80,4878
DA:82,4878
DA:93,264
DA:95,264
DA:102,432
DA:104,432
DA:115,264
DA:117,264
DA:124,432
DA:126,432
DA:137,862
DA:139,862
DA:140,1724
DA:147,764
DA:149,764
DA:150,1528
DA:161,489
DA:163,489
DA:164,489
DA:170,332
DA:172,332
DA:173,332
DA:183,109
DA:185,109
DA:186,109
DA:192,0
DA:194,0
DA:195,0
DA:205,598
DA:207,702
DA:214,332
DA:216,528
LF:36
LH:33
end_of_record
TN:
SF:/usr/include/boost/test/utils/iterator/input_iterator_facade.hpp
FNL:0,39,42
FNA:0,0,_ZN5boost9unit_test5utils26input_iterator_core_access3getINS1_27basic_string_token_iteratorIcNS1_9ut_detail20default_char_compareIcEEEEEEbRT_
FNL:1,61,61
FNA:1,0,_ZN5boost9unit_test5utils21input_iterator_facadeINS1_27basic_string_token_iteratorIcNS1_9ut_detail20default_char_compareIcEEEENS0_13basic_cstringIKcEESA_NS_9iterators21forward_traversal_tagEEC2Ev
FNL:2,64,68
FNA:2,0,_ZN5boost9unit_test5utils21input_iterator_facadeINS1_27basic_string_token_iteratorIcNS1_9ut_detail20default_char_compareIcEEEENS0_13basic_cstringIKcEESA_NS_9iterators21forward_traversal_tagEE4initEv
FNL:3,78,83
FNA:3,0,_ZN5boost9unit_test5utils21input_iterator_facadeINS1_27basic_string_token_iteratorIcNS1_9ut_detail20default_char_compareIcEEEENS0_13basic_cstringIKcEESA_NS_9iterators21forward_traversal_tagEE9incrementEv
FNL:4,84,87
FNA:4,0,_ZNK5boost9unit_test5utils21input_iterator_facadeINS1_27basic_string_token_iteratorIcNS1_9ut_detail20default_char_compareIcEEEENS0_13basic_cstringIKcEESA_NS_9iterators21forward_traversal_tagEE11dereferenceEv
FNL:5,90,94
FNA:5,0,_ZNK5boost9unit_test5utils21input_iterator_facadeINS1_27basic_string_token_iteratorIcNS1_9ut_detail20default_char_compareIcEEEENS0_13basic_cstringIKcEESA_NS_9iterators21forward_traversal_tagEE5equalERKSD_
FNF:6
FNH:0
DA:39,0
DA:41,0
DA:61,0
DA:64,0
DA:66,0
DA:67,0
DA:68,0
DA:78,0
DA:81,0
DA:82,0
DA:83,0
DA:84,0
DA:86,0
DA:90,0
DA:93,0
LF:15
LH:0
end_of_record
TN:
SF:/usr/include/boost/test/utils/iterator/token_iterator.hpp
FNL:0,100,119
FNA:0,0,_ZN5boost9unit_test5utils9ut_detail12delim_policyIcNS2_20default_char_compareIcEEEclEc
FNL:1,142,142
FNA:1,0,_ZN5boost9unit_test5utils9ut_detail14token_assignerINS_9iterators27random_access_traversal_tagEE6assignIPKcNS0_13basic_cstringIS8_EEEEvT_SC_RT0_
FNL:2,145,145
FNA:2,0,_ZN5boost9unit_test5utils9ut_detail14token_assignerINS_9iterators27random_access_traversal_tagEE11append_moveIPKcNS0_13basic_cstringIS8_EEEEvRT_RT0_
FNL:3,190,197
FNA:3,0,_ZN5boost9unit_test5utils19token_iterator_baseINS1_27basic_string_token_iteratorIcNS1_9ut_detail20default_char_compareIcEEEEcS6_NS0_13basic_cstringIKcEESA_NS_9iterators21forward_traversal_tagEEC2Ev
FNL:4,201,213
FNA:4,0,_ZN5boost9unit_test5utils19token_iterator_baseINS1_27basic_string_token_iteratorIcNS1_9ut_detail20default_char_compareIcEEEEcS6_NS0_13basic_cstringIKcEESA_NS_9iterators21forward_traversal_tagEE14apply_modifierINS_3nfp23named_parameter_combineINSF_15named_parameterIKNS1_17ti_delimeter_typeENS1_12_GLOBAL__N_117kept_delimeters_tERSJ_EENSG_INSH_IPS9_NSK_20dropped_delimeters_tESO_EENSH_IbNSK_19keep_empty_tokens_tEbEEEEEEEEvRKT_
FNA:4,0,_ZN5boost9unit_test5utils19token_iterator_baseINS1_27basic_string_token_iteratorIcNS1_9ut_detail20default_char_compareIcEEEEcS6_NS0_13basic_cstringIKcEESA_NS_9iterators21forward_traversal_tagEE14apply_modifierINS_3nfp23named_parameter_combineINSF_15named_parameterIKNS1_17ti_delimeter_typeENS1_12_GLOBAL__N_117kept_delimeters_tERSJ_EENSH_IPS9_NSK_20dropped_delimeters_tESO_EEEEEEvRKT_
FNL:5,216,274
FNA:5,0,_ZN5boost9unit_test5utils19token_iterator_baseINS1_27basic_string_token_iteratorIcNS1_9ut_detail20default_char_compareIcEEEEcS6_NS0_13basic_cstringIKcEESA_NS_9iterators21forward_traversal_tagEE3getIPS9_EEbRT_SG_
FNL:6,296,296
FNA:6,0,_ZN5boost9unit_test5utils27basic_string_token_iteratorIcNS1_9ut_detail20default_char_compareIcEEEC2Ev
FNL:7,308,314
FNA:7,0,_ZN5boost9unit_test5utils27basic_string_token_iteratorIcNS1_9ut_detail20default_char_compareIcEEEC2INS_3nfp23named_parameter_combineINS8_15named_parameterIKNS1_17ti_delimeter_typeENS1_12_GLOBAL__N_117kept_delimeters_tERSC_EENS9_INSA_IPKcNSD_20dropped_delimeters_tESI_EENSA_IbNSD_19keep_empty_tokens_tEbEEEEEEEENS0_13basic_cstringISH_EERKT_
FNA:7,0,_ZN5boost9unit_test5utils27basic_string_token_iteratorIcNS1_9ut_detail20default_char_compareIcEEEC2INS_3nfp23named_parameter_combineINS8_15named_parameterIKNS1_17ti_delimeter_typeENS1_12_GLOBAL__N_117kept_delimeters_tERSC_EENSA_IPKcNSD_20dropped_delimeters_tESI_EEEEEENS0_13basic_cstringISH_EERKT_
FNL:8,320,328
FNA:8,0,_ZN5boost9unit_test5utils27basic_string_token_iteratorIcNS1_9ut_detail20default_char_compareIcEEE3getEv
FNL:9,66,73
FNA:9,0,_ZN5boost9unit_test5utils9ut_detail20default_char_compareIcEclEcc
FNL:10,85,89
FNA:10,0,_ZN5boost9unit_test5utils9ut_detail12delim_policyIcNS2_20default_char_compareIcEEEC2ENS1_17ti_delimeter_typeENS0_13basic_cstringIKcEE
FNL:11,91,91
FNA:11,0,_ZN5boost9unit_test5utils9ut_detail12delim_policyIcNS2_20default_char_compareIcEEE14set_delimetersENS1_17ti_delimeter_typeE
FNL:12,92,98
FNA:12,0,_ZN5boost9unit_test5utils9ut_detail12delim_policyIcNS2_20default_char_compareIcEEE14set_delimetersENS0_13basic_cstringIKcEE
FNF:13
FNH:0
DA:66,0
DA:71,0
DA:85,0
DA:86,0
DA:88,0
DA:89,0
DA:91,0
DA:92,0
DA:94,0
DA:96,0
DA:97,0
DA:98,0
DA:100,0
DA:102,0
DA:103,0
DA:104,0
DA:105,0
DA:106,0
DA:108,0
DA:110,0
DA:111,0
DA:112,0
DA:113,0
DA:114,0
DA:115,0
DA:118,0
DA:142,0
DA:145,0
DA:190,0
DA:191,0
DA:192,0
DA:193,0
DA:194,0
DA:195,0
DA:197,0
DA:201,0
DA:203,0
DA:204,0
DA:206,0
DA:207,0
DA:209,0
DA:210,0
DA:212,0
DA:213,0
DA:216,0
DA:221,0
DA:223,0
DA:224,0
DA:225,0
DA:227,0
DA:228,0
DA:230,0
DA:232,0
DA:233,0
DA:234,0
DA:235,0
DA:236,0
DA:238,0
DA:239,0
DA:241,0
DA:244,0
DA:246,0
DA:247,0
DA:248,0
DA:250,0
DA:252,0
DA:253,0
DA:254,0
DA:256,0
DA:258,0
DA:259,0
DA:261,0
DA:262,0
DA:264,0
DA:265,0
DA:267,0
DA:271,0
DA:273,0
DA:296,0
DA:308,0
DA:309,0
DA:311,0
DA:313,0
DA:314,0
DA:320,0
DA:322,0
DA:323,0
DA:325,0
DA:327,0
LF:89
LH:0
end_of_record
TN:
SF:/usr/include/boost/test/utils/lazy_ostream.hpp
FNL:0,103,107
FNA:0,5,_ZN5boost9unit_testlsINS0_12lazy_ostreamEA11_cNSt7__cxx1112basic_stringIcSt11char_traitsIcESaIcEEEEENS0_17lazy_ostream_implINSA_IT_T0_RKSC_EET1_RKSG_EERKSF_SI_
FNA:0,0,_ZN5boost9unit_testlsINS0_12lazy_ostreamEA16_cNS0_13basic_cstringIKcEEEENS0_17lazy_ostream_implINS7_IT_T0_RKS9_EET1_RKSD_EERKSC_SF_
FNA:0,0,_ZN5boost9unit_testlsINS0_12lazy_ostreamEA25_cNS0_13basic_cstringIKcEEEENS0_17lazy_ostream_implINS7_IT_T0_RKS9_EET1_RKSD_EERKSC_SF_
FNA:0,0,_ZN5boost9unit_testlsINS0_12lazy_ostreamEA42_cjEENS0_17lazy_ostream_implINS4_IT_T0_RKS6_EET1_RKSA_EERKS9_SC_
FNA:0,5,_ZN5boost9unit_testlsINS0_17lazy_ostream_implINS0_12lazy_ostreamEA11_cRA11_KcEENSt7__cxx1112basic_stringIcSt11char_traitsIcESaIcEEEA30_cEENS2_INS2_IT_T0_RKSH_EET1_RKSL_EERKSK_SN_
FNA:0,0,_ZN5boost9unit_testlsINS0_17lazy_ostream_implINS0_12lazy_ostreamEA11_cRA11_KcEENSt7__cxx1112basic_stringIcSt11char_traitsIcESaIcEEEA34_cEENS2_INS2_IT_T0_RKSH_EET1_RKSL_EERKSK_SN_
FNA:0,0,_ZN5boost9unit_testlsINS0_17lazy_ostream_implINS0_12lazy_ostreamEA16_cRA16_KcEENS0_13basic_cstringIS5_EEcEENS2_INS2_IT_T0_RKSC_EET1_RKSG_EERKSF_SI_
FNA:0,0,_ZN5boost9unit_testlsINS0_17lazy_ostream_implINS0_12lazy_ostreamEA25_cRA25_KcEENS0_13basic_cstringIS5_EEA6_cEENS2_INS2_IT_T0_RKSD_EET1_RKSH_EERKSG_SJ_
FNA:0,0,_ZN5boost9unit_testlsINS0_17lazy_ostream_implINS2_INS0_12lazy_ostreamEA16_cRA16_KcEENS0_13basic_cstringIS5_EERKSA_EEcNSt7__cxx1112basic_stringIcSt11char_traitsIcESaIcEEEEENS2_INS2_IT_T0_RKSL_EET1_RKSP_EERKSO_SR_
FNA:0,0,_ZN5boost9unit_testlsINS0_17lazy_ostream_implINS2_INS0_12lazy_ostreamEA25_cRA25_KcEENS0_13basic_cstringIS5_EERKSA_EEA6_cA8_cEENS2_INS2_IT_T0_RKSH_EET1_RKSL_EERKSK_SN_
FNA:0,0,_ZN5boost9unit_testlsINS0_17lazy_ostream_implINS2_INS2_INS0_12lazy_ostreamEA16_cRA16_KcEENS0_13basic_cstringIS5_EERKSA_EEcRS5_EENSt7__cxx1112basic_stringIcSt11char_traitsIcESaIcEEEA26_cEENS2_INS2_IT_T0_RKSO_EET1_RKSS_EERKSR_SU_
FNA:0,0,_ZN5boost9unit_testlsINS0_17lazy_ostream_implINS2_INS2_INS2_INS0_12lazy_ostreamEA16_cRA16_KcEENS0_13basic_cstringIS5_EERKSA_EEcRS5_EENSt7__cxx1112basic_stringIcSt11char_traitsIcESaIcEEERKSL_EEA26_cSA_EENS2_INS2_IT_T0_RKSR_EET1_RKSV_EERKSU_SX_
FNA:0,0,_ZN5boost9unit_testlsINS0_17lazy_ostream_implINS2_INS2_INS2_INS2_INS0_12lazy_ostreamEA16_cRA16_KcEENS0_13basic_cstringIS5_EERKSA_EEcRS5_EENSt7__cxx1112basic_stringIcSt11char_traitsIcESaIcEEERKSL_EEA26_cRA26_S5_EESA_cEENS2_INS2_IT_T0_RKSU_EET1_RKSY_EERKSX_S10_
FNA:0,0,_ZN5boost9unit_testlsINS0_17lazy_ostream_implINS2_INS2_INS2_INS2_INS2_INS0_12lazy_ostreamEA16_cRA16_KcEENS0_13basic_cstringIS5_EERKSA_EEcRS5_EENSt7__cxx1112basic_stringIcSt11char_traitsIcESaIcEEERKSL_EEA26_cRA26_S5_EESA_SC_EEcSL_EENS2_INS2_IT_T0_RKSV_EET1_RKSZ_EERKSY_S11_
FNL:1,34,34
FNA:1,0,_ZN5boost9unit_test12lazy_ostreamD0Ev
FNA:1,313,_ZN5boost9unit_test12lazy_ostreamD2Ev
FNL:2,36,36
FNA:2,302,_ZN5boost9unit_test12lazy_ostream8instanceEv
FNL:3,40,40
FNA:3,0,_ZN5boost9unit_testlsERSoRKNS0_12lazy_ostreamE
FNL:4,49,49
FNA:4,62,_ZNK5boost9unit_test12lazy_ostream5emptyEv
FNL:5,52,52
FNA:5,0,_ZNK5boost9unit_test12lazy_ostreamclERSo
FNL:6,54,54
FNA:6,313,_ZN5boost9unit_test12lazy_ostreamC2Eb
FNL:7,73,78
FNA:7,5,_ZN5boost9unit_test17lazy_ostream_implINS0_12lazy_ostreamEA11_cRA11_KcEC2ERKS2_S6_
FNA:7,0,_ZN5boost9unit_test17lazy_ostream_implINS0_12lazy_ostreamEA16_cRA16_KcEC2ERKS2_S6_
FNA:7,80,_ZN5boost9unit_test17lazy_ostream_implINS0_12lazy_ostreamEA1_cRA1_KcEC2ERKS2_S6_
FNA:7,0,_ZN5boost9unit_test17lazy_ostream_implINS0_12lazy_ostreamEA25_cRA25_KcEC2ERKS2_S6_
FNA:7,0,_ZN5boost9unit_test17lazy_ostream_implINS0_12lazy_ostreamEA42_cRA42_KcEC2ERKS2_S6_
FNA:7,4,_ZN5boost9unit_test17lazy_ostream_implINS0_12lazy_ostreamEA43_cRA43_KcEC2ERKS2_S6_
FNA:7,4,_ZN5boost9unit_test17lazy_ostream_implINS0_12lazy_ostreamEA44_cRA44_KcEC2ERKS2_S6_
FNA:7,20,_ZN5boost9unit_test17lazy_ostream_implINS0_12lazy_ostreamEA45_cRA45_KcEC2ERKS2_S6_
FNA:7,2,_ZN5boost9unit_test17lazy_ostream_implINS0_12lazy_ostreamEA46_cRA46_KcEC2ERKS2_S6_
FNA:7,2,_ZN5boost9unit_test17lazy_ostream_implINS0_12lazy_ostreamEA47_cRA47_KcEC2ERKS2_S6_
FNA:7,1,_ZN5boost9unit_test17lazy_ostream_implINS0_12lazy_ostreamEA48_cRA48_KcEC2ERKS2_S6_
FNA:7,0,_ZN5boost9unit_test17lazy_ostream_implINS0_12lazy_ostreamEA49_cRA49_KcEC2ERKS2_S6_
FNA:7,0,_ZN5boost9unit_test17lazy_ostream_implINS0_12lazy_ostreamEA50_cRA50_KcEC2ERKS2_S6_
FNA:7,0,_ZN5boost9unit_test17lazy_ostream_implINS0_12lazy_ostreamEA51_cRA51_KcEC2ERKS2_S6_
FNA:7,24,_ZN5boost9unit_test17lazy_ostream_implINS0_12lazy_ostreamENS0_13basic_cstringIKcEERKS5_EC2ERKS2_S7_
FNA:7,2,_ZN5boost9unit_test17lazy_ostream_implINS0_12lazy_ostreamENS_10test_tools9tt_detail14print_helper_tIA2_cEERKS7_EC2ERKS2_S9_
FNA:7,8,_ZN5boost9unit_test17lazy_ostream_implINS0_12lazy_ostreamENS_10test_tools9tt_detail14print_helper_tIA4_cEERKS7_EC2ERKS2_S9_
FNA:7,1,_ZN5boost9unit_test17lazy_ostream_implINS0_12lazy_ostreamENS_10test_tools9tt_detail14print_helper_tIA5_cEERKS7_EC2ERKS2_S9_
FNA:7,15,_ZN5boost9unit_test17lazy_ostream_implINS0_12lazy_ostreamENS_10test_tools9tt_detail14print_helper_tIA6_cEERKS7_EC2ERKS2_S9_
FNA:7,9,_ZN5boost9unit_test17lazy_ostream_implINS0_12lazy_ostreamENS_10test_tools9tt_detail14print_helper_tIA7_cEERKS7_EC2ERKS2_S9_
FNA:7,1,_ZN5boost9unit_test17lazy_ostream_implINS0_12lazy_ostreamENS_10test_tools9tt_detail14print_helper_tIA9_cEERKS7_EC2ERKS2_S9_
FNA:7,36,_ZN5boost9unit_test17lazy_ostream_implINS0_12lazy_ostreamENS_10test_tools9tt_detail14print_helper_tINSt7__cxx1112basic_stringIcSt11char_traitsIcESaIcEEEEERKSC_EC2ERKS2_SE_
FNA:7,70,_ZN5boost9unit_test17lazy_ostream_implINS0_12lazy_ostreamENS_10test_tools9tt_detail14print_helper_tIiEERKS6_EC2ERKS2_S8_
FNA:7,18,_ZN5boost9unit_test17lazy_ostream_implINS0_12lazy_ostreamENS_10test_tools9tt_detail14print_helper_tImEERKS6_EC2ERKS2_S8_
FNA:7,5,_ZN5boost9unit_test17lazy_ostream_implINS1_INS0_12lazy_ostreamEA11_cRA11_KcEENSt7__cxx1112basic_stringIcSt11char_traitsIcESaIcEEERKSD_EC2ERKS7_SF_
FNA:7,0,_ZN5boost9unit_test17lazy_ostream_implINS1_INS0_12lazy_ostreamEA16_cRA16_KcEENS0_13basic_cstringIS4_EERKS9_EC2ERKS7_SB_
FNA:7,0,_ZN5boost9unit_test17lazy_ostream_implINS1_INS0_12lazy_ostreamEA25_cRA25_KcEENS0_13basic_cstringIS4_EERKS9_EC2ERKS7_SB_
FNA:7,0,_ZN5boost9unit_test17lazy_ostream_implINS1_INS0_12lazy_ostreamEA42_cRA42_KcEEjRKjEC2ERKS7_S9_
FNA:7,5,_ZN5boost9unit_test17lazy_ostream_implINS1_INS1_INS0_12lazy_ostreamEA11_cRA11_KcEENSt7__cxx1112basic_stringIcSt11char_traitsIcESaIcEEERKSD_EEA30_cRA30_S4_EC2ERKSG_SJ_
FNA:7,0,_ZN5boost9unit_test17lazy_ostream_implINS1_INS1_INS0_12lazy_ostreamEA11_cRA11_KcEENSt7__cxx1112basic_stringIcSt11char_traitsIcESaIcEEERKSD_EEA34_cRA34_S4_EC2ERKSG_SJ_
FNA:7,0,_ZN5boost9unit_test17lazy_ostream_implINS1_INS1_INS0_12lazy_ostreamEA16_cRA16_KcEENS0_13basic_cstringIS4_EERKS9_EEcRS4_EC2ERKSC_SD_
FNA:7,0,_ZN5boost9unit_test17lazy_ostream_implINS1_INS1_INS0_12lazy_ostreamEA25_cRA25_KcEENS0_13basic_cstringIS4_EERKS9_EEA6_cRA6_S4_EC2ERKSC_SF_
FNA:7,0,_ZN5boost9unit_test17lazy_ostream_implINS1_INS1_INS1_INS0_12lazy_ostreamEA16_cRA16_KcEENS0_13basic_cstringIS4_EERKS9_EEcRS4_EENSt7__cxx1112basic_stringIcSt11char_traitsIcESaIcEEERKSK_EC2ERKSE_SM_
FNA:7,0,_ZN5boost9unit_test17lazy_ostream_implINS1_INS1_INS1_INS0_12lazy_ostreamEA25_cRA25_KcEENS0_13basic_cstringIS4_EERKS9_EEA6_cRA6_S4_EEA8_cRA8_S4_EC2ERKSG_SJ_
FNA:7,0,_ZN5boost9unit_test17lazy_ostream_implINS1_INS1_INS1_INS1_INS0_12lazy_ostreamEA16_cRA16_KcEENS0_13basic_cstringIS4_EERKS9_EEcRS4_EENSt7__cxx1112basic_stringIcSt11char_traitsIcESaIcEEERKSK_EEA26_cRA26_S4_EC2ERKSN_SQ_
FNA:7,0,_ZN5boost9unit_test17lazy_ostream_implINS1_INS1_INS1_INS1_INS1_INS0_12lazy_ostreamEA16_cRA16_KcEENS0_13basic_cstringIS4_EERKS9_EEcRS4_EENSt7__cxx1112basic_stringIcSt11char_traitsIcESaIcEEERKSK_EEA26_cRA26_S4_EES9_SB_EC2ERKSR_SB_
FNA:7,0,_ZN5boost9unit_test17lazy_ostream_implINS1_INS1_INS1_INS1_INS1_INS1_INS0_12lazy_ostreamEA16_cRA16_KcEENS0_13basic_cstringIS4_EERKS9_EEcRS4_EENSt7__cxx1112basic_stringIcSt11char_traitsIcESaIcEEERKSK_EEA26_cRA26_S4_EES9_SB_EEcSD_EC2ERKSS_SD_
FNA:7,0,_ZN5boost9unit_test17lazy_ostream_implINS1_INS1_INS1_INS1_INS1_INS1_INS1_INS0_12lazy_ostreamEA16_cRA16_KcEENS0_13basic_cstringIS4_EERKS9_EEcRS4_EENSt7__cxx1112basic_stringIcSt11char_traitsIcESaIcEEERKSK_EEA26_cRA26_S4_EES9_SB_EEcSD_EESK_SM_EC2ERKST_SM_
FNL:8,80,83
FNA:8,0,_ZNK5boost9unit_test17lazy_ostream_implINS0_12lazy_ostreamEA11_cRA11_KcEclERSo
FNA:8,0,_ZNK5boost9unit_test17lazy_ostream_implINS0_12lazy_ostreamEA16_cRA16_KcEclERSo
FNA:8,0,_ZNK5boost9unit_test17lazy_ostream_implINS0_12lazy_ostreamEA1_cRA1_KcEclERSo
FNA:8,0,_ZNK5boost9unit_test17lazy_ostream_implINS0_12lazy_ostreamEA25_cRA25_KcEclERSo
FNA:8,0,_ZNK5boost9unit_test17lazy_ostream_implINS0_12lazy_ostreamEA42_cRA42_KcEclERSo
FNA:8,0,_ZNK5boost9unit_test17lazy_ostream_implINS0_12lazy_ostreamEA43_cRA43_KcEclERSo
FNA:8,0,_ZNK5boost9unit_test17lazy_ostream_implINS0_12lazy_ostreamEA44_cRA44_KcEclERSo
FNA:8,0,_ZNK5boost9unit_test17lazy_ostream_implINS0_12lazy_ostreamEA45_cRA45_KcEclERSo
FNA:8,0,_ZNK5boost9unit_test17lazy_ostream_implINS0_12lazy_ostreamEA46_cRA46_KcEclERSo
FNA:8,0,_ZNK5boost9unit_test17lazy_ostream_implINS0_12lazy_ostreamEA47_cRA47_KcEclERSo
FNA:8,0,_ZNK5boost9unit_test17lazy_ostream_implINS0_12lazy_ostreamEA48_cRA48_KcEclERSo
FNA:8,0,_ZNK5boost9unit_test17lazy_ostream_implINS0_12lazy_ostreamEA49_cRA49_KcEclERSo
FNA:8,0,_ZNK5boost9unit_test17lazy_ostream_implINS0_12lazy_ostreamEA50_cRA50_KcEclERSo
FNA:8,0,_ZNK5boost9unit_test17lazy_ostream_implINS0_12lazy_ostreamEA51_cRA51_KcEclERSo
FNA:8,0,_ZNK5boost9unit_test17lazy_ostream_implINS0_12lazy_ostreamENS0_13basic_cstringIKcEERKS5_EclERSo
FNA:8,0,_ZNK5boost9unit_test17lazy_ostream_implINS0_12lazy_ostreamENS_10test_tools9tt_detail14print_helper_tIA2_cEERKS7_EclERSo
FNA:8,0,_ZNK5boost9unit_test17lazy_ostream_implINS0_12lazy_ostreamENS_10test_tools9tt_detail14print_helper_tIA4_cEERKS7_EclERSo
FNA:8,0,_ZNK5boost9unit_test17lazy_ostream_implINS0_12lazy_ostreamENS_10test_tools9tt_detail14print_helper_tIA5_cEERKS7_EclERSo
FNA:8,0,_ZNK5boost9unit_test17lazy_ostream_implINS0_12lazy_ostreamENS_10test_tools9tt_detail14print_helper_tIA6_cEERKS7_EclERSo
FNA:8,0,_ZNK5boost9unit_test17lazy_ostream_implINS0_12lazy_ostreamENS_10test_tools9tt_detail14print_helper_tIA7_cEERKS7_EclERSo
FNA:8,0,_ZNK5boost9unit_test17lazy_ostream_implINS0_12lazy_ostreamENS_10test_tools9tt_detail14print_helper_tIA9_cEERKS7_EclERSo
FNA:8,0,_ZNK5boost9unit_test17lazy_ostream_implINS0_12lazy_ostreamENS_10test_tools9tt_detail14print_helper_tINSt7__cxx1112basic_stringIcSt11char_traitsIcESaIcEEEEERKSC_EclERSo
FNA:8,0,_ZNK5boost9unit_test17lazy_ostream_implINS0_12lazy_ostreamENS_10test_tools9tt_detail14print_helper_tIiEERKS6_EclERSo
FNA:8,0,_ZNK5boost9unit_test17lazy_ostream_implINS0_12lazy_ostreamENS_10test_tools9tt_detail14print_helper_tImEERKS6_EclERSo
FNA:8,0,_ZNK5boost9unit_test17lazy_ostream_implINS1_INS0_12lazy_ostreamEA11_cRA11_KcEENSt7__cxx1112basic_stringIcSt11char_traitsIcESaIcEEERKSD_EclERSo
FNA:8,0,_ZNK5boost9unit_test17lazy_ostream_implINS1_INS0_12lazy_ostreamEA16_cRA16_KcEENS0_13basic_cstringIS4_EERKS9_EclERSo
FNA:8,0,_ZNK5boost9unit_test17lazy_ostream_implINS1_INS0_12lazy_ostreamEA25_cRA25_KcEENS0_13basic_cstringIS4_EERKS9_EclERSo
FNA:8,0,_ZNK5boost9unit_test17lazy_ostream_implINS1_INS0_12lazy_ostreamEA42_cRA42_KcEEjRKjEclERSo
FNA:8,0,_ZNK5boost9unit_test17lazy_ostream_implINS1_INS1_INS0_12lazy_ostreamEA11_cRA11_KcEENSt7__cxx1112basic_stringIcSt11char_traitsIcESaIcEEERKSD_EEA30_cRA30_S4_EclERSo
FNA:8,0,_ZNK5boost9unit_test17lazy_ostream_implINS1_INS1_INS0_12lazy_ostreamEA11_cRA11_KcEENSt7__cxx1112basic_stringIcSt11char_traitsIcESaIcEEERKSD_EEA34_cRA34_S4_EclERSo
FNA:8,0,_ZNK5boost9unit_test17lazy_ostream_implINS1_INS1_INS0_12lazy_ostreamEA16_cRA16_KcEENS0_13basic_cstringIS4_EERKS9_EEcRS4_EclERSo
FNA:8,0,_ZNK5boost9unit_test17lazy_ostream_implINS1_INS1_INS0_12lazy_ostreamEA25_cRA25_KcEENS0_13basic_cstringIS4_EERKS9_EEA6_cRA6_S4_EclERSo
FNA:8,0,_ZNK5boost9unit_test17lazy_ostream_implINS1_INS1_INS1_INS0_12lazy_ostreamEA16_cRA16_KcEENS0_13basic_cstringIS4_EERKS9_EEcRS4_EENSt7__cxx1112basic_stringIcSt11char_traitsIcESaIcEEERKSK_EclERSo
FNA:8,0,_ZNK5boost9unit_test17lazy_ostream_implINS1_INS1_INS1_INS0_12lazy_ostreamEA25_cRA25_KcEENS0_13basic_cstringIS4_EERKS9_EEA6_cRA6_S4_EEA8_cRA8_S4_EclERSo
FNA:8,0,_ZNK5boost9unit_test17lazy_ostream_implINS1_INS1_INS1_INS1_INS0_12lazy_ostreamEA16_cRA16_KcEENS0_13basic_cstringIS4_EERKS9_EEcRS4_EENSt7__cxx1112basic_stringIcSt11char_traitsIcESaIcEEERKSK_EEA26_cRA26_S4_EclERSo
FNA:8,0,_ZNK5boost9unit_test17lazy_ostream_implINS1_INS1_INS1_INS1_INS1_INS0_12lazy_ostreamEA16_cRA16_KcEENS0_13basic_cstringIS4_EERKS9_EEcRS4_EENSt7__cxx1112basic_stringIcSt11char_traitsIcESaIcEEERKSK_EEA26_cRA26_S4_EES9_SB_EclERSo
FNA:8,0,_ZNK5boost9unit_test17lazy_ostream_implINS1_INS1_INS1_INS1_INS1_INS1_INS0_12lazy_ostreamEA16_cRA16_KcEENS0_13basic_cstringIS4_EERKS9_EEcRS4_EENSt7__cxx1112basic_stringIcSt11char_traitsIcESaIcEEERKSK_EEA26_cRA26_S4_EES9_SB_EEcSD_EclERSo
FNA:8,0,_ZNK5boost9unit_test17lazy_ostream_implINS1_INS1_INS1_INS1_INS1_INS1_INS1_INS0_12lazy_ostreamEA16_cRA16_KcEENS0_13basic_cstringIS4_EERKS9_EEcRS4_EENSt7__cxx1112basic_stringIcSt11char_traitsIcESaIcEEERKSK_EEA26_cRA26_S4_EES9_SB_EEcSD_EESK_SM_EclERSo
FNL:9,94,97
FNA:9,5,_ZN5boost9unit_testlsIA11_cEENS0_17lazy_ostream_implINS0_12lazy_ostreamET_RKS5_EERKS4_S7_
FNA:9,0,_ZN5boost9unit_testlsIA16_cEENS0_17lazy_ostream_implINS0_12lazy_ostreamET_RKS5_EERKS4_S7_
FNA:9,80,_ZN5boost9unit_testlsIA1_cEENS0_17lazy_ostream_implINS0_12lazy_ostreamET_RKS5_EERKS4_S7_
FNA:9,0,_ZN5boost9unit_testlsIA25_cEENS0_17lazy_ostream_implINS0_12lazy_ostreamET_RKS5_EERKS4_S7_
FNA:9,0,_ZN5boost9unit_testlsIA42_cEENS0_17lazy_ostream_implINS0_12lazy_ostreamET_RKS5_EERKS4_S7_
FNA:9,4,_ZN5boost9unit_testlsIA43_cEENS0_17lazy_ostream_implINS0_12lazy_ostreamET_RKS5_EERKS4_S7_
FNA:9,4,_ZN5boost9unit_testlsIA44_cEENS0_17lazy_ostream_implINS0_12lazy_ostreamET_RKS5_EERKS4_S7_
FNA:9,20,_ZN5boost9unit_testlsIA45_cEENS0_17lazy_ostream_implINS0_12lazy_ostreamET_RKS5_EERKS4_S7_
FNA:9,2,_ZN5boost9unit_testlsIA46_cEENS0_17lazy_ostream_implINS0_12lazy_ostreamET_RKS5_EERKS4_S7_
FNA:9,2,_ZN5boost9unit_testlsIA47_cEENS0_17lazy_ostream_implINS0_12lazy_ostreamET_RKS5_EERKS4_S7_
FNA:9,1,_ZN5boost9unit_testlsIA48_cEENS0_17lazy_ostream_implINS0_12lazy_ostreamET_RKS5_EERKS4_S7_
FNA:9,0,_ZN5boost9unit_testlsIA49_cEENS0_17lazy_ostream_implINS0_12lazy_ostreamET_RKS5_EERKS4_S7_
FNA:9,0,_ZN5boost9unit_testlsIA50_cEENS0_17lazy_ostream_implINS0_12lazy_ostreamET_RKS5_EERKS4_S7_
FNA:9,0,_ZN5boost9unit_testlsIA51_cEENS0_17lazy_ostream_implINS0_12lazy_ostreamET_RKS5_EERKS4_S7_
FNA:9,24,_ZN5boost9unit_testlsINS0_13basic_cstringIKcEEEENS0_17lazy_ostream_implINS0_12lazy_ostreamET_RKS7_EERKS6_S9_
FNA:9,2,_ZN5boost9unit_testlsINS_10test_tools9tt_detail14print_helper_tIA2_cEEEENS0_17lazy_ostream_implINS0_12lazy_ostreamET_RKS9_EERKS8_SB_
FNA:9,8,_ZN5boost9unit_testlsINS_10test_tools9tt_detail14print_helper_tIA4_cEEEENS0_17lazy_ostream_implINS0_12lazy_ostreamET_RKS9_EERKS8_SB_
FNA:9,1,_ZN5boost9unit_testlsINS_10test_tools9tt_detail14print_helper_tIA5_cEEEENS0_17lazy_ostream_implINS0_12lazy_ostreamET_RKS9_EERKS8_SB_
FNA:9,15,_ZN5boost9unit_testlsINS_10test_tools9tt_detail14print_helper_tIA6_cEEEENS0_17lazy_ostream_implINS0_12lazy_ostreamET_RKS9_EERKS8_SB_
FNA:9,9,_ZN5boost9unit_testlsINS_10test_tools9tt_detail14print_helper_tIA7_cEEEENS0_17lazy_ostream_implINS0_12lazy_ostreamET_RKS9_EERKS8_SB_
FNA:9,1,_ZN5boost9unit_testlsINS_10test_tools9tt_detail14print_helper_tIA9_cEEEENS0_17lazy_ostream_implINS0_12lazy_ostreamET_RKS9_EERKS8_SB_
FNA:9,36,_ZN5boost9unit_testlsINS_10test_tools9tt_detail14print_helper_tINSt7__cxx1112basic_stringIcSt11char_traitsIcESaIcEEEEEEENS0_17lazy_ostream_implINS0_12lazy_ostreamET_RKSE_EERKSD_SG_
FNA:9,70,_ZN5boost9unit_testlsINS_10test_tools9tt_detail14print_helper_tIiEEEENS0_17lazy_ostream_implINS0_12lazy_ostreamET_RKS8_EERKS7_SA_
FNA:9,18,_ZN5boost9unit_testlsINS_10test_tools9tt_detail14print_helper_tImEEEENS0_17lazy_ostream_implINS0_12lazy_ostreamET_RKS8_EERKS7_SA_
FNF:10
FNH:7
DA:34,313
DA:36,302
DA:40,0
DA:49,62
DA:52,0
DA:54,313
DA:73,312
DA:75,312
DA:76,312
DA:78,312
DA:80,0
DA:82,0
DA:94,302
DA:96,302
DA:103,10
DA:106,10
LF:16
LH:12
end_of_record
TN:
SF:/usr/include/boost/test/utils/named_params.hpp
FNL:0,116,119
FNA:0,0,_ZN5boost3nfp10nfp_detail34report_access_to_invalid_parameterEb
FNL:1,137,138
FNA:1,0,_ZNK5boost3nfp3nil8any_castIPKcEET_v
FNA:1,0,_ZNK5boost3nfp3nil8any_castIRKNS_9unit_test12report_levelEEET_v
FNA:1,0,_ZNK5boost3nfp3nil8any_castIRKNS_9unit_test13basic_cstringIKcEEEET_v
FNA:1,0,_ZNK5boost3nfp3nil8any_castIRKNS_9unit_test13output_formatEEET_v
FNA:1,0,_ZNK5boost3nfp3nil8any_castIRKNS_9unit_test5utils17ti_delimeter_typeEEET_v
FNA:1,0,_ZNK5boost3nfp3nil8any_castIRKNS_9unit_test9log_levelEEET_v
FNA:1,0,_ZNK5boost3nfp3nil8any_castIRKNSt7__cxx1112basic_stringIcSt11char_traitsIcESaIcEEEEET_v
FNA:1,0,_ZNK5boost3nfp3nil8any_castIRKSt16initializer_listISt4pairIKNS_9unit_test13basic_cstringIKcEENS5_12report_levelEEEEET_v
FNA:1,0,_ZNK5boost3nfp3nil8any_castIRKSt16initializer_listISt4pairIKNS_9unit_test13basic_cstringIKcEENS5_13output_formatEEEEET_v
FNA:1,0,_ZNK5boost3nfp3nil8any_castIRKSt16initializer_listISt4pairIKNS_9unit_test13basic_cstringIKcEENS5_9log_levelEEEEET_v
FNA:1,0,_ZNK5boost3nfp3nil8any_castIRKZNS_9unit_test14runtime_config12_GLOBAL__N_1L19register_parametersERNS_7runtime16parameters_storeEEUlNS3_13basic_cstringIKcEEE_EET_v
FNA:1,0,_ZNK5boost3nfp3nil8any_castIRKbEET_v
FNA:1,0,_ZNK5boost3nfp3nil8any_castIRKjEET_v
FNA:1,0,_ZNK5boost3nfp3nil8any_castIRKlEET_v
FNL:2,156,156
FNA:2,0,_ZN5boost3nfp3nil4instEv
FNL:3,158,158
FNA:3,0,_ZN5boost3nfp3nilC2Ev
FNL:4,171,171
FNA:4,1,_ZNK5boost3nfp10nfp_detail20named_parameter_baseINS0_15named_parameterIKNS_9unit_test13basic_cstringIKcEENS_7runtime12_GLOBAL__N_113description_tERS8_EEEcmINS3_IKNSt7__cxx1112basic_stringIcSt11char_traitsIcESaIcEEENSA_16optional_value_tERSM_EEEENS0_23named_parameter_combineIT_SD_EERKSR_
FNA:4,4,_ZNK5boost3nfp10nfp_detail20named_parameter_baseINS0_15named_parameterIKNS_9unit_test13basic_cstringIKcEENS_7runtime12_GLOBAL__N_113description_tERS8_EEEcmINS3_IKbNSA_16optional_value_tERSG_EEEENS0_23named_parameter_combineIT_SD_EERKSL_
FNA:4,25,_ZNK5boost3nfp10nfp_detail20named_parameter_baseINS0_15named_parameterIKNS_9unit_test13basic_cstringIKcEENS_7runtime12_GLOBAL__N_113description_tERS8_EEEcmINS3_IS8_NSA_9env_var_tESC_EEEENS0_23named_parameter_combineIT_SD_EERKSJ_
FNA:4,1,_ZNK5boost3nfp10nfp_detail20named_parameter_baseINS0_15named_parameterIKNS_9unit_test13basic_cstringIKcEENS_7runtime12_GLOBAL__N_115end_of_params_tERS8_EEEcmINS3_IS8_NSA_12neg_prefix_tESC_EEEENS0_23named_parameter_combineIT_SD_EERKSJ_
FNA:4,0,_ZNK5boost3nfp10nfp_detail20named_parameter_baseINS0_15named_parameterIPKcNS_9unit_test5utils12_GLOBAL__N_120dropped_delimeters_tES5_EEEcmINS3_IKNS7_17ti_delimeter_typeENS8_17kept_delimeters_tERSE_EEEENS0_23named_parameter_combineIT_SA_EERKSJ_
FNA:4,0,_ZNK5boost3nfp10nfp_detail20named_parameter_baseINS0_15named_parameterIbNS_9unit_test5utils12_GLOBAL__N_119keep_empty_tokens_tEbEEEcmINS3_IPKcNS6_20dropped_delimeters_tESC_EEEENS0_23named_parameter_combineIT_S8_EERKSG_
FNA:4,1,_ZNK5boost3nfp10nfp_detail20named_parameter_baseINS0_23named_parameter_combineINS0_15named_parameterIKNS_9unit_test12report_levelENS_7runtime12_GLOBAL__N_115default_value_tERS7_EENS3_INS4_IKNS5_13basic_cstringIKcEENS9_9env_var_tERSG_EENS4_ISG_NS9_13description_tESI_EEEEEEEcmINS4_IKSt16initializer_listISt4pairISG_S6_EENS9_13enum_values_tERSU_EEEENS3_IT_SN_EERKSY_
FNA:4,1,_ZNK5boost3nfp10nfp_detail20named_parameter_baseINS0_23named_parameter_combineINS0_15named_parameterIKNS_9unit_test13basic_cstringIKcEENS_7runtime12_GLOBAL__N_112value_hint_tERS9_EENS3_INS4_IKNSt7__cxx1112basic_stringIcSt11char_traitsIcESaIcEEENSB_15default_value_tERSL_EENS3_INS4_IS9_NSB_9env_var_tESD_EENS4_IS9_NSB_13description_tESD_EEEEEEEEEcmINS4_IS9_NSB_6help_tESD_EEEENS3_IT_SV_EERKS10_
FNA:4,1,_ZNK5boost3nfp10nfp_detail20named_parameter_baseINS0_23named_parameter_combineINS0_15named_parameterIKNS_9unit_test13basic_cstringIKcEENS_7runtime12_GLOBAL__N_112value_hint_tERS9_EENS3_INS4_IKNSt7__cxx1112basic_stringIcSt11char_traitsIcESaIcEEENSB_16optional_value_tERSL_EENS4_IS9_NSB_13description_tESD_EEEEEEEcmINS4_IS9_NSB_6help_tESD_EEEENS3_IT_SS_EERKSX_
FNA:4,1,_ZNK5boost3nfp10nfp_detail20named_parameter_baseINS0_23named_parameter_combineINS0_15named_parameterIKNS_9unit_test13basic_cstringIKcEENS_7runtime12_GLOBAL__N_112value_hint_tERS9_EENS3_INS4_IKjNSB_16optional_value_tERSF_EENS3_INS4_ISF_NSB_15default_value_tESH_EENS3_INS4_IS9_NSB_9env_var_tESD_EENS4_IS9_NSB_13description_tESD_EEEEEEEEEEEcmINS4_IS9_NSB_6help_tESD_EEEENS3_IT_SS_EERKSX_
FNA:4,1,_ZNK5boost3nfp10nfp_detail20named_parameter_baseINS0_23named_parameter_combineINS0_15named_parameterIKNS_9unit_test13basic_cstringIKcEENS_7runtime12_GLOBAL__N_112value_hint_tERS9_EENS3_INS4_IKlNSB_16optional_value_tERSF_EENS3_INS4_ISF_NSB_15default_value_tESH_EENS3_INS4_IS9_NSB_9env_var_tESD_EENS4_IS9_NSB_13description_tESD_EEEEEEEEEEEcmINS4_IS9_NSB_6help_tESD_EEEENS3_IT_SS_EERKSX_
FNA:4,4,_ZNK5boost3nfp10nfp_detail20named_parameter_baseINS0_23named_parameter_combineINS0_15named_parameterIKNS_9unit_test13basic_cstringIKcEENS_7runtime12_GLOBAL__N_112value_hint_tERS9_EENS3_INS4_IS9_NSB_9env_var_tESD_EENS4_IS9_NSB_13description_tESD_EEEEEEEcmINS4_IS9_NSB_6help_tESD_EEEENS3_IT_SK_EERKSP_
FNA:4,8,_ZNK5boost3nfp10nfp_detail20named_parameter_baseINS0_23named_parameter_combineINS0_15named_parameterIKNS_9unit_test13basic_cstringIKcEENS_7runtime12_GLOBAL__N_16help_tERS9_EENS3_INS4_IKbNSB_15default_value_tERSF_EENS3_INS4_IS9_NSB_9env_var_tESD_EENS4_IS9_NSB_13description_tESD_EEEEEEEEEcmINS4_ISF_NSB_16optional_value_tESH_EEEENS3_IT_SP_EERKSU_
FNA:4,14,_ZNK5boost3nfp10nfp_detail20named_parameter_baseINS0_23named_parameter_combineINS0_15named_parameterIKNS_9unit_test13basic_cstringIKcEENS_7runtime12_GLOBAL__N_16help_tERS9_EENS3_INS4_IS9_NSB_9env_var_tESD_EENS4_IS9_NSB_13description_tESD_EEEEEEEcmINS4_IKbNSB_16optional_value_tERSN_EEEENS3_IT_SK_EERKSR_
FNA:4,1,_ZNK5boost3nfp10nfp_detail20named_parameter_baseINS0_23named_parameter_combineINS0_15named_parameterIKNS_9unit_test13basic_cstringIKcEENS_7runtime12_GLOBAL__N_19env_var_tERS9_EENS4_IS9_NSB_13description_tESD_EEEEEcmINS4_IKNS5_12report_levelENSB_15default_value_tERSL_EEEENS3_IT_SH_EERKSP_
FNA:4,3,_ZNK5boost3nfp10nfp_detail20named_parameter_baseINS0_23named_parameter_combineINS0_15named_parameterIKNS_9unit_test13basic_cstringIKcEENS_7runtime12_GLOBAL__N_19env_var_tERS9_EENS4_IS9_NSB_13description_tESD_EEEEEcmINS4_IKNS5_13output_formatENSB_15default_value_tERSL_EEEENS3_IT_SH_EERKSP_
FNA:4,1,_ZNK5boost3nfp10nfp_detail20named_parameter_baseINS0_23named_parameter_combineINS0_15named_parameterIKNS_9unit_test13basic_cstringIKcEENS_7runtime12_GLOBAL__N_19env_var_tERS9_EENS4_IS9_NSB_13description_tESD_EEEEEcmINS4_IKNS5_9log_levelENSB_15default_value_tERSL_EEEENS3_IT_SH_EERKSP_
FNA:4,1,_ZNK5boost3nfp10nfp_detail20named_parameter_baseINS0_23named_parameter_combineINS0_15named_parameterIKNS_9unit_test13basic_cstringIKcEENS_7runtime12_GLOBAL__N_19env_var_tERS9_EENS4_IS9_NSB_13description_tESD_EEEEEcmINS4_IKNSt7__cxx1112basic_stringIcSt11char_traitsIcESaIcEEENSB_15default_value_tERSQ_EEEENS3_IT_SH_EERKSU_
FNA:4,1,_ZNK5boost3nfp10nfp_detail20named_parameter_baseINS0_23named_parameter_combineINS0_15named_parameterIKNS_9unit_test13basic_cstringIKcEENS_7runtime12_GLOBAL__N_19env_var_tERS9_EENS4_IS9_NSB_13description_tESD_EEEEEcmINS4_IKSt16initializer_listISt4pairIS9_NS5_13output_formatEEENSB_13enum_values_tERSP_EEEENS3_IT_SH_EERKST_
FNA:4,1,_ZNK5boost3nfp10nfp_detail20named_parameter_baseINS0_23named_parameter_combineINS0_15named_parameterIKNS_9unit_test13basic_cstringIKcEENS_7runtime12_GLOBAL__N_19env_var_tERS9_EENS4_IS9_NSB_13description_tESD_EEEEEcmINS4_IKZNS5_14runtime_config12_GLOBAL__N_1L19register_parametersERNSA_16parameters_storeEEUlS8_E_NSB_10callback_tERSP_EEEENS3_IT_SH_EERKST_
FNA:4,4,_ZNK5boost3nfp10nfp_detail20named_parameter_baseINS0_23named_parameter_combineINS0_15named_parameterIKNS_9unit_test13basic_cstringIKcEENS_7runtime12_GLOBAL__N_19env_var_tERS9_EENS4_IS9_NSB_13description_tESD_EEEEEcmINS4_IKbNSB_15default_value_tERSK_EEEENS3_IT_SH_EERKSO_
FNA:4,1,_ZNK5boost3nfp10nfp_detail20named_parameter_baseINS0_23named_parameter_combineINS0_15named_parameterIKNS_9unit_test13basic_cstringIKcEENS_7runtime12_GLOBAL__N_19env_var_tERS9_EENS4_IS9_NSB_13description_tESD_EEEEEcmINS4_IKjNSB_15default_value_tERSK_EEEENS3_IT_SH_EERKSO_
FNA:4,1,_ZNK5boost3nfp10nfp_detail20named_parameter_baseINS0_23named_parameter_combineINS0_15named_parameterIKNS_9unit_test13basic_cstringIKcEENS_7runtime12_GLOBAL__N_19env_var_tERS9_EENS4_IS9_NSB_13description_tESD_EEEEEcmINS4_IKlNSB_15default_value_tERSK_EEEENS3_IT_SH_EERKSO_
FNA:4,4,_ZNK5boost3nfp10nfp_detail20named_parameter_baseINS0_23named_parameter_combineINS0_15named_parameterIKNS_9unit_test13basic_cstringIKcEENS_7runtime12_GLOBAL__N_19env_var_tERS9_EENS4_IS9_NSB_13description_tESD_EEEEEcmINS4_IS9_NSB_12value_hint_tESD_EEEENS3_IT_SH_EERKSM_
FNA:4,7,_ZNK5boost3nfp10nfp_detail20named_parameter_baseINS0_23named_parameter_combineINS0_15named_parameterIKNS_9unit_test13basic_cstringIKcEENS_7runtime12_GLOBAL__N_19env_var_tERS9_EENS4_IS9_NSB_13description_tESD_EEEEEcmINS4_IS9_NSB_6help_tESD_EEEENS3_IT_SH_EERKSM_
FNA:4,2,_ZNK5boost3nfp10nfp_detail20named_parameter_baseINS0_23named_parameter_combineINS0_15named_parameterIKNS_9unit_test13output_formatENS_7runtime12_GLOBAL__N_115default_value_tERS7_EENS3_INS4_IKNS5_13basic_cstringIKcEENS9_9env_var_tERSG_EENS4_ISG_NS9_13description_tESI_EEEEEEEcmINS4_IKSt16initializer_listISt4pairISG_S6_EENS9_13enum_values_tERSU_EEEENS3_IT_SN_EERKSY_
FNA:4,1,_ZNK5boost3nfp10nfp_detail20named_parameter_baseINS0_23named_parameter_combineINS0_15named_parameterIKNS_9unit_test13output_formatENS_7runtime12_GLOBAL__N_115default_value_tERS7_EENS3_INS4_IKNS5_13basic_cstringIKcEENS9_9env_var_tERSG_EENS4_ISG_NS9_13description_tESI_EEEEEEEcmINS4_IS7_NS9_16optional_value_tESB_EEEENS3_IT_SN_EERKSS_
FNA:4,1,_ZNK5boost3nfp10nfp_detail20named_parameter_baseINS0_23named_parameter_combineINS0_15named_parameterIKNS_9unit_test13output_formatENS_7runtime12_GLOBAL__N_116optional_value_tERS7_EENS3_INS4_IS7_NS9_15default_value_tESB_EENS3_INS4_IKNS5_13basic_cstringIKcEENS9_9env_var_tERSI_EENS4_ISI_NS9_13description_tESK_EEEEEEEEEcmINS4_IKSt16initializer_listISt4pairISI_S6_EENS9_13enum_values_tERSX_EEEENS3_IT_SQ_EERKS11_
FNA:4,1,_ZNK5boost3nfp10nfp_detail20named_parameter_baseINS0_23named_parameter_combineINS0_15named_parameterIKNS_9unit_test9log_levelENS_7runtime12_GLOBAL__N_115default_value_tERS7_EENS3_INS4_IKNS5_13basic_cstringIKcEENS9_9env_var_tERSG_EENS4_ISG_NS9_13description_tESI_EEEEEEEcmINS4_IKSt16initializer_listISt4pairISG_S6_EENS9_13enum_values_tERSU_EEEENS3_IT_SN_EERKSY_
FNA:4,1,_ZNK5boost3nfp10nfp_detail20named_parameter_baseINS0_23named_parameter_combineINS0_15named_parameterIKNSt7__cxx1112basic_stringIcSt11char_traitsIcESaIcEEENS_7runtime12_GLOBAL__N_115default_value_tERSB_EENS3_INS4_IKNS_9unit_test13basic_cstringIKcEENSD_9env_var_tERSL_EENS4_ISL_NSD_13description_tESN_EEEEEEEcmINS4_ISL_NSD_12value_hint_tESN_EEEENS3_IT_SS_EERKSX_
FNA:4,1,_ZNK5boost3nfp10nfp_detail20named_parameter_baseINS0_23named_parameter_combineINS0_15named_parameterIKNSt7__cxx1112basic_stringIcSt11char_traitsIcESaIcEEENS_7runtime12_GLOBAL__N_116optional_value_tERSB_EENS4_IKNS_9unit_test13basic_cstringIKcEENSD_13description_tERSL_EEEEEcmINS4_ISL_NSD_12value_hint_tESN_EEEENS3_IT_SP_EERKSU_
FNA:4,1,_ZNK5boost3nfp10nfp_detail20named_parameter_baseINS0_23named_parameter_combineINS0_15named_parameterIKSt16initializer_listISt4pairIKNS_9unit_test13basic_cstringIKcEENS7_12report_levelEEENS_7runtime12_GLOBAL__N_113enum_values_tERSF_EENS3_INS4_IKSC_NSH_15default_value_tERSL_EENS3_INS4_ISB_NSH_9env_var_tERSB_EENS4_ISB_NSH_13description_tESQ_EEEEEEEEEcmINS4_ISB_NSH_6help_tESQ_EEEENS3_IT_SW_EERKS11_
FNA:4,2,_ZNK5boost3nfp10nfp_detail20named_parameter_baseINS0_23named_parameter_combineINS0_15named_parameterIKSt16initializer_listISt4pairIKNS_9unit_test13basic_cstringIKcEENS7_13output_formatEEENS_7runtime12_GLOBAL__N_113enum_values_tERSF_EENS3_INS4_IKSC_NSH_15default_value_tERSL_EENS3_INS4_ISB_NSH_9env_var_tERSB_EENS4_ISB_NSH_13description_tESQ_EEEEEEEEEcmINS4_ISB_NSH_6help_tESQ_EEEENS3_IT_SW_EERKS11_
FNA:4,1,_ZNK5boost3nfp10nfp_detail20named_parameter_baseINS0_23named_parameter_combineINS0_15named_parameterIKSt16initializer_listISt4pairIKNS_9unit_test13basic_cstringIKcEENS7_13output_formatEEENS_7runtime12_GLOBAL__N_113enum_values_tERSF_EENS3_INS4_IKSC_NSH_16optional_value_tERSL_EENS3_INS4_ISL_NSH_15default_value_tESN_EENS3_INS4_ISB_NSH_9env_var_tERSB_EENS4_ISB_NSH_13description_tESS_EEEEEEEEEEEcmINS4_ISB_NSH_6help_tESS_EEEENS3_IT_SZ_EERKS14_
FNA:4,1,_ZNK5boost3nfp10nfp_detail20named_parameter_baseINS0_23named_parameter_combineINS0_15named_parameterIKSt16initializer_listISt4pairIKNS_9unit_test13basic_cstringIKcEENS7_13output_formatEEENS_7runtime12_GLOBAL__N_113enum_values_tERSF_EENS3_INS4_ISB_NSH_9env_var_tERSB_EENS4_ISB_NSH_13description_tESM_EEEEEEEcmINS4_ISB_NSH_6help_tESM_EEEENS3_IT_SR_EERKSW_
FNA:4,1,_ZNK5boost3nfp10nfp_detail20named_parameter_baseINS0_23named_parameter_combineINS0_15named_parameterIKSt16initializer_listISt4pairIKNS_9unit_test13basic_cstringIKcEENS7_9log_levelEEENS_7runtime12_GLOBAL__N_113enum_values_tERSF_EENS3_INS4_IKSC_NSH_15default_value_tERSL_EENS3_INS4_ISB_NSH_9env_var_tERSB_EENS4_ISB_NSH_13description_tESQ_EEEEEEEEEcmINS4_ISB_NSH_6help_tESQ_EEEENS3_IT_SW_EERKS11_
FNA:4,4,_ZNK5boost3nfp10nfp_detail20named_parameter_baseINS0_23named_parameter_combineINS0_15named_parameterIKbNS_7runtime12_GLOBAL__N_115default_value_tERS5_EENS3_INS4_IKNS_9unit_test13basic_cstringIKcEENS7_9env_var_tERSF_EENS4_ISF_NS7_13description_tESH_EEEEEEEcmINS4_ISF_NS7_6help_tESH_EEEENS3_IT_SM_EERKSR_
FNA:4,14,_ZNK5boost3nfp10nfp_detail20named_parameter_baseINS0_23named_parameter_combineINS0_15named_parameterIKbNS_7runtime12_GLOBAL__N_116optional_value_tERS5_EENS3_INS4_IKNS_9unit_test13basic_cstringIKcEENS7_6help_tERSF_EENS3_INS4_ISF_NS7_9env_var_tESH_EENS4_ISF_NS7_13description_tESH_EEEEEEEEEcmINS4_IS5_NS7_15default_value_tES9_EEEENS3_IT_SP_EERKSU_
FNA:4,4,_ZNK5boost3nfp10nfp_detail20named_parameter_baseINS0_23named_parameter_combineINS0_15named_parameterIKbNS_7runtime12_GLOBAL__N_116optional_value_tERS5_EENS4_IKNS_9unit_test13basic_cstringIKcEENS7_13description_tERSF_EEEEEcmINS4_IS5_NS7_15default_value_tES9_EEEENS3_IT_SJ_EERKSO_
FNA:4,1,_ZNK5boost3nfp10nfp_detail20named_parameter_baseINS0_23named_parameter_combineINS0_15named_parameterIKjNS_7runtime12_GLOBAL__N_115default_value_tERS5_EENS3_INS4_IKNS_9unit_test13basic_cstringIKcEENS7_9env_var_tERSF_EENS4_ISF_NS7_13description_tESH_EEEEEEEcmINS4_IS5_NS7_16optional_value_tES9_EEEENS3_IT_SM_EERKSR_
FNA:4,1,_ZNK5boost3nfp10nfp_detail20named_parameter_baseINS0_23named_parameter_combineINS0_15named_parameterIKjNS_7runtime12_GLOBAL__N_116optional_value_tERS5_EENS3_INS4_IS5_NS7_15default_value_tES9_EENS3_INS4_IKNS_9unit_test13basic_cstringIKcEENS7_9env_var_tERSH_EENS4_ISH_NS7_13description_tESJ_EEEEEEEEEcmINS4_ISH_NS7_12value_hint_tESJ_EEEENS3_IT_SP_EERKSU_
FNA:4,1,_ZNK5boost3nfp10nfp_detail20named_parameter_baseINS0_23named_parameter_combineINS0_15named_parameterIKlNS_7runtime12_GLOBAL__N_115default_value_tERS5_EENS3_INS4_IKNS_9unit_test13basic_cstringIKcEENS7_9env_var_tERSF_EENS4_ISF_NS7_13description_tESH_EEEEEEEcmINS4_IS5_NS7_16optional_value_tES9_EEEENS3_IT_SM_EERKSR_
FNA:4,1,_ZNK5boost3nfp10nfp_detail20named_parameter_baseINS0_23named_parameter_combineINS0_15named_parameterIKlNS_7runtime12_GLOBAL__N_116optional_value_tERS5_EENS3_INS4_IS5_NS7_15default_value_tES9_EENS3_INS4_IKNS_9unit_test13basic_cstringIKcEENS7_9env_var_tERSH_EENS4_ISH_NS7_13description_tESJ_EEEEEEEEEcmINS4_ISH_NS7_12value_hint_tESJ_EEEENS3_IT_SP_EERKSU_
FNA:4,0,_ZNK5boost3nfp10nfp_detail20named_parameter_baseINS0_23named_parameter_combineINS0_15named_parameterIPKcNS_9unit_test5utils12_GLOBAL__N_120dropped_delimeters_tES6_EENS4_IbNS9_19keep_empty_tokens_tEbEEEEEcmINS4_IKNS8_17ti_delimeter_typeENS9_17kept_delimeters_tERSI_EEEENS3_IT_SE_EERKSM_
FNL:5,188,192
FNA:5,1,_ZN5boost3nfp23named_parameter_combineINS0_15named_parameterIKNS_9unit_test12report_levelENS_7runtime12_GLOBAL__N_115default_value_tERS5_EENS1_INS2_IKNS3_13basic_cstringIKcEENS7_9env_var_tERSE_EENS2_ISE_NS7_13description_tESG_EEEEEC2ERKSA_RKSK_
FNA:5,1,_ZN5boost3nfp23named_parameter_combineINS0_15named_parameterIKNS_9unit_test13basic_cstringIKcEENS_7runtime12_GLOBAL__N_112neg_prefix_tERS7_EENS2_IS7_NS9_15end_of_params_tESB_EEEC2ERKSC_RKSE_
FNA:5,1,_ZN5boost3nfp23named_parameter_combineINS0_15named_parameterIKNS_9unit_test13basic_cstringIKcEENS_7runtime12_GLOBAL__N_112value_hint_tERS7_EENS1_INS2_IKNSt7__cxx1112basic_stringIcSt11char_traitsIcESaIcEEENS9_15default_value_tERSJ_EENS1_INS2_IS7_NS9_9env_var_tESB_EENS2_IS7_NS9_13description_tESB_EEEEEEEC2ERKSC_RKSS_
FNA:5,1,_ZN5boost3nfp23named_parameter_combineINS0_15named_parameterIKNS_9unit_test13basic_cstringIKcEENS_7runtime12_GLOBAL__N_112value_hint_tERS7_EENS1_INS2_IKNSt7__cxx1112basic_stringIcSt11char_traitsIcESaIcEEENS9_16optional_value_tERSJ_EENS2_IS7_NS9_13description_tESB_EEEEEC2ERKSC_RKSP_
FNA:5,1,_ZN5boost3nfp23named_parameter_combineINS0_15named_parameterIKNS_9unit_test13basic_cstringIKcEENS_7runtime12_GLOBAL__N_112value_hint_tERS7_EENS1_INS2_IKjNS9_16optional_value_tERSD_EENS1_INS2_ISD_NS9_15default_value_tESF_EENS1_INS2_IS7_NS9_9env_var_tESB_EENS2_IS7_NS9_13description_tESB_EEEEEEEEEC2ERKSC_RKSP_
FNA:5,1,_ZN5boost3nfp23named_parameter_combineINS0_15named_parameterIKNS_9unit_test13basic_cstringIKcEENS_7runtime12_GLOBAL__N_112value_hint_tERS7_EENS1_INS2_IKlNS9_16optional_value_tERSD_EENS1_INS2_ISD_NS9_15default_value_tESF_EENS1_INS2_IS7_NS9_9env_var_tESB_EENS2_IS7_NS9_13description_tESB_EEEEEEEEEC2ERKSC_RKSP_
FNA:5,4,_ZN5boost3nfp23named_parameter_combineINS0_15named_parameterIKNS_9unit_test13basic_cstringIKcEENS_7runtime12_GLOBAL__N_112value_hint_tERS7_EENS1_INS2_IS7_NS9_9env_var_tESB_EENS2_IS7_NS9_13description_tESB_EEEEEC2ERKSC_RKSH_
FNA:5,1,_ZN5boost3nfp23named_parameter_combineINS0_15named_parameterIKNS_9unit_test13basic_cstringIKcEENS_7runtime12_GLOBAL__N_16help_tERS7_EENS1_INS2_IKSt16initializer_listISt4pairIS7_NS3_12report_levelEEENS9_13enum_values_tERSI_EENS1_INS2_IKSF_NS9_15default_value_tERSM_EENS1_INS2_IS7_NS9_9env_var_tESB_EENS2_IS7_NS9_13description_tESB_EEEEEEEEEC2ERKSC_RKSW_
FNA:5,2,_ZN5boost3nfp23named_parameter_combineINS0_15named_parameterIKNS_9unit_test13basic_cstringIKcEENS_7runtime12_GLOBAL__N_16help_tERS7_EENS1_INS2_IKSt16initializer_listISt4pairIS7_NS3_13output_formatEEENS9_13enum_values_tERSI_EENS1_INS2_IKSF_NS9_15default_value_tERSM_EENS1_INS2_IS7_NS9_9env_var_tESB_EENS2_IS7_NS9_13description_tESB_EEEEEEEEEC2ERKSC_RKSW_
FNA:5,1,_ZN5boost3nfp23named_parameter_combineINS0_15named_parameterIKNS_9unit_test13basic_cstringIKcEENS_7runtime12_GLOBAL__N_16help_tERS7_EENS1_INS2_IKSt16initializer_listISt4pairIS7_NS3_13output_formatEEENS9_13enum_values_tERSI_EENS1_INS2_IKSF_NS9_16optional_value_tERSM_EENS1_INS2_ISM_NS9_15default_value_tESO_EENS1_INS2_IS7_NS9_9env_var_tESB_EENS2_IS7_NS9_13description_tESB_EEEEEEEEEEEC2ERKSC_RKSZ_
FNA:5,1,_ZN5boost3nfp23named_parameter_combineINS0_15named_parameterIKNS_9unit_test13basic_cstringIKcEENS_7runtime12_GLOBAL__N_16help_tERS7_EENS1_INS2_IKSt16initializer_listISt4pairIS7_NS3_13output_formatEEENS9_13enum_values_tERSI_EENS1_INS2_IS7_NS9_9env_var_tESB_EENS2_IS7_NS9_13description_tESB_EEEEEEEC2ERKSC_RKSR_
FNA:5,1,_ZN5boost3nfp23named_parameter_combineINS0_15named_parameterIKNS_9unit_test13basic_cstringIKcEENS_7runtime12_GLOBAL__N_16help_tERS7_EENS1_INS2_IKSt16initializer_listISt4pairIS7_NS3_9log_levelEEENS9_13enum_values_tERSI_EENS1_INS2_IKSF_NS9_15default_value_tERSM_EENS1_INS2_IS7_NS9_9env_var_tESB_EENS2_IS7_NS9_13description_tESB_EEEEEEEEEC2ERKSC_RKSW_
FNA:5,4,_ZN5boost3nfp23named_parameter_combineINS0_15named_parameterIKNS_9unit_test13basic_cstringIKcEENS_7runtime12_GLOBAL__N_16help_tERS7_EENS1_INS2_IKbNS9_15default_value_tERSD_EENS1_INS2_IS7_NS9_9env_var_tESB_EENS2_IS7_NS9_13description_tESB_EEEEEEEC2ERKSC_RKSM_
FNA:5,1,_ZN5boost3nfp23named_parameter_combineINS0_15named_parameterIKNS_9unit_test13basic_cstringIKcEENS_7runtime12_GLOBAL__N_16help_tERS7_EENS1_INS2_IS7_NS9_12value_hint_tESB_EENS1_INS2_IKNSt7__cxx1112basic_stringIcSt11char_traitsIcESaIcEEENS9_15default_value_tERSL_EENS1_INS2_IS7_NS9_9env_var_tESB_EENS2_IS7_NS9_13description_tESB_EEEEEEEEEC2ERKSC_RKSV_
FNA:5,1,_ZN5boost3nfp23named_parameter_combineINS0_15named_parameterIKNS_9unit_test13basic_cstringIKcEENS_7runtime12_GLOBAL__N_16help_tERS7_EENS1_INS2_IS7_NS9_12value_hint_tESB_EENS1_INS2_IKNSt7__cxx1112basic_stringIcSt11char_traitsIcESaIcEEENS9_16optional_value_tERSL_EENS2_IS7_NS9_13description_tESB_EEEEEEEC2ERKSC_RKSS_
FNA:5,1,_ZN5boost3nfp23named_parameter_combineINS0_15named_parameterIKNS_9unit_test13basic_cstringIKcEENS_7runtime12_GLOBAL__N_16help_tERS7_EENS1_INS2_IS7_NS9_12value_hint_tESB_EENS1_INS2_IKjNS9_16optional_value_tERSF_EENS1_INS2_ISF_NS9_15default_value_tESH_EENS1_INS2_IS7_NS9_9env_var_tESB_EENS2_IS7_NS9_13description_tESB_EEEEEEEEEEEC2ERKSC_RKSS_
FNA:5,1,_ZN5boost3nfp23named_parameter_combineINS0_15named_parameterIKNS_9unit_test13basic_cstringIKcEENS_7runtime12_GLOBAL__N_16help_tERS7_EENS1_INS2_IS7_NS9_12value_hint_tESB_EENS1_INS2_IKlNS9_16optional_value_tERSF_EENS1_INS2_ISF_NS9_15default_value_tESH_EENS1_INS2_IS7_NS9_9env_var_tESB_EENS2_IS7_NS9_13description_tESB_EEEEEEEEEEEC2ERKSC_RKSS_
FNA:5,4,_ZN5boost3nfp23named_parameter_combineINS0_15named_parameterIKNS_9unit_test13basic_cstringIKcEENS_7runtime12_GLOBAL__N_16help_tERS7_EENS1_INS2_IS7_NS9_12value_hint_tESB_EENS1_INS2_IS7_NS9_9env_var_tESB_EENS2_IS7_NS9_13description_tESB_EEEEEEEC2ERKSC_RKSK_
FNA:5,7,_ZN5boost3nfp23named_parameter_combineINS0_15named_parameterIKNS_9unit_test13basic_cstringIKcEENS_7runtime12_GLOBAL__N_16help_tERS7_EENS1_INS2_IS7_NS9_9env_var_tESB_EENS2_IS7_NS9_13description_tESB_EEEEEC2ERKSC_RKSH_
FNA:5,25,_ZN5boost3nfp23named_parameter_combineINS0_15named_parameterIKNS_9unit_test13basic_cstringIKcEENS_7runtime12_GLOBAL__N_19env_var_tERS7_EENS2_IS7_NS9_13description_tESB_EEEC2ERKSC_RKSE_
FNA:5,3,_ZN5boost3nfp23named_parameter_combineINS0_15named_parameterIKNS_9unit_test13output_formatENS_7runtime12_GLOBAL__N_115default_value_tERS5_EENS1_INS2_IKNS3_13basic_cstringIKcEENS7_9env_var_tERSE_EENS2_ISE_NS7_13description_tESG_EEEEEC2ERKSA_RKSK_
FNA:5,1,_ZN5boost3nfp23named_parameter_combineINS0_15named_parameterIKNS_9unit_test13output_formatENS_7runtime12_GLOBAL__N_116optional_value_tERS5_EENS1_INS2_IS5_NS7_15default_value_tES9_EENS1_INS2_IKNS3_13basic_cstringIKcEENS7_9env_var_tERSG_EENS2_ISG_NS7_13description_tESI_EEEEEEEC2ERKSA_RKSN_
FNA:5,0,_ZN5boost3nfp23named_parameter_combineINS0_15named_parameterIKNS_9unit_test5utils17ti_delimeter_typeENS4_12_GLOBAL__N_117kept_delimeters_tERS6_EENS1_INS2_IPKcNS7_20dropped_delimeters_tESC_EENS2_IbNS7_19keep_empty_tokens_tEbEEEEEC2ERKSA_RKSH_
FNA:5,0,_ZN5boost3nfp23named_parameter_combineINS0_15named_parameterIKNS_9unit_test5utils17ti_delimeter_typeENS4_12_GLOBAL__N_117kept_delimeters_tERS6_EENS2_IPKcNS7_20dropped_delimeters_tESC_EEEC2ERKSA_RKSE_
FNA:5,1,_ZN5boost3nfp23named_parameter_combineINS0_15named_parameterIKNS_9unit_test9log_levelENS_7runtime12_GLOBAL__N_115default_value_tERS5_EENS1_INS2_IKNS3_13basic_cstringIKcEENS7_9env_var_tERSE_EENS2_ISE_NS7_13description_tESG_EEEEEC2ERKSA_RKSK_
FNA:5,1,_ZN5boost3nfp23named_parameter_combineINS0_15named_parameterIKNSt7__cxx1112basic_stringIcSt11char_traitsIcESaIcEEENS_7runtime12_GLOBAL__N_115default_value_tERS9_EENS1_INS2_IKNS_9unit_test13basic_cstringIKcEENSB_9env_var_tERSJ_EENS2_ISJ_NSB_13description_tESL_EEEEEC2ERKSE_RKSP_
FNA:5,1,_ZN5boost3nfp23named_parameter_combineINS0_15named_parameterIKNSt7__cxx1112basic_stringIcSt11char_traitsIcESaIcEEENS_7runtime12_GLOBAL__N_116optional_value_tERS9_EENS2_IKNS_9unit_test13basic_cstringIKcEENSB_13description_tERSJ_EEEC2ERKSE_RKSM_
FNA:5,1,_ZN5boost3nfp23named_parameter_combineINS0_15named_parameterIKSt16initializer_listISt4pairIKNS_9unit_test13basic_cstringIKcEENS5_12report_levelEEENS_7runtime12_GLOBAL__N_113enum_values_tERSD_EENS1_INS2_IKSA_NSF_15default_value_tERSJ_EENS1_INS2_IS9_NSF_9env_var_tERS9_EENS2_IS9_NSF_13description_tESO_EEEEEEEC2ERKSI_RKST_
FNA:5,2,_ZN5boost3nfp23named_parameter_combineINS0_15named_parameterIKSt16initializer_listISt4pairIKNS_9unit_test13basic_cstringIKcEENS5_13output_formatEEENS_7runtime12_GLOBAL__N_113enum_values_tERSD_EENS1_INS2_IKSA_NSF_15default_value_tERSJ_EENS1_INS2_IS9_NSF_9env_var_tERS9_EENS2_IS9_NSF_13description_tESO_EEEEEEEC2ERKSI_RKST_
FNA:5,1,_ZN5boost3nfp23named_parameter_combineINS0_15named_parameterIKSt16initializer_listISt4pairIKNS_9unit_test13basic_cstringIKcEENS5_13output_formatEEENS_7runtime12_GLOBAL__N_113enum_values_tERSD_EENS1_INS2_IKSA_NSF_16optional_value_tERSJ_EENS1_INS2_ISJ_NSF_15default_value_tESL_EENS1_INS2_IS9_NSF_9env_var_tERS9_EENS2_IS9_NSF_13description_tESQ_EEEEEEEEEC2ERKSI_RKSW_
FNA:5,1,_ZN5boost3nfp23named_parameter_combineINS0_15named_parameterIKSt16initializer_listISt4pairIKNS_9unit_test13basic_cstringIKcEENS5_13output_formatEEENS_7runtime12_GLOBAL__N_113enum_values_tERSD_EENS1_INS2_IS9_NSF_9env_var_tERS9_EENS2_IS9_NSF_13description_tESK_EEEEEC2ERKSI_RKSO_
FNA:5,1,_ZN5boost3nfp23named_parameter_combineINS0_15named_parameterIKSt16initializer_listISt4pairIKNS_9unit_test13basic_cstringIKcEENS5_9log_levelEEENS_7runtime12_GLOBAL__N_113enum_values_tERSD_EENS1_INS2_IKSA_NSF_15default_value_tERSJ_EENS1_INS2_IS9_NSF_9env_var_tERS9_EENS2_IS9_NSF_13description_tESO_EEEEEEEC2ERKSI_RKST_
FNA:5,1,_ZN5boost3nfp23named_parameter_combineINS0_15named_parameterIKZNS_9unit_test14runtime_config12_GLOBAL__N_1L19register_parametersERNS_7runtime16parameters_storeEEUlNS3_13basic_cstringIKcEEE_NS6_12_GLOBAL__N_110callback_tERSD_EENS1_INS2_IKSB_NSE_9env_var_tERSI_EENS2_ISI_NSE_13description_tESK_EEEEEC2ERKSH_RKSO_
FNA:5,4,_ZN5boost3nfp23named_parameter_combineINS0_15named_parameterIKbNS_7runtime12_GLOBAL__N_115default_value_tERS3_EENS1_INS2_IKNS_9unit_test13basic_cstringIKcEENS5_9env_var_tERSD_EENS2_ISD_NS5_13description_tESF_EEEEEC2ERKS8_RKSJ_
FNA:5,14,_ZN5boost3nfp23named_parameter_combineINS0_15named_parameterIKbNS_7runtime12_GLOBAL__N_115default_value_tERS3_EENS1_INS2_IS3_NS5_16optional_value_tES7_EENS1_INS2_IKNS_9unit_test13basic_cstringIKcEENS5_6help_tERSF_EENS1_INS2_ISF_NS5_9env_var_tESH_EENS2_ISF_NS5_13description_tESH_EEEEEEEEEC2ERKS8_RKSP_
FNA:5,4,_ZN5boost3nfp23named_parameter_combineINS0_15named_parameterIKbNS_7runtime12_GLOBAL__N_115default_value_tERS3_EENS1_INS2_IS3_NS5_16optional_value_tES7_EENS2_IKNS_9unit_test13basic_cstringIKcEENS5_13description_tERSF_EEEEEC2ERKS8_RKSJ_
FNA:5,8,_ZN5boost3nfp23named_parameter_combineINS0_15named_parameterIKbNS_7runtime12_GLOBAL__N_116optional_value_tERS3_EENS1_INS2_IKNS_9unit_test13basic_cstringIKcEENS5_6help_tERSD_EENS1_INS2_IS3_NS5_15default_value_tES7_EENS1_INS2_ISD_NS5_9env_var_tESF_EENS2_ISD_NS5_13description_tESF_EEEEEEEEEC2ERKS8_RKSP_
FNA:5,14,_ZN5boost3nfp23named_parameter_combineINS0_15named_parameterIKbNS_7runtime12_GLOBAL__N_116optional_value_tERS3_EENS1_INS2_IKNS_9unit_test13basic_cstringIKcEENS5_6help_tERSD_EENS1_INS2_ISD_NS5_9env_var_tESF_EENS2_ISD_NS5_13description_tESF_EEEEEEEC2ERKS8_RKSM_
FNA:5,4,_ZN5boost3nfp23named_parameter_combineINS0_15named_parameterIKbNS_7runtime12_GLOBAL__N_116optional_value_tERS3_EENS2_IKNS_9unit_test13basic_cstringIKcEENS5_13description_tERSD_EEEC2ERKS8_RKSG_
FNA:5,1,_ZN5boost3nfp23named_parameter_combineINS0_15named_parameterIKjNS_7runtime12_GLOBAL__N_115default_value_tERS3_EENS1_INS2_IKNS_9unit_test13basic_cstringIKcEENS5_9env_var_tERSD_EENS2_ISD_NS5_13description_tESF_EEEEEC2ERKS8_RKSJ_
FNA:5,1,_ZN5boost3nfp23named_parameter_combineINS0_15named_parameterIKjNS_7runtime12_GLOBAL__N_116optional_value_tERS3_EENS1_INS2_IS3_NS5_15default_value_tES7_EENS1_INS2_IKNS_9unit_test13basic_cstringIKcEENS5_9env_var_tERSF_EENS2_ISF_NS5_13description_tESH_EEEEEEEC2ERKS8_RKSM_
FNA:5,1,_ZN5boost3nfp23named_parameter_combineINS0_15named_parameterIKlNS_7runtime12_GLOBAL__N_115default_value_tERS3_EENS1_INS2_IKNS_9unit_test13basic_cstringIKcEENS5_9env_var_tERSD_EENS2_ISD_NS5_13description_tESF_EEEEEC2ERKS8_RKSJ_
FNA:5,1,_ZN5boost3nfp23named_parameter_combineINS0_15named_parameterIKlNS_7runtime12_GLOBAL__N_116optional_value_tERS3_EENS1_INS2_IS3_NS5_15default_value_tES7_EENS1_INS2_IKNS_9unit_test13basic_cstringIKcEENS5_9env_var_tERSF_EENS2_ISF_NS5_13description_tESH_EEEEEEEC2ERKS8_RKSM_
FNA:5,0,_ZN5boost3nfp23named_parameter_combineINS0_15named_parameterIPKcNS_9unit_test5utils12_GLOBAL__N_120dropped_delimeters_tES4_EENS2_IbNS7_19keep_empty_tokens_tEbEEEC2ERKS9_RKSB_
FNL:6,196,196
FNA:6,1,_ZNK5boost3nfp23named_parameter_combineINS0_15named_parameterIKNS_9unit_test12report_levelENS_7runtime12_GLOBAL__N_115default_value_tERS5_EENS1_INS2_IKNS3_13basic_cstringIKcEENS7_9env_var_tERSE_EENS2_ISE_NS7_13description_tESG_EEEEEixENS0_7keywordIS8_Lb0EEE
FNA:6,1,_ZNK5boost3nfp23named_parameter_combineINS0_15named_parameterIKNS_9unit_test13basic_cstringIKcEENS_7runtime12_GLOBAL__N_112neg_prefix_tERS7_EENS2_IS7_NS9_15end_of_params_tESB_EEEixENS0_7keywordISA_Lb0EEE
FNA:6,1,_ZNK5boost3nfp23named_parameter_combineINS0_15named_parameterIKNS_9unit_test13basic_cstringIKcEENS_7runtime12_GLOBAL__N_112value_hint_tERS7_EENS1_INS2_IKNSt7__cxx1112basic_stringIcSt11char_traitsIcESaIcEEENS9_15default_value_tERSJ_EENS1_INS2_IS7_NS9_9env_var_tESB_EENS2_IS7_NS9_13description_tESB_EEEEEEEixENS0_7keywordISA_Lb0EEE
FNA:6,1,_ZNK5boost3nfp23named_parameter_combineINS0_15named_parameterIKNS_9unit_test13basic_cstringIKcEENS_7runtime12_GLOBAL__N_112value_hint_tERS7_EENS1_INS2_IKNSt7__cxx1112basic_stringIcSt11char_traitsIcESaIcEEENS9_16optional_value_tERSJ_EENS2_IS7_NS9_13description_tESB_EEEEEixENS0_7keywordISA_Lb0EEE
FNA:6,1,_ZNK5boost3nfp23named_parameter_combineINS0_15named_parameterIKNS_9unit_test13basic_cstringIKcEENS_7runtime12_GLOBAL__N_112value_hint_tERS7_EENS1_INS2_IKjNS9_16optional_value_tERSD_EENS1_INS2_ISD_NS9_15default_value_tESF_EENS1_INS2_IS7_NS9_9env_var_tESB_EENS2_IS7_NS9_13description_tESB_EEEEEEEEEixENS0_7keywordISA_Lb0EEE
FNA:6,1,_ZNK5boost3nfp23named_parameter_combineINS0_15named_parameterIKNS_9unit_test13basic_cstringIKcEENS_7runtime12_GLOBAL__N_112value_hint_tERS7_EENS1_INS2_IKlNS9_16optional_value_tERSD_EENS1_INS2_ISD_NS9_15default_value_tESF_EENS1_INS2_IS7_NS9_9env_var_tESB_EENS2_IS7_NS9_13description_tESB_EEEEEEEEEixENS0_7keywordISA_Lb0EEE
FNA:6,4,_ZNK5boost3nfp23named_parameter_combineINS0_15named_parameterIKNS_9unit_test13basic_cstringIKcEENS_7runtime12_GLOBAL__N_112value_hint_tERS7_EENS1_INS2_IS7_NS9_9env_var_tESB_EENS2_IS7_NS9_13description_tESB_EEEEEixENS0_7keywordISA_Lb0EEE
FNA:6,1,_ZNK5boost3nfp23named_parameter_combineINS0_15named_parameterIKNS_9unit_test13basic_cstringIKcEENS_7runtime12_GLOBAL__N_16help_tERS7_EENS1_INS2_IKSt16initializer_listISt4pairIS7_NS3_12report_levelEEENS9_13enum_values_tERSI_EENS1_INS2_IKSF_NS9_15default_value_tERSM_EENS1_INS2_IS7_NS9_9env_var_tESB_EENS2_IS7_NS9_13description_tESB_EEEEEEEEEixENS0_7keywordISA_Lb0EEE
FNA:6,2,_ZNK5boost3nfp23named_parameter_combineINS0_15named_parameterIKNS_9unit_test13basic_cstringIKcEENS_7runtime12_GLOBAL__N_16help_tERS7_EENS1_INS2_IKSt16initializer_listISt4pairIS7_NS3_13output_formatEEENS9_13enum_values_tERSI_EENS1_INS2_IKSF_NS9_15default_value_tERSM_EENS1_INS2_IS7_NS9_9env_var_tESB_EENS2_IS7_NS9_13description_tESB_EEEEEEEEEixENS0_7keywordISA_Lb0EEE
FNA:6,1,_ZNK5boost3nfp23named_parameter_combineINS0_15named_parameterIKNS_9unit_test13basic_cstringIKcEENS_7runtime12_GLOBAL__N_16help_tERS7_EENS1_INS2_IKSt16initializer_listISt4pairIS7_NS3_13output_formatEEENS9_13enum_values_tERSI_EENS1_INS2_IKSF_NS9_16optional_value_tERSM_EENS1_INS2_ISM_NS9_15default_value_tESO_EENS1_INS2_IS7_NS9_9env_var_tESB_EENS2_IS7_NS9_13description_tESB_EEEEEEEEEEEixENS0_7keywordISA_Lb0EEE
FNA:6,1,_ZNK5boost3nfp23named_parameter_combineINS0_15named_parameterIKNS_9unit_test13basic_cstringIKcEENS_7runtime12_GLOBAL__N_16help_tERS7_EENS1_INS2_IKSt16initializer_listISt4pairIS7_NS3_13output_formatEEENS9_13enum_values_tERSI_EENS1_INS2_IS7_NS9_9env_var_tESB_EENS2_IS7_NS9_13description_tESB_EEEEEEEixENS0_7keywordISA_Lb0EEE
FNA:6,1,_ZNK5boost3nfp23named_parameter_combineINS0_15named_parameterIKNS_9unit_test13basic_cstringIKcEENS_7runtime12_GLOBAL__N_16help_tERS7_EENS1_INS2_IKSt16initializer_listISt4pairIS7_NS3_9log_levelEEENS9_13enum_values_tERSI_EENS1_INS2_IKSF_NS9_15default_value_tERSM_EENS1_INS2_IS7_NS9_9env_var_tESB_EENS2_IS7_NS9_13description_tESB_EEEEEEEEEixENS0_7keywordISA_Lb0EEE
FNA:6,4,_ZNK5boost3nfp23named_parameter_combineINS0_15named_parameterIKNS_9unit_test13basic_cstringIKcEENS_7runtime12_GLOBAL__N_16help_tERS7_EENS1_INS2_IKbNS9_15default_value_tERSD_EENS1_INS2_IS7_NS9_9env_var_tESB_EENS2_IS7_NS9_13description_tESB_EEEEEEEixENS0_7keywordISA_Lb0EEE
FNA:6,1,_ZNK5boost3nfp23named_parameter_combineINS0_15named_parameterIKNS_9unit_test13basic_cstringIKcEENS_7runtime12_GLOBAL__N_16help_tERS7_EENS1_INS2_IS7_NS9_12value_hint_tESB_EENS1_INS2_IKNSt7__cxx1112basic_stringIcSt11char_traitsIcESaIcEEENS9_15default_value_tERSL_EENS1_INS2_IS7_NS9_9env_var_tESB_EENS2_IS7_NS9_13description_tESB_EEEEEEEEEixENS0_7keywordISA_Lb0EEE
FNA:6,1,_ZNK5boost3nfp23named_parameter_combineINS0_15named_parameterIKNS_9unit_test13basic_cstringIKcEENS_7runtime12_GLOBAL__N_16help_tERS7_EENS1_INS2_IS7_NS9_12value_hint_tESB_EENS1_INS2_IKNSt7__cxx1112basic_stringIcSt11char_traitsIcESaIcEEENS9_16optional_value_tERSL_EENS2_IS7_NS9_13description_tESB_EEEEEEEixENS0_7keywordISA_Lb0EEE
FNA:6,1,_ZNK5boost3nfp23named_parameter_combineINS0_15named_parameterIKNS_9unit_test13basic_cstringIKcEENS_7runtime12_GLOBAL__N_16help_tERS7_EENS1_INS2_IS7_NS9_12value_hint_tESB_EENS1_INS2_IKjNS9_16optional_value_tERSF_EENS1_INS2_ISF_NS9_15default_value_tESH_EENS1_INS2_IS7_NS9_9env_var_tESB_EENS2_IS7_NS9_13description_tESB_EEEEEEEEEEEixENS0_7keywordISA_Lb0EEE
FNA:6,1,_ZNK5boost3nfp23named_parameter_combineINS0_15named_parameterIKNS_9unit_test13basic_cstringIKcEENS_7runtime12_GLOBAL__N_16help_tERS7_EENS1_INS2_IS7_NS9_12value_hint_tESB_EENS1_INS2_IKlNS9_16optional_value_tERSF_EENS1_INS2_ISF_NS9_15default_value_tESH_EENS1_INS2_IS7_NS9_9env_var_tESB_EENS2_IS7_NS9_13description_tESB_EEEEEEEEEEEixENS0_7keywordISA_Lb0EEE
FNA:6,4,_ZNK5boost3nfp23named_parameter_combineINS0_15named_parameterIKNS_9unit_test13basic_cstringIKcEENS_7runtime12_GLOBAL__N_16help_tERS7_EENS1_INS2_IS7_NS9_12value_hint_tESB_EENS1_INS2_IS7_NS9_9env_var_tESB_EENS2_IS7_NS9_13description_tESB_EEEEEEEixENS0_7keywordISA_Lb0EEE
FNA:6,7,_ZNK5boost3nfp23named_parameter_combineINS0_15named_parameterIKNS_9unit_test13basic_cstringIKcEENS_7runtime12_GLOBAL__N_16help_tERS7_EENS1_INS2_IS7_NS9_9env_var_tESB_EENS2_IS7_NS9_13description_tESB_EEEEEixENS0_7keywordISA_Lb0EEE
FNA:6,25,_ZNK5boost3nfp23named_parameter_combineINS0_15named_parameterIKNS_9unit_test13basic_cstringIKcEENS_7runtime12_GLOBAL__N_19env_var_tERS7_EENS2_IS7_NS9_13description_tESB_EEEixENS0_7keywordISA_Lb0EEE
FNA:6,3,_ZNK5boost3nfp23named_parameter_combineINS0_15named_parameterIKNS_9unit_test13output_formatENS_7runtime12_GLOBAL__N_115default_value_tERS5_EENS1_INS2_IKNS3_13basic_cstringIKcEENS7_9env_var_tERSE_EENS2_ISE_NS7_13description_tESG_EEEEEixENS0_7keywordIS8_Lb0EEE
FNA:6,1,_ZNK5boost3nfp23named_parameter_combineINS0_15named_parameterIKNS_9unit_test13output_formatENS_7runtime12_GLOBAL__N_116optional_value_tERS5_EENS1_INS2_IS5_NS7_15default_value_tES9_EENS1_INS2_IKNS3_13basic_cstringIKcEENS7_9env_var_tERSG_EENS2_ISG_NS7_13description_tESI_EEEEEEEixENS0_7keywordIS8_Lb0EEE
FNA:6,0,_ZNK5boost3nfp23named_parameter_combineINS0_15named_parameterIKNS_9unit_test5utils17ti_delimeter_typeENS4_12_GLOBAL__N_117kept_delimeters_tERS6_EENS1_INS2_IPKcNS7_20dropped_delimeters_tESC_EENS2_IbNS7_19keep_empty_tokens_tEbEEEEEixENS0_7keywordIS8_Lb0EEE
FNA:6,0,_ZNK5boost3nfp23named_parameter_combineINS0_15named_parameterIKNS_9unit_test5utils17ti_delimeter_typeENS4_12_GLOBAL__N_117kept_delimeters_tERS6_EENS2_IPKcNS7_20dropped_delimeters_tESC_EEEixENS0_7keywordIS8_Lb0EEE
FNA:6,1,_ZNK5boost3nfp23named_parameter_combineINS0_15named_parameterIKNS_9unit_test9log_levelENS_7runtime12_GLOBAL__N_115default_value_tERS5_EENS1_INS2_IKNS3_13basic_cstringIKcEENS7_9env_var_tERSE_EENS2_ISE_NS7_13description_tESG_EEEEEixENS0_7keywordIS8_Lb0EEE
FNA:6,1,_ZNK5boost3nfp23named_parameter_combineINS0_15named_parameterIKNSt7__cxx1112basic_stringIcSt11char_traitsIcESaIcEEENS_7runtime12_GLOBAL__N_115default_value_tERS9_EENS1_INS2_IKNS_9unit_test13basic_cstringIKcEENSB_9env_var_tERSJ_EENS2_ISJ_NSB_13description_tESL_EEEEEixENS0_7keywordISC_Lb0EEE
FNA:6,1,_ZNK5boost3nfp23named_parameter_combineINS0_15named_parameterIKNSt7__cxx1112basic_stringIcSt11char_traitsIcESaIcEEENS_7runtime12_GLOBAL__N_116optional_value_tERS9_EENS2_IKNS_9unit_test13basic_cstringIKcEENSB_13description_tERSJ_EEEixENS0_7keywordISC_Lb0EEE
FNA:6,2,_ZNK5boost3nfp23named_parameter_combineINS0_15named_parameterIKSt16initializer_listISt4pairIKNS_9unit_test13basic_cstringIKcEENS5_12report_levelEEENS_7runtime12_GLOBAL__N_113enum_values_tERSD_EENS1_INS2_IKSA_NSF_15default_value_tERSJ_EENS1_INS2_IS9_NSF_9env_var_tERS9_EENS2_IS9_NSF_13description_tESO_EEEEEEEixENS0_7keywordISG_Lb0EEE
FNA:6,4,_ZNK5boost3nfp23named_parameter_combineINS0_15named_parameterIKSt16initializer_listISt4pairIKNS_9unit_test13basic_cstringIKcEENS5_13output_formatEEENS_7runtime12_GLOBAL__N_113enum_values_tERSD_EENS1_INS2_IKSA_NSF_15default_value_tERSJ_EENS1_INS2_IS9_NSF_9env_var_tERS9_EENS2_IS9_NSF_13description_tESO_EEEEEEEixENS0_7keywordISG_Lb0EEE
FNA:6,2,_ZNK5boost3nfp23named_parameter_combineINS0_15named_parameterIKSt16initializer_listISt4pairIKNS_9unit_test13basic_cstringIKcEENS5_13output_formatEEENS_7runtime12_GLOBAL__N_113enum_values_tERSD_EENS1_INS2_IKSA_NSF_16optional_value_tERSJ_EENS1_INS2_ISJ_NSF_15default_value_tESL_EENS1_INS2_IS9_NSF_9env_var_tERS9_EENS2_IS9_NSF_13description_tESQ_EEEEEEEEEixENS0_7keywordISG_Lb0EEE
FNA:6,2,_ZNK5boost3nfp23named_parameter_combineINS0_15named_parameterIKSt16initializer_listISt4pairIKNS_9unit_test13basic_cstringIKcEENS5_13output_formatEEENS_7runtime12_GLOBAL__N_113enum_values_tERSD_EENS1_INS2_IS9_NSF_9env_var_tERS9_EENS2_IS9_NSF_13description_tESK_EEEEEixENS0_7keywordISG_Lb0EEE
FNA:6,2,_ZNK5boost3nfp23named_parameter_combineINS0_15named_parameterIKSt16initializer_listISt4pairIKNS_9unit_test13basic_cstringIKcEENS5_9log_levelEEENS_7runtime12_GLOBAL__N_113enum_values_tERSD_EENS1_INS2_IKSA_NSF_15default_value_tERSJ_EENS1_INS2_IS9_NSF_9env_var_tERS9_EENS2_IS9_NSF_13description_tESO_EEEEEEEixENS0_7keywordISG_Lb0EEE
FNA:6,1,_ZNK5boost3nfp23named_parameter_combineINS0_15named_parameterIKZNS_9unit_test14runtime_config12_GLOBAL__N_1L19register_parametersERNS_7runtime16parameters_storeEEUlNS3_13basic_cstringIKcEEE_NS6_12_GLOBAL__N_110callback_tERSD_EENS1_INS2_IKSB_NSE_9env_var_tERSI_EENS2_ISI_NSE_13description_tESK_EEEEEixENS0_7keywordISF_Lb0EEE
FNA:6,4,_ZNK5boost3nfp23named_parameter_combineINS0_15named_parameterIKbNS_7runtime12_GLOBAL__N_115default_value_tERS3_EENS1_INS2_IKNS_9unit_test13basic_cstringIKcEENS5_9env_var_tERSD_EENS2_ISD_NS5_13description_tESF_EEEEEixENS0_7keywordIS6_Lb0EEE
FNA:6,7,_ZNK5boost3nfp23named_parameter_combineINS0_15named_parameterIKbNS_7runtime12_GLOBAL__N_115default_value_tERS3_EENS1_INS2_IS3_NS5_16optional_value_tES7_EENS1_INS2_IKNS_9unit_test13basic_cstringIKcEENS5_6help_tERSF_EENS1_INS2_ISF_NS5_9env_var_tESH_EENS2_ISF_NS5_13description_tESH_EEEEEEEEEixENS0_7keywordIS6_Lb0EEE
FNA:6,2,_ZNK5boost3nfp23named_parameter_combineINS0_15named_parameterIKbNS_7runtime12_GLOBAL__N_115default_value_tERS3_EENS1_INS2_IS3_NS5_16optional_value_tES7_EENS2_IKNS_9unit_test13basic_cstringIKcEENS5_13description_tERSF_EEEEEixENS0_7keywordIS6_Lb0EEE
FNA:6,4,_ZNK5boost3nfp23named_parameter_combineINS0_15named_parameterIKbNS_7runtime12_GLOBAL__N_116optional_value_tERS3_EENS1_INS2_IKNS_9unit_test13basic_cstringIKcEENS5_6help_tERSD_EENS1_INS2_IS3_NS5_15default_value_tES7_EENS1_INS2_ISD_NS5_9env_var_tESF_EENS2_ISD_NS5_13description_tESF_EEEEEEEEEixENS0_7keywordIS6_Lb0EEE
FNA:6,7,_ZNK5boost3nfp23named_parameter_combineINS0_15named_parameterIKbNS_7runtime12_GLOBAL__N_116optional_value_tERS3_EENS1_INS2_IKNS_9unit_test13basic_cstringIKcEENS5_6help_tERSD_EENS1_INS2_ISD_NS5_9env_var_tESF_EENS2_ISD_NS5_13description_tESF_EEEEEEEixENS0_7keywordIS6_Lb0EEE
FNA:6,2,_ZNK5boost3nfp23named_parameter_combineINS0_15named_parameterIKbNS_7runtime12_GLOBAL__N_116optional_value_tERS3_EENS2_IKNS_9unit_test13basic_cstringIKcEENS5_13description_tERSD_EEEixENS0_7keywordIS6_Lb0EEE
FNA:6,1,_ZNK5boost3nfp23named_parameter_combineINS0_15named_parameterIKjNS_7runtime12_GLOBAL__N_115default_value_tERS3_EENS1_INS2_IKNS_9unit_test13basic_cstringIKcEENS5_9env_var_tERSD_EENS2_ISD_NS5_13description_tESF_EEEEEixENS0_7keywordIS6_Lb0EEE
FNA:6,1,_ZNK5boost3nfp23named_parameter_combineINS0_15named_parameterIKjNS_7runtime12_GLOBAL__N_116optional_value_tERS3_EENS1_INS2_IS3_NS5_15default_value_tES7_EENS1_INS2_IKNS_9unit_test13basic_cstringIKcEENS5_9env_var_tERSF_EENS2_ISF_NS5_13description_tESH_EEEEEEEixENS0_7keywordIS6_Lb0EEE
FNA:6,1,_ZNK5boost3nfp23named_parameter_combineINS0_15named_parameterIKlNS_7runtime12_GLOBAL__N_115default_value_tERS3_EENS1_INS2_IKNS_9unit_test13basic_cstringIKcEENS5_9env_var_tERSD_EENS2_ISD_NS5_13description_tESF_EEEEEixENS0_7keywordIS6_Lb0EEE
FNA:6,1,_ZNK5boost3nfp23named_parameter_combineINS0_15named_parameterIKlNS_7runtime12_GLOBAL__N_116optional_value_tERS3_EENS1_INS2_IS3_NS5_15default_value_tES7_EENS1_INS2_IKNS_9unit_test13basic_cstringIKcEENS5_9env_var_tERSF_EENS2_ISF_NS5_13description_tESH_EEEEEEEixENS0_7keywordIS6_Lb0EEE
FNA:6,0,_ZNK5boost3nfp23named_parameter_combineINS0_15named_parameterIPKcNS_9unit_test5utils12_GLOBAL__N_120dropped_delimeters_tES4_EENS2_IbNS7_19keep_empty_tokens_tEbEEEixENS0_7keywordIS8_Lb0EEE
FNL:7,199,199
FNA:7,2,_ZNK5boost3nfp23named_parameter_combineINS0_15named_parameterIKNS_9unit_test12report_levelENS_7runtime12_GLOBAL__N_115default_value_tERS5_EENS1_INS2_IKNS3_13basic_cstringIKcEENS7_9env_var_tERSE_EENS2_ISE_NS7_13description_tESG_EEEEE3hasENS0_7keywordIS8_Lb0EEE
FNA:7,6,_ZNK5boost3nfp23named_parameter_combineINS0_15named_parameterIKNS_9unit_test13output_formatENS_7runtime12_GLOBAL__N_115default_value_tERS5_EENS1_INS2_IKNS3_13basic_cstringIKcEENS7_9env_var_tERSE_EENS2_ISE_NS7_13description_tESG_EEEEE3hasENS0_7keywordIS8_Lb0EEE
FNA:7,2,_ZNK5boost3nfp23named_parameter_combineINS0_15named_parameterIKNS_9unit_test13output_formatENS_7runtime12_GLOBAL__N_116optional_value_tERS5_EENS1_INS2_IS5_NS7_15default_value_tES9_EENS1_INS2_IKNS3_13basic_cstringIKcEENS7_9env_var_tERSG_EENS2_ISG_NS7_13description_tESI_EEEEEEE3hasENS0_7keywordIS8_Lb0EEE
FNA:7,0,_ZNK5boost3nfp23named_parameter_combineINS0_15named_parameterIKNS_9unit_test5utils17ti_delimeter_typeENS4_12_GLOBAL__N_117kept_delimeters_tERS6_EENS1_INS2_IPKcNS7_20dropped_delimeters_tESC_EENS2_IbNS7_19keep_empty_tokens_tEbEEEEE3hasENS0_7keywordIS8_Lb0EEE
FNA:7,0,_ZNK5boost3nfp23named_parameter_combineINS0_15named_parameterIKNS_9unit_test5utils17ti_delimeter_typeENS4_12_GLOBAL__N_117kept_delimeters_tERS6_EENS2_IPKcNS7_20dropped_delimeters_tESC_EEE3hasENS0_7keywordIS8_Lb0EEE
FNA:7,2,_ZNK5boost3nfp23named_parameter_combineINS0_15named_parameterIKNS_9unit_test9log_levelENS_7runtime12_GLOBAL__N_115default_value_tERS5_EENS1_INS2_IKNS3_13basic_cstringIKcEENS7_9env_var_tERSE_EENS2_ISE_NS7_13description_tESG_EEEEE3hasENS0_7keywordIS8_Lb0EEE
FNA:7,2,_ZNK5boost3nfp23named_parameter_combineINS0_15named_parameterIKNSt7__cxx1112basic_stringIcSt11char_traitsIcESaIcEEENS_7runtime12_GLOBAL__N_115default_value_tERS9_EENS1_INS2_IKNS_9unit_test13basic_cstringIKcEENSB_9env_var_tERSJ_EENS2_ISJ_NSB_13description_tESL_EEEEE3hasENS0_7keywordISC_Lb0EEE
FNA:7,2,_ZNK5boost3nfp23named_parameter_combineINS0_15named_parameterIKNSt7__cxx1112basic_stringIcSt11char_traitsIcESaIcEEENS_7runtime12_GLOBAL__N_116optional_value_tERS9_EENS2_IKNS_9unit_test13basic_cstringIKcEENSB_13description_tERSJ_EEE3hasENS0_7keywordISC_Lb0EEE
FNA:7,4,_ZNK5boost3nfp23named_parameter_combineINS0_15named_parameterIKbNS_7runtime12_GLOBAL__N_115default_value_tERS3_EENS1_INS2_IKNS_9unit_test13basic_cstringIKcEENS5_9env_var_tERSD_EENS2_ISD_NS5_13description_tESF_EEEEE3hasENS0_7keywordIS6_Lb0EEE
FNA:7,7,_ZNK5boost3nfp23named_parameter_combineINS0_15named_parameterIKbNS_7runtime12_GLOBAL__N_115default_value_tERS3_EENS1_INS2_IS3_NS5_16optional_value_tES7_EENS1_INS2_IKNS_9unit_test13basic_cstringIKcEENS5_6help_tERSF_EENS1_INS2_ISF_NS5_9env_var_tESH_EENS2_ISF_NS5_13description_tESH_EEEEEEEEE3hasENS0_7keywordIS6_Lb0EEE
FNA:7,2,_ZNK5boost3nfp23named_parameter_combineINS0_15named_parameterIKbNS_7runtime12_GLOBAL__N_115default_value_tERS3_EENS1_INS2_IS3_NS5_16optional_value_tES7_EENS2_IKNS_9unit_test13basic_cstringIKcEENS5_13description_tERSF_EEEEE3hasENS0_7keywordIS6_Lb0EEE
FNA:7,4,_ZNK5boost3nfp23named_parameter_combineINS0_15named_parameterIKbNS_7runtime12_GLOBAL__N_116optional_value_tERS3_EENS1_INS2_IKNS_9unit_test13basic_cstringIKcEENS5_6help_tERSD_EENS1_INS2_IS3_NS5_15default_value_tES7_EENS1_INS2_ISD_NS5_9env_var_tESF_EENS2_ISD_NS5_13description_tESF_EEEEEEEEE3hasENS0_7keywordIS6_Lb0EEE
FNA:7,7,_ZNK5boost3nfp23named_parameter_combineINS0_15named_parameterIKbNS_7runtime12_GLOBAL__N_116optional_value_tERS3_EENS1_INS2_IKNS_9unit_test13basic_cstringIKcEENS5_6help_tERSD_EENS1_INS2_ISD_NS5_9env_var_tESF_EENS2_ISD_NS5_13description_tESF_EEEEEEE3hasENS0_7keywordIS6_Lb0EEE
FNA:7,2,_ZNK5boost3nfp23named_parameter_combineINS0_15named_parameterIKbNS_7runtime12_GLOBAL__N_116optional_value_tERS3_EENS2_IKNS_9unit_test13basic_cstringIKcEENS5_13description_tERSD_EEE3hasENS0_7keywordIS6_Lb0EEE
FNA:7,2,_ZNK5boost3nfp23named_parameter_combineINS0_15named_parameterIKjNS_7runtime12_GLOBAL__N_115default_value_tERS3_EENS1_INS2_IKNS_9unit_test13basic_cstringIKcEENS5_9env_var_tERSD_EENS2_ISD_NS5_13description_tESF_EEEEE3hasENS0_7keywordIS6_Lb0EEE
FNA:7,2,_ZNK5boost3nfp23named_parameter_combineINS0_15named_parameterIKjNS_7runtime12_GLOBAL__N_116optional_value_tERS3_EENS1_INS2_IS3_NS5_15default_value_tES7_EENS1_INS2_IKNS_9unit_test13basic_cstringIKcEENS5_9env_var_tERSF_EENS2_ISF_NS5_13description_tESH_EEEEEEE3hasENS0_7keywordIS6_Lb0EEE
FNA:7,2,_ZNK5boost3nfp23named_parameter_combineINS0_15named_parameterIKlNS_7runtime12_GLOBAL__N_115default_value_tERS3_EENS1_INS2_IKNS_9unit_test13basic_cstringIKcEENS5_9env_var_tERSD_EENS2_ISD_NS5_13description_tESF_EEEEE3hasENS0_7keywordIS6_Lb0EEE
FNA:7,2,_ZNK5boost3nfp23named_parameter_combineINS0_15named_parameterIKlNS_7runtime12_GLOBAL__N_116optional_value_tERS3_EENS1_INS2_IS3_NS5_15default_value_tES7_EENS1_INS2_IKNS_9unit_test13basic_cstringIKcEENS5_9env_var_tERSF_EENS2_ISF_NS5_13description_tESH_EEEEEEE3hasENS0_7keywordIS6_Lb0EEE
FNA:7,0,_ZNK5boost3nfp23named_parameter_combineINS0_15named_parameterIPKcNS_9unit_test5utils12_GLOBAL__N_120dropped_delimeters_tES4_EENS2_IbNS7_19keep_empty_tokens_tEbEEE3hasENS0_7keywordIS8_Lb0EEE
FNL:8,233,236
FNA:8,1,_ZN5boost3nfp15named_parameterIKNS_9unit_test12report_levelENS_7runtime12_GLOBAL__N_115default_value_tERS4_EC2ES8_
FNA:8,1,_ZN5boost3nfp15named_parameterIKNS_9unit_test13basic_cstringIKcEENS_7runtime12_GLOBAL__N_112neg_prefix_tERS6_EC2ESA_
FNA:8,8,_ZN5boost3nfp15named_parameterIKNS_9unit_test13basic_cstringIKcEENS_7runtime12_GLOBAL__N_112value_hint_tERS6_EC2ESA_
FNA:8,28,_ZN5boost3nfp15named_parameterIKNS_9unit_test13basic_cstringIKcEENS_7runtime12_GLOBAL__N_113description_tERS6_EC2ESA_
FNA:8,1,_ZN5boost3nfp15named_parameterIKNS_9unit_test13basic_cstringIKcEENS_7runtime12_GLOBAL__N_115end_of_params_tERS6_EC2ESA_
FNA:8,25,_ZN5boost3nfp15named_parameterIKNS_9unit_test13basic_cstringIKcEENS_7runtime12_GLOBAL__N_16help_tERS6_EC2ESA_
FNA:8,25,_ZN5boost3nfp15named_parameterIKNS_9unit_test13basic_cstringIKcEENS_7runtime12_GLOBAL__N_19env_var_tERS6_EC2ESA_
FNA:8,3,_ZN5boost3nfp15named_parameterIKNS_9unit_test13output_formatENS_7runtime12_GLOBAL__N_115default_value_tERS4_EC2ES8_
FNA:8,1,_ZN5boost3nfp15named_parameterIKNS_9unit_test13output_formatENS_7runtime12_GLOBAL__N_116optional_value_tERS4_EC2ES8_
FNA:8,0,_ZN5boost3nfp15named_parameterIKNS_9unit_test5utils17ti_delimeter_typeENS3_12_GLOBAL__N_117kept_delimeters_tERS5_EC2ES8_
FNA:8,1,_ZN5boost3nfp15named_parameterIKNS_9unit_test9log_levelENS_7runtime12_GLOBAL__N_115default_value_tERS4_EC2ES8_
FNA:8,1,_ZN5boost3nfp15named_parameterIKNSt7__cxx1112basic_stringIcSt11char_traitsIcESaIcEEENS_7runtime12_GLOBAL__N_115default_value_tERS8_EC2ESC_
FNA:8,1,_ZN5boost3nfp15named_parameterIKNSt7__cxx1112basic_stringIcSt11char_traitsIcESaIcEEENS_7runtime12_GLOBAL__N_116optional_value_tERS8_EC2ESC_
FNA:8,1,_ZN5boost3nfp15named_parameterIKSt16initializer_listISt4pairIKNS_9unit_test13basic_cstringIKcEENS4_12report_levelEEENS_7runtime12_GLOBAL__N_113enum_values_tERSC_EC2ESG_
FNA:8,4,_ZN5boost3nfp15named_parameterIKSt16initializer_listISt4pairIKNS_9unit_test13basic_cstringIKcEENS4_13output_formatEEENS_7runtime12_GLOBAL__N_113enum_values_tERSC_EC2ESG_
FNA:8,1,_ZN5boost3nfp15named_parameterIKSt16initializer_listISt4pairIKNS_9unit_test13basic_cstringIKcEENS4_9log_levelEEENS_7runtime12_GLOBAL__N_113enum_values_tERSC_EC2ESG_
FNA:8,1,_ZN5boost3nfp15named_parameterIKZNS_9unit_test14runtime_config12_GLOBAL__N_1L19register_parametersERNS_7runtime16parameters_storeEEUlNS2_13basic_cstringIKcEEE_NS5_12_GLOBAL__N_110callback_tERSC_EC2ESF_
FNA:8,30,_ZN5boost3nfp15named_parameterIKbNS_7runtime12_GLOBAL__N_115default_value_tERS2_EC2ES6_
FNA:8,26,_ZN5boost3nfp15named_parameterIKbNS_7runtime12_GLOBAL__N_116optional_value_tERS2_EC2ES6_
FNA:8,1,_ZN5boost3nfp15named_parameterIKjNS_7runtime12_GLOBAL__N_115default_value_tERS2_EC2ES6_
FNA:8,1,_ZN5boost3nfp15named_parameterIKjNS_7runtime12_GLOBAL__N_116optional_value_tERS2_EC2ES6_
FNA:8,1,_ZN5boost3nfp15named_parameterIKlNS_7runtime12_GLOBAL__N_115default_value_tERS2_EC2ES6_
FNA:8,1,_ZN5boost3nfp15named_parameterIKlNS_7runtime12_GLOBAL__N_116optional_value_tERS2_EC2ES6_
FNA:8,0,_ZN5boost3nfp15named_parameterIPKcNS_9unit_test5utils12_GLOBAL__N_120dropped_delimeters_tES3_EC2ES3_
FNA:8,1,_ZN5boost3nfp15named_parameterIbNS_9unit_test5utils12_GLOBAL__N_119keep_empty_tokens_tEbEC2Eb
FNA:8,1,_ZN5boost3nfp15named_parameterIcNS0_16no_params_type_tEcEC2Ec
FNL:9,237,240
FNA:9,3,_ZN5boost3nfp15named_parameterIKNS_9unit_test12report_levelENS_7runtime12_GLOBAL__N_115default_value_tERS4_EC2ERKS9_
FNA:9,1,_ZN5boost3nfp15named_parameterIKNS_9unit_test13basic_cstringIKcEENS_7runtime12_GLOBAL__N_112neg_prefix_tERS6_EC2ERKSB_
FNA:9,16,_ZN5boost3nfp15named_parameterIKNS_9unit_test13basic_cstringIKcEENS_7runtime12_GLOBAL__N_112value_hint_tERS6_EC2ERKSB_
FNA:9,133,_ZN5boost3nfp15named_parameterIKNS_9unit_test13basic_cstringIKcEENS_7runtime12_GLOBAL__N_113description_tERS6_EC2ERKSB_
FNA:9,1,_ZN5boost3nfp15named_parameterIKNS_9unit_test13basic_cstringIKcEENS_7runtime12_GLOBAL__N_115end_of_params_tERS6_EC2ERKSB_
FNA:9,69,_ZN5boost3nfp15named_parameterIKNS_9unit_test13basic_cstringIKcEENS_7runtime12_GLOBAL__N_16help_tERS6_EC2ERKSB_
FNA:9,122,_ZN5boost3nfp15named_parameterIKNS_9unit_test13basic_cstringIKcEENS_7runtime12_GLOBAL__N_19env_var_tERS6_EC2ERKSB_
FNA:9,10,_ZN5boost3nfp15named_parameterIKNS_9unit_test13output_formatENS_7runtime12_GLOBAL__N_115default_value_tERS4_EC2ERKS9_
FNA:9,3,_ZN5boost3nfp15named_parameterIKNS_9unit_test13output_formatENS_7runtime12_GLOBAL__N_116optional_value_tERS4_EC2ERKS9_
FNA:9,0,_ZN5boost3nfp15named_parameterIKNS_9unit_test5utils17ti_delimeter_typeENS3_12_GLOBAL__N_117kept_delimeters_tERS5_EC2ERKS9_
FNA:9,3,_ZN5boost3nfp15named_parameterIKNS_9unit_test9log_levelENS_7runtime12_GLOBAL__N_115default_value_tERS4_EC2ERKS9_
FNA:9,3,_ZN5boost3nfp15named_parameterIKNSt7__cxx1112basic_stringIcSt11char_traitsIcESaIcEEENS_7runtime12_GLOBAL__N_115default_value_tERS8_EC2ERKSD_
FNA:9,3,_ZN5boost3nfp15named_parameterIKNSt7__cxx1112basic_stringIcSt11char_traitsIcESaIcEEENS_7runtime12_GLOBAL__N_116optional_value_tERS8_EC2ERKSD_
FNA:9,2,_ZN5boost3nfp15named_parameterIKSt16initializer_listISt4pairIKNS_9unit_test13basic_cstringIKcEENS4_12report_levelEEENS_7runtime12_GLOBAL__N_113enum_values_tERSC_EC2ERKSH_
FNA:9,8,_ZN5boost3nfp15named_parameterIKSt16initializer_listISt4pairIKNS_9unit_test13basic_cstringIKcEENS4_13output_formatEEENS_7runtime12_GLOBAL__N_113enum_values_tERSC_EC2ERKSH_
FNA:9,2,_ZN5boost3nfp15named_parameterIKSt16initializer_listISt4pairIKNS_9unit_test13basic_cstringIKcEENS4_9log_levelEEENS_7runtime12_GLOBAL__N_113enum_values_tERSC_EC2ERKSH_
FNA:9,1,_ZN5boost3nfp15named_parameterIKZNS_9unit_test14runtime_config12_GLOBAL__N_1L19register_parametersERNS_7runtime16parameters_storeEEUlNS2_13basic_cstringIKcEEE_NS5_12_GLOBAL__N_110callback_tERSC_EC2ERKSG_
FNA:9,42,_ZN5boost3nfp15named_parameterIKbNS_7runtime12_GLOBAL__N_115default_value_tERS2_EC2ERKS7_
FNA:9,52,_ZN5boost3nfp15named_parameterIKbNS_7runtime12_GLOBAL__N_116optional_value_tERS2_EC2ERKS7_
FNA:9,4,_ZN5boost3nfp15named_parameterIKjNS_7runtime12_GLOBAL__N_115default_value_tERS2_EC2ERKS7_
FNA:9,3,_ZN5boost3nfp15named_parameterIKjNS_7runtime12_GLOBAL__N_116optional_value_tERS2_EC2ERKS7_
FNA:9,4,_ZN5boost3nfp15named_parameterIKlNS_7runtime12_GLOBAL__N_115default_value_tERS2_EC2ERKS7_
FNA:9,3,_ZN5boost3nfp15named_parameterIKlNS_7runtime12_GLOBAL__N_116optional_value_tERS2_EC2ERKS7_
FNA:9,0,_ZN5boost3nfp15named_parameterIPKcNS_9unit_test5utils12_GLOBAL__N_120dropped_delimeters_tES3_EC2ERKS8_
FNA:9,0,_ZN5boost3nfp15named_parameterIbNS_9unit_test5utils12_GLOBAL__N_119keep_empty_tokens_tEbEC2ERKS6_
FNL:10,244,244
FNA:10,1,_ZNK5boost3nfp15named_parameterIKNS_9unit_test12report_levelENS_7runtime12_GLOBAL__N_115default_value_tERS4_EixENS0_7keywordIS7_Lb0EEE
FNA:10,1,_ZNK5boost3nfp15named_parameterIKNS_9unit_test13basic_cstringIKcEENS_7runtime12_GLOBAL__N_112neg_prefix_tERS6_EixENS0_7keywordIS9_Lb0EEE
FNA:10,8,_ZNK5boost3nfp15named_parameterIKNS_9unit_test13basic_cstringIKcEENS_7runtime12_GLOBAL__N_112value_hint_tERS6_EixENS0_7keywordIS9_Lb0EEE
FNA:10,28,_ZNK5boost3nfp15named_parameterIKNS_9unit_test13basic_cstringIKcEENS_7runtime12_GLOBAL__N_113description_tERS6_EixENS0_7keywordIS9_Lb0EEE
FNA:10,1,_ZNK5boost3nfp15named_parameterIKNS_9unit_test13basic_cstringIKcEENS_7runtime12_GLOBAL__N_115end_of_params_tERS6_EixENS0_7keywordIS9_Lb0EEE
FNA:10,25,_ZNK5boost3nfp15named_parameterIKNS_9unit_test13basic_cstringIKcEENS_7runtime12_GLOBAL__N_16help_tERS6_EixENS0_7keywordIS9_Lb0EEE
FNA:10,25,_ZNK5boost3nfp15named_parameterIKNS_9unit_test13basic_cstringIKcEENS_7runtime12_GLOBAL__N_19env_var_tERS6_EixENS0_7keywordIS9_Lb0EEE
FNA:10,3,_ZNK5boost3nfp15named_parameterIKNS_9unit_test13output_formatENS_7runtime12_GLOBAL__N_115default_value_tERS4_EixENS0_7keywordIS7_Lb0EEE
FNA:10,1,_ZNK5boost3nfp15named_parameterIKNS_9unit_test13output_formatENS_7runtime12_GLOBAL__N_116optional_value_tERS4_EixENS0_7keywordIS7_Lb0EEE
FNA:10,0,_ZNK5boost3nfp15named_parameterIKNS_9unit_test5utils17ti_delimeter_typeENS3_12_GLOBAL__N_117kept_delimeters_tERS5_EixENS0_7keywordIS7_Lb0EEE
FNA:10,1,_ZNK5boost3nfp15named_parameterIKNS_9unit_test9log_levelENS_7runtime12_GLOBAL__N_115default_value_tERS4_EixENS0_7keywordIS7_Lb0EEE
FNA:10,1,_ZNK5boost3nfp15named_parameterIKNSt7__cxx1112basic_stringIcSt11char_traitsIcESaIcEEENS_7runtime12_GLOBAL__N_115default_value_tERS8_EixENS0_7keywordISB_Lb0EEE
FNA:10,1,_ZNK5boost3nfp15named_parameterIKNSt7__cxx1112basic_stringIcSt11char_traitsIcESaIcEEENS_7runtime12_GLOBAL__N_116optional_value_tERS8_EixENS0_7keywordISB_Lb0EEE
FNA:10,2,_ZNK5boost3nfp15named_parameterIKSt16initializer_listISt4pairIKNS_9unit_test13basic_cstringIKcEENS4_12report_levelEEENS_7runtime12_GLOBAL__N_113enum_values_tERSC_EixENS0_7keywordISF_Lb0EEE
FNA:10,8,_ZNK5boost3nfp15named_parameterIKSt16initializer_listISt4pairIKNS_9unit_test13basic_cstringIKcEENS4_13output_formatEEENS_7runtime12_GLOBAL__N_113enum_values_tERSC_EixENS0_7keywordISF_Lb0EEE
FNA:10,2,_ZNK5boost3nfp15named_parameterIKSt16initializer_listISt4pairIKNS_9unit_test13basic_cstringIKcEENS4_9log_levelEEENS_7runtime12_GLOBAL__N_113enum_values_tERSC_EixENS0_7keywordISF_Lb0EEE
FNA:10,1,_ZNK5boost3nfp15named_parameterIKZNS_9unit_test14runtime_config12_GLOBAL__N_1L19register_parametersERNS_7runtime16parameters_storeEEUlNS2_13basic_cstringIKcEEE_NS5_12_GLOBAL__N_110callback_tERSC_EixENS0_7keywordISE_Lb0EEE
FNA:10,13,_ZNK5boost3nfp15named_parameterIKbNS_7runtime12_GLOBAL__N_115default_value_tERS2_EixENS0_7keywordIS5_Lb0EEE
FNA:10,13,_ZNK5boost3nfp15named_parameterIKbNS_7runtime12_GLOBAL__N_116optional_value_tERS2_EixENS0_7keywordIS5_Lb0EEE
FNA:10,1,_ZNK5boost3nfp15named_parameterIKjNS_7runtime12_GLOBAL__N_115default_value_tERS2_EixENS0_7keywordIS5_Lb0EEE
FNA:10,1,_ZNK5boost3nfp15named_parameterIKjNS_7runtime12_GLOBAL__N_116optional_value_tERS2_EixENS0_7keywordIS5_Lb0EEE
FNA:10,1,_ZNK5boost3nfp15named_parameterIKlNS_7runtime12_GLOBAL__N_115default_value_tERS2_EixENS0_7keywordIS5_Lb0EEE
FNA:10,1,_ZNK5boost3nfp15named_parameterIKlNS_7runtime12_GLOBAL__N_116optional_value_tERS2_EixENS0_7keywordIS5_Lb0EEE
FNA:10,0,_ZNK5boost3nfp15named_parameterIPKcNS_9unit_test5utils12_GLOBAL__N_120dropped_delimeters_tES3_EixENS0_7keywordIS7_Lb0EEE
FNL:11,248,248
FNA:11,2,_ZNK5boost3nfp15named_parameterIKNS_9unit_test12report_levelENS_7runtime12_GLOBAL__N_115default_value_tERS4_E3hasENS0_7keywordIS7_Lb0EEE
FNA:11,6,_ZNK5boost3nfp15named_parameterIKNS_9unit_test13output_formatENS_7runtime12_GLOBAL__N_115default_value_tERS4_E3hasENS0_7keywordIS7_Lb0EEE
FNA:11,2,_ZNK5boost3nfp15named_parameterIKNS_9unit_test13output_formatENS_7runtime12_GLOBAL__N_116optional_value_tERS4_E3hasENS0_7keywordIS7_Lb0EEE
FNA:11,0,_ZNK5boost3nfp15named_parameterIKNS_9unit_test5utils17ti_delimeter_typeENS3_12_GLOBAL__N_117kept_delimeters_tERS5_E3hasENS0_7keywordIS7_Lb0EEE
FNA:11,2,_ZNK5boost3nfp15named_parameterIKNS_9unit_test9log_levelENS_7runtime12_GLOBAL__N_115default_value_tERS4_E3hasENS0_7keywordIS7_Lb0EEE
FNA:11,2,_ZNK5boost3nfp15named_parameterIKNSt7__cxx1112basic_stringIcSt11char_traitsIcESaIcEEENS_7runtime12_GLOBAL__N_115default_value_tERS8_E3hasENS0_7keywordISB_Lb0EEE
FNA:11,2,_ZNK5boost3nfp15named_parameterIKNSt7__cxx1112basic_stringIcSt11char_traitsIcESaIcEEENS_7runtime12_GLOBAL__N_116optional_value_tERS8_E3hasENS0_7keywordISB_Lb0EEE
FNA:11,13,_ZNK5boost3nfp15named_parameterIKbNS_7runtime12_GLOBAL__N_115default_value_tERS2_E3hasENS0_7keywordIS5_Lb0EEE
FNA:11,13,_ZNK5boost3nfp15named_parameterIKbNS_7runtime12_GLOBAL__N_116optional_value_tERS2_E3hasENS0_7keywordIS5_Lb0EEE
FNA:11,2,_ZNK5boost3nfp15named_parameterIKjNS_7runtime12_GLOBAL__N_115default_value_tERS2_E3hasENS0_7keywordIS5_Lb0EEE
FNA:11,2,_ZNK5boost3nfp15named_parameterIKjNS_7runtime12_GLOBAL__N_116optional_value_tERS2_E3hasENS0_7keywordIS5_Lb0EEE
FNA:11,2,_ZNK5boost3nfp15named_parameterIKlNS_7runtime12_GLOBAL__N_115default_value_tERS2_E3hasENS0_7keywordIS5_Lb0EEE
FNA:11,2,_ZNK5boost3nfp15named_parameterIKlNS_7runtime12_GLOBAL__N_116optional_value_tERS2_E3hasENS0_7keywordIS5_Lb0EEE
FNA:11,0,_ZNK5boost3nfp15named_parameterIPKcNS_9unit_test5utils12_GLOBAL__N_120dropped_delimeters_tES3_E3hasENS0_7keywordIS7_Lb0EEE
FNA:11,0,_ZNK5boost3nfp15named_parameterIbNS_9unit_test5utils12_GLOBAL__N_119keep_empty_tokens_tEbE3hasENS0_7keywordIS5_Lb0EEE
FNL:12,250,250
FNA:12,14,_ZNK5boost3nfp15named_parameterIKNS_9unit_test13basic_cstringIKcEENS_7runtime12_GLOBAL__N_113description_tERS6_E3hasINS8_15default_value_tEEEbNS0_7keywordIT_Lb0EEE
FNA:12,22,_ZNK5boost3nfp15named_parameterIKNS_9unit_test13basic_cstringIKcEENS_7runtime12_GLOBAL__N_113description_tERS6_E3hasINS8_16optional_value_tEEEbNS0_7keywordIT_Lb0EEE
FNA:12,0,_ZNK5boost3nfp15named_parameterIPKcNS_9unit_test5utils12_GLOBAL__N_120dropped_delimeters_tES3_E3hasINS6_19keep_empty_tokens_tEEEbNS0_7keywordIT_Lb0EEE
FNL:13,289,289
FNA:13,1,_ZNK5boost3nfp7keywordINS_7runtime12_GLOBAL__N_110callback_tELb0EEaSIZNS_9unit_test14runtime_config12_GLOBAL__N_1L19register_parametersERNS2_16parameters_storeEEUlNS7_13basic_cstringIKcEEE_EENS0_15named_parameterIKT_S4_RSI_EESJ_
FNA:13,1,_ZNK5boost3nfp7keywordINS_7runtime12_GLOBAL__N_115default_value_tELb0EEaSINS_9unit_test12report_levelEEENS0_15named_parameterIKT_S4_RSB_EESC_
FNA:13,3,_ZNK5boost3nfp7keywordINS_7runtime12_GLOBAL__N_115default_value_tELb0EEaSINS_9unit_test13output_formatEEENS0_15named_parameterIKT_S4_RSB_EESC_
FNA:13,1,_ZNK5boost3nfp7keywordINS_7runtime12_GLOBAL__N_115default_value_tELb0EEaSINS_9unit_test9log_levelEEENS0_15named_parameterIKT_S4_RSB_EESC_
FNA:13,1,_ZNK5boost3nfp7keywordINS_7runtime12_GLOBAL__N_115default_value_tELb0EEaSINSt7__cxx1112basic_stringIcSt11char_traitsIcESaIcEEEEENS0_15named_parameterIKT_S4_RSF_EESG_
FNA:13,30,_ZNK5boost3nfp7keywordINS_7runtime12_GLOBAL__N_115default_value_tELb0EEaSIbEENS0_15named_parameterIKT_S4_RS9_EESA_
FNA:13,1,_ZNK5boost3nfp7keywordINS_7runtime12_GLOBAL__N_115default_value_tELb0EEaSIjEENS0_15named_parameterIKT_S4_RS9_EESA_
FNA:13,1,_ZNK5boost3nfp7keywordINS_7runtime12_GLOBAL__N_115default_value_tELb0EEaSIlEENS0_15named_parameterIKT_S4_RS9_EESA_
FNA:13,1,_ZNK5boost3nfp7keywordINS_7runtime12_GLOBAL__N_116optional_value_tELb0EEaSINS_9unit_test13output_formatEEENS0_15named_parameterIKT_S4_RSB_EESC_
FNA:13,1,_ZNK5boost3nfp7keywordINS_7runtime12_GLOBAL__N_116optional_value_tELb0EEaSINSt7__cxx1112basic_stringIcSt11char_traitsIcESaIcEEEEENS0_15named_parameterIKT_S4_RSF_EESG_
FNA:13,26,_ZNK5boost3nfp7keywordINS_7runtime12_GLOBAL__N_116optional_value_tELb0EEaSIbEENS0_15named_parameterIKT_S4_RS9_EESA_
FNA:13,1,_ZNK5boost3nfp7keywordINS_7runtime12_GLOBAL__N_116optional_value_tELb0EEaSIjEENS0_15named_parameterIKT_S4_RS9_EESA_
FNA:13,1,_ZNK5boost3nfp7keywordINS_7runtime12_GLOBAL__N_116optional_value_tELb0EEaSIlEENS0_15named_parameterIKT_S4_RS9_EESA_
FNA:13,0,_ZNK5boost3nfp7keywordINS_9unit_test5utils12_GLOBAL__N_117kept_delimeters_tELb0EEaSINS3_17ti_delimeter_typeEEENS0_15named_parameterIKT_S5_RSB_EESC_
FNL:14,296,296
FNA:14,0,_ZNK5boost3nfp7keywordINS_9unit_test5utils12_GLOBAL__N_120dropped_delimeters_tELb0EEaSEPKc
FNL:15,308,308
FNA:15,1,_ZNK5boost3nfp13typed_keywordINS_9unit_test13basic_cstringIKcEENS_7runtime12_GLOBAL__N_112neg_prefix_tELb0EEaSERKS5_
FNA:15,8,_ZNK5boost3nfp13typed_keywordINS_9unit_test13basic_cstringIKcEENS_7runtime12_GLOBAL__N_112value_hint_tELb0EEaSERKS5_
FNA:15,28,_ZNK5boost3nfp13typed_keywordINS_9unit_test13basic_cstringIKcEENS_7runtime12_GLOBAL__N_113description_tELb0EEaSERKS5_
FNA:15,1,_ZNK5boost3nfp13typed_keywordINS_9unit_test13basic_cstringIKcEENS_7runtime12_GLOBAL__N_115end_of_params_tELb0EEaSERKS5_
FNA:15,25,_ZNK5boost3nfp13typed_keywordINS_9unit_test13basic_cstringIKcEENS_7runtime12_GLOBAL__N_16help_tELb0EEaSERKS5_
FNA:15,25,_ZNK5boost3nfp13typed_keywordINS_9unit_test13basic_cstringIKcEENS_7runtime12_GLOBAL__N_19env_var_tELb0EEaSERKS5_
FNA:15,1,_ZNK5boost3nfp13typed_keywordISt16initializer_listISt4pairIKNS_9unit_test13basic_cstringIKcEENS4_12report_levelEEENS_7runtime12_GLOBAL__N_113enum_values_tELb0EEaSERKSB_
FNA:15,4,_ZNK5boost3nfp13typed_keywordISt16initializer_listISt4pairIKNS_9unit_test13basic_cstringIKcEENS4_13output_formatEEENS_7runtime12_GLOBAL__N_113enum_values_tELb0EEaSERKSB_
FNA:15,1,_ZNK5boost3nfp13typed_keywordISt16initializer_listISt4pairIKNS_9unit_test13basic_cstringIKcEENS4_9log_levelEEENS_7runtime12_GLOBAL__N_113enum_values_tELb0EEaSERKSB_
FNL:16,322,322
FNA:16,1,_ZN5boost3nfp13typed_keywordIbNS_9unit_test5utils12_GLOBAL__N_119keep_empty_tokens_tELb0EEC2Ev
FNL:17,334,336
FNA:17,1,_ZN5boost3nfp10opt_assignINS_8functionIFvNS_9unit_test13basic_cstringIKcEEEEENS0_23named_parameter_combineINS0_15named_parameterIKS6_NS_7runtime12_GLOBAL__N_16help_tERSB_EENS9_INSA_IKSt16initializer_listISt4pairISB_NS3_12report_levelEEENSD_13enum_values_tERSM_EENS9_INSA_IKSJ_NSD_15default_value_tERSQ_EENS9_INSA_ISB_NSD_9env_var_tESF_EENSA_ISB_NSD_13description_tESF_EEEEEEEEEENS0_7keywordINSD_10callback_tELb0EEEEENS_11enable_if_cIXntsrNS0_9has_paramIT0_T1_EE5valueEvE4typeERT_RKS17_S18_
FNA:17,2,_ZN5boost3nfp10opt_assignINS_8functionIFvNS_9unit_test13basic_cstringIKcEEEEENS0_23named_parameter_combineINS0_15named_parameterIKS6_NS_7runtime12_GLOBAL__N_16help_tERSB_EENS9_INSA_IKSt16initializer_listISt4pairISB_NS3_13output_formatEEENSD_13enum_values_tERSM_EENS9_INSA_IKSJ_NSD_15default_value_tERSQ_EENS9_INSA_ISB_NSD_9env_var_tESF_EENSA_ISB_NSD_13description_tESF_EEEEEEEEEENS0_7keywordINSD_10callback_tELb0EEEEENS_11enable_if_cIXntsrNS0_9has_paramIT0_T1_EE5valueEvE4typeERT_RKS17_S18_
FNA:17,1,_ZN5boost3nfp10opt_assignINS_8functionIFvNS_9unit_test13basic_cstringIKcEEEEENS0_23named_parameter_combineINS0_15named_parameterIKS6_NS_7runtime12_GLOBAL__N_16help_tERSB_EENS9_INSA_IKSt16initializer_listISt4pairISB_NS3_13output_formatEEENSD_13enum_values_tERSM_EENS9_INSA_IKSJ_NSD_16optional_value_tERSQ_EENS9_INSA_ISQ_NSD_15default_value_tESS_EENS9_INSA_ISB_NSD_9env_var_tESF_EENSA_ISB_NSD_13description_tESF_EEEEEEEEEEEENS0_7keywordINSD_10callback_tELb0EEEEENS_11enable_if_cIXntsrNS0_9has_paramIT0_T1_EE5valueEvE4typeERT_RKS1A_S1B_
FNA:17,1,_ZN5boost3nfp10opt_assignINS_8functionIFvNS_9unit_test13basic_cstringIKcEEEEENS0_23named_parameter_combineINS0_15named_parameterIKS6_NS_7runtime12_GLOBAL__N_16help_tERSB_EENS9_INSA_IKSt16initializer_listISt4pairISB_NS3_13output_formatEEENSD_13enum_values_tERSM_EENS9_INSA_ISB_NSD_9env_var_tESF_EENSA_ISB_NSD_13description_tESF_EEEEEEEENS0_7keywordINSD_10callback_tELb0EEEEENS_11enable_if_cIXntsrNS0_9has_paramIT0_T1_EE5valueEvE4typeERT_RKS12_S13_
FNA:17,1,_ZN5boost3nfp10opt_assignINS_8functionIFvNS_9unit_test13basic_cstringIKcEEEEENS0_23named_parameter_combineINS0_15named_parameterIKS6_NS_7runtime12_GLOBAL__N_16help_tERSB_EENS9_INSA_IKSt16initializer_listISt4pairISB_NS3_9log_levelEEENSD_13enum_values_tERSM_EENS9_INSA_IKSJ_NSD_15default_value_tERSQ_EENS9_INSA_ISB_NSD_9env_var_tESF_EENSA_ISB_NSD_13description_tESF_EEEEEEEEEENS0_7keywordINSD_10callback_tELb0EEEEENS_11enable_if_cIXntsrNS0_9has_paramIT0_T1_EE5valueEvE4typeERT_RKS17_S18_
FNA:17,1,_ZN5boost3nfp10opt_assignINS_8functionIFvNS_9unit_test13basic_cstringIKcEEEEENS0_23named_parameter_combineINS0_15named_parameterIKS6_NS_7runtime12_GLOBAL__N_16help_tERSB_EENS9_INSA_ISB_NSD_12value_hint_tESF_EENS9_INSA_IKNSt7__cxx1112basic_stringIcSt11char_traitsIcESaIcEEENSD_15default_value_tERSP_EENS9_INSA_ISB_NSD_9env_var_tESF_EENSA_ISB_NSD_13description_tESF_EEEEEEEEEENS0_7keywordINSD_10callback_tELb0EEEEENS_11enable_if_cIXntsrNS0_9has_paramIT0_T1_EE5valueEvE4typeERT_RKS16_S17_
FNA:17,1,_ZN5boost3nfp10opt_assignINS_8functionIFvNS_9unit_test13basic_cstringIKcEEEEENS0_23named_parameter_combineINS0_15named_parameterIKS6_NS_7runtime12_GLOBAL__N_16help_tERSB_EENS9_INSA_ISB_NSD_12value_hint_tESF_EENS9_INSA_IKNSt7__cxx1112basic_stringIcSt11char_traitsIcESaIcEEENSD_16optional_value_tERSP_EENSA_ISB_NSD_13description_tESF_EEEEEEEENS0_7keywordINSD_10callback_tELb0EEEEENS_11enable_if_cIXntsrNS0_9has_paramIT0_T1_EE5valueEvE4typeERT_RKS13_S14_
FNA:17,1,_ZN5boost3nfp10opt_assignINS_8functionIFvNS_9unit_test13basic_cstringIKcEEEEENS0_23named_parameter_combineINS0_15named_parameterIKS6_NS_7runtime12_GLOBAL__N_16help_tERSB_EENS9_INSA_ISB_NSD_12value_hint_tESF_EENS9_INSA_IKjNSD_16optional_value_tERSJ_EENS9_INSA_ISJ_NSD_15default_value_tESL_EENS9_INSA_ISB_NSD_9env_var_tESF_EENSA_ISB_NSD_13description_tESF_EEEEEEEEEEEENS0_7keywordINSD_10callback_tELb0EEEEENS_11enable_if_cIXntsrNS0_9has_paramIT0_T1_EE5valueEvE4typeERT_RKS13_S14_
FNA:17,1,_ZN5boost3nfp10opt_assignINS_8functionIFvNS_9unit_test13basic_cstringIKcEEEEENS0_23named_parameter_combineINS0_15named_parameterIKS6_NS_7runtime12_GLOBAL__N_16help_tERSB_EENS9_INSA_ISB_NSD_12value_hint_tESF_EENS9_INSA_IKlNSD_16optional_value_tERSJ_EENS9_INSA_ISJ_NSD_15default_value_tESL_EENS9_INSA_ISB_NSD_9env_var_tESF_EENSA_ISB_NSD_13description_tESF_EEEEEEEEEEEENS0_7keywordINSD_10callback_tELb0EEEEENS_11enable_if_cIXntsrNS0_9has_paramIT0_T1_EE5valueEvE4typeERT_RKS13_S14_
FNA:17,4,_ZN5boost3nfp10opt_assignINS_8functionIFvNS_9unit_test13basic_cstringIKcEEEEENS0_23named_parameter_combineINS0_15named_parameterIKS6_NS_7runtime12_GLOBAL__N_16help_tERSB_EENS9_INSA_ISB_NSD_12value_hint_tESF_EENS9_INSA_ISB_NSD_9env_var_tESF_EENSA_ISB_NSD_13description_tESF_EEEEEEEENS0_7keywordINSD_10callback_tELb0EEEEENS_11enable_if_cIXntsrNS0_9has_paramIT0_T1_EE5valueEvE4typeERT_RKSV_SW_
FNA:17,7,_ZN5boost3nfp10opt_assignINS_8functionIFvNS_9unit_test13basic_cstringIKcEEEEENS0_23named_parameter_combineINS0_15named_parameterIKbNS_7runtime12_GLOBAL__N_115default_value_tERSB_EENS9_INSA_ISB_NSD_16optional_value_tESF_EENS9_INSA_IKS6_NSD_6help_tERSJ_EENS9_INSA_ISJ_NSD_9env_var_tESL_EENSA_ISJ_NSD_13description_tESL_EEEEEEEEEENS0_7keywordINSD_10callback_tELb0EEEEENS_11enable_if_cIXntsrNS0_9has_paramIT0_T1_EE5valueEvE4typeERT_RKS10_S11_
FNA:17,2,_ZN5boost3nfp10opt_assignINS_8functionIFvNS_9unit_test13basic_cstringIKcEEEEENS0_23named_parameter_combineINS0_15named_parameterIKbNS_7runtime12_GLOBAL__N_115default_value_tERSB_EENS9_INSA_ISB_NSD_16optional_value_tESF_EENSA_IKS6_NSD_13description_tERSJ_EEEEEENS0_7keywordINSD_10callback_tELb0EEEEENS_11enable_if_cIXntsrNS0_9has_paramIT0_T1_EE5valueEvE4typeERT_RKSU_SV_
FNA:17,4,_ZN5boost3nfp10opt_assignINS_8functionIFvNS_9unit_test13basic_cstringIKcEEEEENS0_23named_parameter_combineINS0_15named_parameterIKbNS_7runtime12_GLOBAL__N_116optional_value_tERSB_EENS9_INSA_IKS6_NSD_6help_tERSH_EENS9_INSA_ISB_NSD_15default_value_tESF_EENS9_INSA_ISH_NSD_9env_var_tESJ_EENSA_ISH_NSD_13description_tESJ_EEEEEEEEEENS0_7keywordINSD_10callback_tELb0EEEEENS_11enable_if_cIXntsrNS0_9has_paramIT0_T1_EE5valueEvE4typeERT_RKS10_S11_
FNA:17,1,_ZN5boost3nfp10opt_assignINS_9unit_test12report_levelENS0_23named_parameter_combineINS0_15named_parameterIKNS2_13basic_cstringIKcEENS_7runtime12_GLOBAL__N_16help_tERS9_EENS4_INS5_IKSt16initializer_listISt4pairIS9_S3_EENSB_13enum_values_tERSJ_EENS4_INS5_IKS3_NSB_15default_value_tERSN_EENS4_INS5_IS9_NSB_9env_var_tESD_EENS5_IS9_NSB_13description_tESD_EEEEEEEEEENS0_7keywordINSB_16optional_value_tELb0EEEEENS_11enable_if_cIXntsrNS0_9has_paramIT0_T1_EE5valueEvE4typeERT_RKS14_S15_
FNA:17,2,_ZN5boost3nfp10opt_assignINS_9unit_test13output_formatENS0_23named_parameter_combineINS0_15named_parameterIKNS2_13basic_cstringIKcEENS_7runtime12_GLOBAL__N_16help_tERS9_EENS4_INS5_IKSt16initializer_listISt4pairIS9_S3_EENSB_13enum_values_tERSJ_EENS4_INS5_IKS3_NSB_15default_value_tERSN_EENS4_INS5_IS9_NSB_9env_var_tESD_EENS5_IS9_NSB_13description_tESD_EEEEEEEEEENS0_7keywordINSB_16optional_value_tELb0EEEEENS_11enable_if_cIXntsrNS0_9has_paramIT0_T1_EE5valueEvE4typeERT_RKS14_S15_
FNA:17,1,_ZN5boost3nfp10opt_assignINS_9unit_test13output_formatENS0_23named_parameter_combineINS0_15named_parameterIKNS2_13basic_cstringIKcEENS_7runtime12_GLOBAL__N_16help_tERS9_EENS4_INS5_IKSt16initializer_listISt4pairIS9_S3_EENSB_13enum_values_tERSJ_EENS4_INS5_IS9_NSB_9env_var_tESD_EENS5_IS9_NSB_13description_tESD_EEEEEEEENS0_7keywordINSB_15default_value_tELb0EEEEENS_11enable_if_cIXntsrNS0_9has_paramIT0_T1_EE5valueEvE4typeERT_RKSZ_S10_
FNA:17,1,_ZN5boost3nfp10opt_assignINS_9unit_test13output_formatENS0_23named_parameter_combineINS0_15named_parameterIKNS2_13basic_cstringIKcEENS_7runtime12_GLOBAL__N_16help_tERS9_EENS4_INS5_IKSt16initializer_listISt4pairIS9_S3_EENSB_13enum_values_tERSJ_EENS4_INS5_IS9_NSB_9env_var_tESD_EENS5_IS9_NSB_13description_tESD_EEEEEEEENS0_7keywordINSB_16optional_value_tELb0EEEEENS_11enable_if_cIXntsrNS0_9has_paramIT0_T1_EE5valueEvE4typeERT_RKSZ_S10_
FNA:17,1,_ZN5boost3nfp10opt_assignINS_9unit_test9log_levelENS0_23named_parameter_combineINS0_15named_parameterIKNS2_13basic_cstringIKcEENS_7runtime12_GLOBAL__N_16help_tERS9_EENS4_INS5_IKSt16initializer_listISt4pairIS9_S3_EENSB_13enum_values_tERSJ_EENS4_INS5_IKS3_NSB_15default_value_tERSN_EENS4_INS5_IS9_NSB_9env_var_tESD_EENS5_IS9_NSB_13description_tESD_EEEEEEEEEENS0_7keywordINSB_16optional_value_tELb0EEEEENS_11enable_if_cIXntsrNS0_9has_paramIT0_T1_EE5valueEvE4typeERT_RKS14_S15_
FNA:17,1,_ZN5boost3nfp10opt_assignINSt7__cxx1112basic_stringIcSt11char_traitsIcESaIcEEENS0_23named_parameter_combineINS0_15named_parameterIKNS_9unit_test13basic_cstringIKcEENS_7runtime12_GLOBAL__N_16help_tERSE_EENS8_INS9_IKSt16initializer_listISt4pairISE_NSA_12report_levelEEENSG_13enum_values_tERSP_EENS8_INS9_IKSM_NSG_15default_value_tERST_EENS8_INS9_ISE_NSG_9env_var_tESI_EENS9_ISE_NSG_13description_tESI_EEEEEEEEEENS0_13typed_keywordISD_NSG_12value_hint_tELb0EEEEENS_11enable_if_cIXntsrNS0_9has_paramIT0_T1_EE5valueEvE4typeERT_RKS1A_S1B_
FNA:17,2,_ZN5boost3nfp10opt_assignINSt7__cxx1112basic_stringIcSt11char_traitsIcESaIcEEENS0_23named_parameter_combineINS0_15named_parameterIKNS_9unit_test13basic_cstringIKcEENS_7runtime12_GLOBAL__N_16help_tERSE_EENS8_INS9_IKSt16initializer_listISt4pairISE_NSA_13output_formatEEENSG_13enum_values_tERSP_EENS8_INS9_IKSM_NSG_15default_value_tERST_EENS8_INS9_ISE_NSG_9env_var_tESI_EENS9_ISE_NSG_13description_tESI_EEEEEEEEEENS0_13typed_keywordISD_NSG_12value_hint_tELb0EEEEENS_11enable_if_cIXntsrNS0_9has_paramIT0_T1_EE5valueEvE4typeERT_RKS1A_S1B_
FNA:17,1,_ZN5boost3nfp10opt_assignINSt7__cxx1112basic_stringIcSt11char_traitsIcESaIcEEENS0_23named_parameter_combineINS0_15named_parameterIKNS_9unit_test13basic_cstringIKcEENS_7runtime12_GLOBAL__N_16help_tERSE_EENS8_INS9_IKSt16initializer_listISt4pairISE_NSA_13output_formatEEENSG_13enum_values_tERSP_EENS8_INS9_IKSM_NSG_16optional_value_tERST_EENS8_INS9_IST_NSG_15default_value_tESV_EENS8_INS9_ISE_NSG_9env_var_tESI_EENS9_ISE_NSG_13description_tESI_EEEEEEEEEEEENS0_13typed_keywordISD_NSG_12value_hint_tELb0EEEEENS_11enable_if_cIXntsrNS0_9has_paramIT0_T1_EE5valueEvE4typeERT_RKS1D_S1E_
FNA:17,1,_ZN5boost3nfp10opt_assignINSt7__cxx1112basic_stringIcSt11char_traitsIcESaIcEEENS0_23named_parameter_combineINS0_15named_parameterIKNS_9unit_test13basic_cstringIKcEENS_7runtime12_GLOBAL__N_16help_tERSE_EENS8_INS9_IKSt16initializer_listISt4pairISE_NSA_13output_formatEEENSG_13enum_values_tERSP_EENS8_INS9_ISE_NSG_9env_var_tESI_EENS9_ISE_NSG_13description_tESI_EEEEEEEENS0_13typed_keywordISD_NSG_12value_hint_tELb0EEEEENS_11enable_if_cIXntsrNS0_9has_paramIT0_T1_EE5valueEvE4typeERT_RKS15_S16_
FNA:17,1,_ZN5boost3nfp10opt_assignINSt7__cxx1112basic_stringIcSt11char_traitsIcESaIcEEENS0_23named_parameter_combineINS0_15named_parameterIKNS_9unit_test13basic_cstringIKcEENS_7runtime12_GLOBAL__N_16help_tERSE_EENS8_INS9_IKSt16initializer_listISt4pairISE_NSA_9log_levelEEENSG_13enum_values_tERSP_EENS8_INS9_IKSM_NSG_15default_value_tERST_EENS8_INS9_ISE_NSG_9env_var_tESI_EENS9_ISE_NSG_13description_tESI_EEEEEEEEEENS0_13typed_keywordISD_NSG_12value_hint_tELb0EEEEENS_11enable_if_cIXntsrNS0_9has_paramIT0_T1_EE5valueEvE4typeERT_RKS1A_S1B_
FNA:17,1,_ZN5boost3nfp10opt_assignINSt7__cxx1112basic_stringIcSt11char_traitsIcESaIcEEENS0_23named_parameter_combineINS0_15named_parameterIKNS_9unit_test13basic_cstringIKcEENS_7runtime12_GLOBAL__N_16help_tERSE_EENS8_INS9_ISE_NSG_12value_hint_tESI_EENS8_INS9_IKS7_NSG_15default_value_tERSM_EENS8_INS9_ISE_NSG_9env_var_tESI_EENS9_ISE_NSG_13description_tESI_EEEEEEEEEENS0_7keywordINSG_16optional_value_tELb0EEEEENS_11enable_if_cIXntsrNS0_9has_paramIT0_T1_EE5valueEvE4typeERT_RKS13_S14_
FNA:17,1,_ZN5boost3nfp10opt_assignINSt7__cxx1112basic_stringIcSt11char_traitsIcESaIcEEENS0_23named_parameter_combineINS0_15named_parameterIKNS_9unit_test13basic_cstringIKcEENS_7runtime12_GLOBAL__N_16help_tERSE_EENS8_INS9_ISE_NSG_12value_hint_tESI_EENS8_INS9_IKS7_NSG_16optional_value_tERSM_EENS9_ISE_NSG_13description_tESI_EEEEEEEENS0_13typed_keywordISD_NSG_9env_var_tELb0EEEEENS_11enable_if_cIXntsrNS0_9has_paramIT0_T1_EE5valueEvE4typeERT_RKS10_S11_
FNA:17,1,_ZN5boost3nfp10opt_assignINSt7__cxx1112basic_stringIcSt11char_traitsIcESaIcEEENS0_23named_parameter_combineINS0_15named_parameterIKNS_9unit_test13basic_cstringIKcEENS_7runtime12_GLOBAL__N_16help_tERSE_EENS8_INS9_ISE_NSG_12value_hint_tESI_EENS8_INS9_IKS7_NSG_16optional_value_tERSM_EENS9_ISE_NSG_13description_tESI_EEEEEEEENS0_7keywordINSG_15default_value_tELb0EEEEENS_11enable_if_cIXntsrNS0_9has_paramIT0_T1_EE5valueEvE4typeERT_RKS10_S11_
FNA:17,2,_ZN5boost3nfp10opt_assignINSt7__cxx1112basic_stringIcSt11char_traitsIcESaIcEEENS0_23named_parameter_combineINS0_15named_parameterIKNS_9unit_test13basic_cstringIKcEENS_7runtime12_GLOBAL__N_16help_tERSE_EENS8_INS9_ISE_NSG_12value_hint_tESI_EENS8_INS9_ISE_NSG_9env_var_tESI_EENS9_ISE_NSG_13description_tESI_EEEEEEEENS0_7keywordINSG_15default_value_tELb0EEEEENS_11enable_if_cIXntsrNS0_9has_paramIT0_T1_EE5valueEvE4typeERT_RKSY_SZ_
FNA:17,2,_ZN5boost3nfp10opt_assignINSt7__cxx1112basic_stringIcSt11char_traitsIcESaIcEEENS0_23named_parameter_combineINS0_15named_parameterIKNS_9unit_test13basic_cstringIKcEENS_7runtime12_GLOBAL__N_16help_tERSE_EENS8_INS9_ISE_NSG_12value_hint_tESI_EENS8_INS9_ISE_NSG_9env_var_tESI_EENS9_ISE_NSG_13description_tESI_EEEEEEEENS0_7keywordINSG_16optional_value_tELb0EEEEENS_11enable_if_cIXntsrNS0_9has_paramIT0_T1_EE5valueEvE4typeERT_RKSY_SZ_
FNA:17,1,_ZN5boost3nfp10opt_assignINSt7__cxx1112basic_stringIcSt11char_traitsIcESaIcEEENS0_23named_parameter_combineINS0_15named_parameterIKZNS_9unit_test14runtime_config12_GLOBAL__N_1L19register_parametersERNS_7runtime16parameters_storeEEUlNSA_13basic_cstringIKcEEE_NSD_12_GLOBAL__N_110callback_tERSK_EENS8_INS9_IKSI_NSL_9env_var_tERSP_EENS9_ISP_NSL_13description_tESR_EEEEEENS0_13typed_keywordISI_NSL_12value_hint_tELb0EEEEENS_11enable_if_cIXntsrNS0_9has_paramIT0_T1_EE5valueEvE4typeERT_RKS12_S13_
FNA:17,1,_ZN5boost3nfp10opt_assignINSt7__cxx1112basic_stringIcSt11char_traitsIcESaIcEEENS0_23named_parameter_combineINS0_15named_parameterIKZNS_9unit_test14runtime_config12_GLOBAL__N_1L19register_parametersERNS_7runtime16parameters_storeEEUlNSA_13basic_cstringIKcEEE_NSD_12_GLOBAL__N_110callback_tERSK_EENS8_INS9_IKSI_NSL_9env_var_tERSP_EENS9_ISP_NSL_13description_tESR_EEEEEENS0_13typed_keywordISI_NSL_6help_tELb0EEEEENS_11enable_if_cIXntsrNS0_9has_paramIT0_T1_EE5valueEvE4typeERT_RKS12_S13_
FNA:17,1,_ZN5boost3nfp10opt_assignINSt7__cxx1112basic_stringIcSt11char_traitsIcESaIcEEENS0_23named_parameter_combineINS0_15named_parameterIKZNS_9unit_test14runtime_config12_GLOBAL__N_1L19register_parametersERNS_7runtime16parameters_storeEEUlNSA_13basic_cstringIKcEEE_NSD_12_GLOBAL__N_110callback_tERSK_EENS8_INS9_IKSI_NSL_9env_var_tERSP_EENS9_ISP_NSL_13description_tESR_EEEEEENS0_7keywordINSL_15default_value_tELb0EEEEENS_11enable_if_cIXntsrNS0_9has_paramIT0_T1_EE5valueEvE4typeERT_RKS12_S13_
FNA:17,1,_ZN5boost3nfp10opt_assignINSt7__cxx1112basic_stringIcSt11char_traitsIcESaIcEEENS0_23named_parameter_combineINS0_15named_parameterIKZNS_9unit_test14runtime_config12_GLOBAL__N_1L19register_parametersERNS_7runtime16parameters_storeEEUlNSA_13basic_cstringIKcEEE_NSD_12_GLOBAL__N_110callback_tERSK_EENS8_INS9_IKSI_NSL_9env_var_tERSP_EENS9_ISP_NSL_13description_tESR_EEEEEENS0_7keywordINSL_16optional_value_tELb0EEEEENS_11enable_if_cIXntsrNS0_9has_paramIT0_T1_EE5valueEvE4typeERT_RKS12_S13_
FNA:17,7,_ZN5boost3nfp10opt_assignINSt7__cxx1112basic_stringIcSt11char_traitsIcESaIcEEENS0_23named_parameter_combineINS0_15named_parameterIKbNS_7runtime12_GLOBAL__N_115default_value_tERSA_EENS8_INS9_ISA_NSC_16optional_value_tESE_EENS8_INS9_IKNS_9unit_test13basic_cstringIKcEENSC_6help_tERSM_EENS8_INS9_ISM_NSC_9env_var_tESO_EENS9_ISM_NSC_13description_tESO_EEEEEEEEEENS0_13typed_keywordISL_NSC_12value_hint_tELb0EEEEENS_11enable_if_cIXntsrNS0_9has_paramIT0_T1_EE5valueEvE4typeERT_RKS13_S14_
FNA:17,2,_ZN5boost3nfp10opt_assignINSt7__cxx1112basic_stringIcSt11char_traitsIcESaIcEEENS0_23named_parameter_combineINS0_15named_parameterIKbNS_7runtime12_GLOBAL__N_115default_value_tERSA_EENS8_INS9_ISA_NSC_16optional_value_tESE_EENS9_IKNS_9unit_test13basic_cstringIKcEENSC_13description_tERSM_EEEEEENS0_13typed_keywordISL_NSC_12value_hint_tELb0EEEEENS_11enable_if_cIXntsrNS0_9has_paramIT0_T1_EE5valueEvE4typeERT_RKSX_SY_
FNA:17,2,_ZN5boost3nfp10opt_assignINSt7__cxx1112basic_stringIcSt11char_traitsIcESaIcEEENS0_23named_parameter_combineINS0_15named_parameterIKbNS_7runtime12_GLOBAL__N_115default_value_tERSA_EENS8_INS9_ISA_NSC_16optional_value_tESE_EENS9_IKNS_9unit_test13basic_cstringIKcEENSC_13description_tERSM_EEEEEENS0_13typed_keywordISL_NSC_6help_tELb0EEEEENS_11enable_if_cIXntsrNS0_9has_paramIT0_T1_EE5valueEvE4typeERT_RKSX_SY_
FNA:17,2,_ZN5boost3nfp10opt_assignINSt7__cxx1112basic_stringIcSt11char_traitsIcESaIcEEENS0_23named_parameter_combineINS0_15named_parameterIKbNS_7runtime12_GLOBAL__N_115default_value_tERSA_EENS8_INS9_ISA_NSC_16optional_value_tESE_EENS9_IKNS_9unit_test13basic_cstringIKcEENSC_13description_tERSM_EEEEEENS0_13typed_keywordISL_NSC_9env_var_tELb0EEEEENS_11enable_if_cIXntsrNS0_9has_paramIT0_T1_EE5valueEvE4typeERT_RKSX_SY_
FNA:17,4,_ZN5boost3nfp10opt_assignINSt7__cxx1112basic_stringIcSt11char_traitsIcESaIcEEENS0_23named_parameter_combineINS0_15named_parameterIKbNS_7runtime12_GLOBAL__N_116optional_value_tERSA_EENS8_INS9_IKNS_9unit_test13basic_cstringIKcEENSC_6help_tERSK_EENS8_INS9_ISA_NSC_15default_value_tESE_EENS8_INS9_ISK_NSC_9env_var_tESM_EENS9_ISK_NSC_13description_tESM_EEEEEEEEEENS0_13typed_keywordISJ_NSC_12value_hint_tELb0EEEEENS_11enable_if_cIXntsrNS0_9has_paramIT0_T1_EE5valueEvE4typeERT_RKS13_S14_
FNA:17,0,_ZN5boost3nfp10opt_assignImNS0_23named_parameter_combineINS0_15named_parameterIKNS_9unit_test5utils17ti_delimeter_typeENS5_12_GLOBAL__N_117kept_delimeters_tERS7_EENS2_INS3_IPKcNS8_20dropped_delimeters_tESD_EENS3_IbNS8_19keep_empty_tokens_tEbEEEEEENS0_13typed_keywordImNS8_12max_tokens_tELb0EEEEENS_11enable_if_cIXntsrNS0_9has_paramIT0_T1_EE5valueEvE4typeERT_RKSP_SQ_
FNA:17,0,_ZN5boost3nfp10opt_assignImNS0_23named_parameter_combineINS0_15named_parameterIKNS_9unit_test5utils17ti_delimeter_typeENS5_12_GLOBAL__N_117kept_delimeters_tERS7_EENS3_IPKcNS8_20dropped_delimeters_tESD_EEEENS0_13typed_keywordImNS8_12max_tokens_tELb0EEEEENS_11enable_if_cIXntsrNS0_9has_paramIT0_T1_EE5valueEvE4typeERT_RKSM_SN_
FNL:18,342,347
FNA:18,1,_ZN5boost3nfp10opt_assignINS_8functionIFvNS_9unit_test13basic_cstringIKcEEEEENS0_23named_parameter_combineINS0_15named_parameterIKZNS3_14runtime_config12_GLOBAL__N_1L19register_parametersERNS_7runtime16parameters_storeEEUlS6_E_NSD_12_GLOBAL__N_110callback_tERSH_EENS9_INSA_IKS6_NSI_9env_var_tERSM_EENSA_ISM_NSI_13description_tESO_EEEEEENS0_7keywordISJ_Lb0EEEEENS_11enable_if_cIXsrNS0_9has_paramIT0_T1_EE5valueEvE4typeERT_RKSY_SZ_
FNA:18,1,_ZN5boost3nfp10opt_assignINS_9unit_test12report_levelENS0_23named_parameter_combineINS0_15named_parameterIKNS2_13basic_cstringIKcEENS_7runtime12_GLOBAL__N_16help_tERS9_EENS4_INS5_IKSt16initializer_listISt4pairIS9_S3_EENSB_13enum_values_tERSJ_EENS4_INS5_IKS3_NSB_15default_value_tERSN_EENS4_INS5_IS9_NSB_9env_var_tESD_EENS5_IS9_NSB_13description_tESD_EEEEEEEEEENS0_7keywordISO_Lb0EEEEENS_11enable_if_cIXsrNS0_9has_paramIT0_T1_EE5valueEvE4typeERT_RKS13_S14_
FNA:18,2,_ZN5boost3nfp10opt_assignINS_9unit_test13output_formatENS0_23named_parameter_combineINS0_15named_parameterIKNS2_13basic_cstringIKcEENS_7runtime12_GLOBAL__N_16help_tERS9_EENS4_INS5_IKSt16initializer_listISt4pairIS9_S3_EENSB_13enum_values_tERSJ_EENS4_INS5_IKS3_NSB_15default_value_tERSN_EENS4_INS5_IS9_NSB_9env_var_tESD_EENS5_IS9_NSB_13description_tESD_EEEEEEEEEENS0_7keywordISO_Lb0EEEEENS_11enable_if_cIXsrNS0_9has_paramIT0_T1_EE5valueEvE4typeERT_RKS13_S14_
FNA:18,1,_ZN5boost3nfp10opt_assignINS_9unit_test13output_formatENS0_23named_parameter_combineINS0_15named_parameterIKNS2_13basic_cstringIKcEENS_7runtime12_GLOBAL__N_16help_tERS9_EENS4_INS5_IKSt16initializer_listISt4pairIS9_S3_EENSB_13enum_values_tERSJ_EENS4_INS5_IKS3_NSB_16optional_value_tERSN_EENS4_INS5_ISN_NSB_15default_value_tESP_EENS4_INS5_IS9_NSB_9env_var_tESD_EENS5_IS9_NSB_13description_tESD_EEEEEEEEEEEENS0_7keywordISO_Lb0EEEEENS_11enable_if_cIXsrNS0_9has_paramIT0_T1_EE5valueEvE4typeERT_RKS16_S17_
FNA:18,1,_ZN5boost3nfp10opt_assignINS_9unit_test13output_formatENS0_23named_parameter_combineINS0_15named_parameterIKNS2_13basic_cstringIKcEENS_7runtime12_GLOBAL__N_16help_tERS9_EENS4_INS5_IKSt16initializer_listISt4pairIS9_S3_EENSB_13enum_values_tERSJ_EENS4_INS5_IKS3_NSB_16optional_value_tERSN_EENS4_INS5_ISN_NSB_15default_value_tESP_EENS4_INS5_IS9_NSB_9env_var_tESD_EENS5_IS9_NSB_13description_tESD_EEEEEEEEEEEENS0_7keywordISR_Lb0EEEEENS_11enable_if_cIXsrNS0_9has_paramIT0_T1_EE5valueEvE4typeERT_RKS16_S17_
FNA:18,1,_ZN5boost3nfp10opt_assignINS_9unit_test9log_levelENS0_23named_parameter_combineINS0_15named_parameterIKNS2_13basic_cstringIKcEENS_7runtime12_GLOBAL__N_16help_tERS9_EENS4_INS5_IKSt16initializer_listISt4pairIS9_S3_EENSB_13enum_values_tERSJ_EENS4_INS5_IKS3_NSB_15default_value_tERSN_EENS4_INS5_IS9_NSB_9env_var_tESD_EENS5_IS9_NSB_13description_tESD_EEEEEEEEEENS0_7keywordISO_Lb0EEEEENS_11enable_if_cIXsrNS0_9has_paramIT0_T1_EE5valueEvE4typeERT_RKS13_S14_
FNA:18,1,_ZN5boost3nfp10opt_assignINSt7__cxx1112basic_stringIcSt11char_traitsIcESaIcEEENS0_23named_parameter_combineINS0_15named_parameterIKNS_9unit_test13basic_cstringIKcEENS_7runtime12_GLOBAL__N_112neg_prefix_tERSE_EENS9_ISE_NSG_15end_of_params_tESI_EEEENS0_13typed_keywordISD_SH_Lb0EEEEENS_11enable_if_cIXsrNS0_9has_paramIT0_T1_EE5valueEvE4typeERT_RKSR_SS_
FNA:18,1,_ZN5boost3nfp10opt_assignINSt7__cxx1112basic_stringIcSt11char_traitsIcESaIcEEENS0_23named_parameter_combineINS0_15named_parameterIKNS_9unit_test13basic_cstringIKcEENS_7runtime12_GLOBAL__N_112neg_prefix_tERSE_EENS9_ISE_NSG_15end_of_params_tESI_EEEENS0_13typed_keywordISD_SK_Lb0EEEEENS_11enable_if_cIXsrNS0_9has_paramIT0_T1_EE5valueEvE4typeERT_RKSR_SS_
FNA:18,1,_ZN5boost3nfp10opt_assignINSt7__cxx1112basic_stringIcSt11char_traitsIcESaIcEEENS0_23named_parameter_combineINS0_15named_parameterIKNS_9unit_test13basic_cstringIKcEENS_7runtime12_GLOBAL__N_16help_tERSE_EENS8_INS9_IKSt16initializer_listISt4pairISE_NSA_12report_levelEEENSG_13enum_values_tERSP_EENS8_INS9_IKSM_NSG_15default_value_tERST_EENS8_INS9_ISE_NSG_9env_var_tESI_EENS9_ISE_NSG_13description_tESI_EEEEEEEEEENS0_13typed_keywordISD_SH_Lb0EEEEENS_11enable_if_cIXsrNS0_9has_paramIT0_T1_EE5valueEvE4typeERT_RKS19_S1A_
FNA:18,1,_ZN5boost3nfp10opt_assignINSt7__cxx1112basic_stringIcSt11char_traitsIcESaIcEEENS0_23named_parameter_combineINS0_15named_parameterIKNS_9unit_test13basic_cstringIKcEENS_7runtime12_GLOBAL__N_16help_tERSE_EENS8_INS9_IKSt16initializer_listISt4pairISE_NSA_12report_levelEEENSG_13enum_values_tERSP_EENS8_INS9_IKSM_NSG_15default_value_tERST_EENS8_INS9_ISE_NSG_9env_var_tESI_EENS9_ISE_NSG_13description_tESI_EEEEEEEEEENS0_13typed_keywordISD_SX_Lb0EEEEENS_11enable_if_cIXsrNS0_9has_paramIT0_T1_EE5valueEvE4typeERT_RKS19_S1A_
FNA:18,1,_ZN5boost3nfp10opt_assignINSt7__cxx1112basic_stringIcSt11char_traitsIcESaIcEEENS0_23named_parameter_combineINS0_15named_parameterIKNS_9unit_test13basic_cstringIKcEENS_7runtime12_GLOBAL__N_16help_tERSE_EENS8_INS9_IKSt16initializer_listISt4pairISE_NSA_12report_levelEEENSG_13enum_values_tERSP_EENS8_INS9_IKSM_NSG_15default_value_tERST_EENS8_INS9_ISE_NSG_9env_var_tESI_EENS9_ISE_NSG_13description_tESI_EEEEEEEEEENS0_13typed_keywordISD_SZ_Lb0EEEEENS_11enable_if_cIXsrNS0_9has_paramIT0_T1_EE5valueEvE4typeERT_RKS19_S1A_
FNA:18,2,_ZN5boost3nfp10opt_assignINSt7__cxx1112basic_stringIcSt11char_traitsIcESaIcEEENS0_23named_parameter_combineINS0_15named_parameterIKNS_9unit_test13basic_cstringIKcEENS_7runtime12_GLOBAL__N_16help_tERSE_EENS8_INS9_IKSt16initializer_listISt4pairISE_NSA_13output_formatEEENSG_13enum_values_tERSP_EENS8_INS9_IKSM_NSG_15default_value_tERST_EENS8_INS9_ISE_NSG_9env_var_tESI_EENS9_ISE_NSG_13description_tESI_EEEEEEEEEENS0_13typed_keywordISD_SH_Lb0EEEEENS_11enable_if_cIXsrNS0_9has_paramIT0_T1_EE5valueEvE4typeERT_RKS19_S1A_
FNA:18,2,_ZN5boost3nfp10opt_assignINSt7__cxx1112basic_stringIcSt11char_traitsIcESaIcEEENS0_23named_parameter_combineINS0_15named_parameterIKNS_9unit_test13basic_cstringIKcEENS_7runtime12_GLOBAL__N_16help_tERSE_EENS8_INS9_IKSt16initializer_listISt4pairISE_NSA_13output_formatEEENSG_13enum_values_tERSP_EENS8_INS9_IKSM_NSG_15default_value_tERST_EENS8_INS9_ISE_NSG_9env_var_tESI_EENS9_ISE_NSG_13description_tESI_EEEEEEEEEENS0_13typed_keywordISD_SX_Lb0EEEEENS_11enable_if_cIXsrNS0_9has_paramIT0_T1_EE5valueEvE4typeERT_RKS19_S1A_
FNA:18,2,_ZN5boost3nfp10opt_assignINSt7__cxx1112basic_stringIcSt11char_traitsIcESaIcEEENS0_23named_parameter_combineINS0_15named_parameterIKNS_9unit_test13basic_cstringIKcEENS_7runtime12_GLOBAL__N_16help_tERSE_EENS8_INS9_IKSt16initializer_listISt4pairISE_NSA_13output_formatEEENSG_13enum_values_tERSP_EENS8_INS9_IKSM_NSG_15default_value_tERST_EENS8_INS9_ISE_NSG_9env_var_tESI_EENS9_ISE_NSG_13description_tESI_EEEEEEEEEENS0_13typed_keywordISD_SZ_Lb0EEEEENS_11enable_if_cIXsrNS0_9has_paramIT0_T1_EE5valueEvE4typeERT_RKS19_S1A_
FNA:18,1,_ZN5boost3nfp10opt_assignINSt7__cxx1112basic_stringIcSt11char_traitsIcESaIcEEENS0_23named_parameter_combineINS0_15named_parameterIKNS_9unit_test13basic_cstringIKcEENS_7runtime12_GLOBAL__N_16help_tERSE_EENS8_INS9_IKSt16initializer_listISt4pairISE_NSA_13output_formatEEENSG_13enum_values_tERSP_EENS8_INS9_IKSM_NSG_16optional_value_tERST_EENS8_INS9_IST_NSG_15default_value_tESV_EENS8_INS9_ISE_NSG_9env_var_tESI_EENS9_ISE_NSG_13description_tESI_EEEEEEEEEEEENS0_13typed_keywordISD_S11_Lb0EEEEENS_11enable_if_cIXsrNS0_9has_paramIT0_T1_EE5valueEvE4typeERT_RKS1C_S1D_
FNA:18,1,_ZN5boost3nfp10opt_assignINSt7__cxx1112basic_stringIcSt11char_traitsIcESaIcEEENS0_23named_parameter_combineINS0_15named_parameterIKNS_9unit_test13basic_cstringIKcEENS_7runtime12_GLOBAL__N_16help_tERSE_EENS8_INS9_IKSt16initializer_listISt4pairISE_NSA_13output_formatEEENSG_13enum_values_tERSP_EENS8_INS9_IKSM_NSG_16optional_value_tERST_EENS8_INS9_IST_NSG_15default_value_tESV_EENS8_INS9_ISE_NSG_9env_var_tESI_EENS9_ISE_NSG_13description_tESI_EEEEEEEEEEEENS0_13typed_keywordISD_SH_Lb0EEEEENS_11enable_if_cIXsrNS0_9has_paramIT0_T1_EE5valueEvE4typeERT_RKS1C_S1D_
FNA:18,1,_ZN5boost3nfp10opt_assignINSt7__cxx1112basic_stringIcSt11char_traitsIcESaIcEEENS0_23named_parameter_combineINS0_15named_parameterIKNS_9unit_test13basic_cstringIKcEENS_7runtime12_GLOBAL__N_16help_tERSE_EENS8_INS9_IKSt16initializer_listISt4pairISE_NSA_13output_formatEEENSG_13enum_values_tERSP_EENS8_INS9_IKSM_NSG_16optional_value_tERST_EENS8_INS9_IST_NSG_15default_value_tESV_EENS8_INS9_ISE_NSG_9env_var_tESI_EENS9_ISE_NSG_13description_tESI_EEEEEEEEEEEENS0_13typed_keywordISD_SZ_Lb0EEEEENS_11enable_if_cIXsrNS0_9has_paramIT0_T1_EE5valueEvE4typeERT_RKS1C_S1D_
FNA:18,1,_ZN5boost3nfp10opt_assignINSt7__cxx1112basic_stringIcSt11char_traitsIcESaIcEEENS0_23named_parameter_combineINS0_15named_parameterIKNS_9unit_test13basic_cstringIKcEENS_7runtime12_GLOBAL__N_16help_tERSE_EENS8_INS9_IKSt16initializer_listISt4pairISE_NSA_13output_formatEEENSG_13enum_values_tERSP_EENS8_INS9_ISE_NSG_9env_var_tESI_EENS9_ISE_NSG_13description_tESI_EEEEEEEENS0_13typed_keywordISD_SH_Lb0EEEEENS_11enable_if_cIXsrNS0_9has_paramIT0_T1_EE5valueEvE4typeERT_RKS14_S15_
FNA:18,1,_ZN5boost3nfp10opt_assignINSt7__cxx1112basic_stringIcSt11char_traitsIcESaIcEEENS0_23named_parameter_combineINS0_15named_parameterIKNS_9unit_test13basic_cstringIKcEENS_7runtime12_GLOBAL__N_16help_tERSE_EENS8_INS9_IKSt16initializer_listISt4pairISE_NSA_13output_formatEEENSG_13enum_values_tERSP_EENS8_INS9_ISE_NSG_9env_var_tESI_EENS9_ISE_NSG_13description_tESI_EEEEEEEENS0_13typed_keywordISD_ST_Lb0EEEEENS_11enable_if_cIXsrNS0_9has_paramIT0_T1_EE5valueEvE4typeERT_RKS14_S15_
FNA:18,1,_ZN5boost3nfp10opt_assignINSt7__cxx1112basic_stringIcSt11char_traitsIcESaIcEEENS0_23named_parameter_combineINS0_15named_parameterIKNS_9unit_test13basic_cstringIKcEENS_7runtime12_GLOBAL__N_16help_tERSE_EENS8_INS9_IKSt16initializer_listISt4pairISE_NSA_13output_formatEEENSG_13enum_values_tERSP_EENS8_INS9_ISE_NSG_9env_var_tESI_EENS9_ISE_NSG_13description_tESI_EEEEEEEENS0_13typed_keywordISD_SV_Lb0EEEEENS_11enable_if_cIXsrNS0_9has_paramIT0_T1_EE5valueEvE4typeERT_RKS14_S15_
FNA:18,1,_ZN5boost3nfp10opt_assignINSt7__cxx1112basic_stringIcSt11char_traitsIcESaIcEEENS0_23named_parameter_combineINS0_15named_parameterIKNS_9unit_test13basic_cstringIKcEENS_7runtime12_GLOBAL__N_16help_tERSE_EENS8_INS9_IKSt16initializer_listISt4pairISE_NSA_9log_levelEEENSG_13enum_values_tERSP_EENS8_INS9_IKSM_NSG_15default_value_tERST_EENS8_INS9_ISE_NSG_9env_var_tESI_EENS9_ISE_NSG_13description_tESI_EEEEEEEEEENS0_13typed_keywordISD_SH_Lb0EEEEENS_11enable_if_cIXsrNS0_9has_paramIT0_T1_EE5valueEvE4typeERT_RKS19_S1A_
FNA:18,1,_ZN5boost3nfp10opt_assignINSt7__cxx1112basic_stringIcSt11char_traitsIcESaIcEEENS0_23named_parameter_combineINS0_15named_parameterIKNS_9unit_test13basic_cstringIKcEENS_7runtime12_GLOBAL__N_16help_tERSE_EENS8_INS9_IKSt16initializer_listISt4pairISE_NSA_9log_levelEEENSG_13enum_values_tERSP_EENS8_INS9_IKSM_NSG_15default_value_tERST_EENS8_INS9_ISE_NSG_9env_var_tESI_EENS9_ISE_NSG_13description_tESI_EEEEEEEEEENS0_13typed_keywordISD_SX_Lb0EEEEENS_11enable_if_cIXsrNS0_9has_paramIT0_T1_EE5valueEvE4typeERT_RKS19_S1A_
FNA:18,1,_ZN5boost3nfp10opt_assignINSt7__cxx1112basic_stringIcSt11char_traitsIcESaIcEEENS0_23named_parameter_combineINS0_15named_parameterIKNS_9unit_test13basic_cstringIKcEENS_7runtime12_GLOBAL__N_16help_tERSE_EENS8_INS9_IKSt16initializer_listISt4pairISE_NSA_9log_levelEEENSG_13enum_values_tERSP_EENS8_INS9_IKSM_NSG_15default_value_tERST_EENS8_INS9_ISE_NSG_9env_var_tESI_EENS9_ISE_NSG_13description_tESI_EEEEEEEEEENS0_13typed_keywordISD_SZ_Lb0EEEEENS_11enable_if_cIXsrNS0_9has_paramIT0_T1_EE5valueEvE4typeERT_RKS19_S1A_
FNA:18,1,_ZN5boost3nfp10opt_assignINSt7__cxx1112basic_stringIcSt11char_traitsIcESaIcEEENS0_23named_parameter_combineINS0_15named_parameterIKNS_9unit_test13basic_cstringIKcEENS_7runtime12_GLOBAL__N_16help_tERSE_EENS8_INS9_ISE_NSG_12value_hint_tESI_EENS8_INS9_IKS7_NSG_15default_value_tERSM_EENS8_INS9_ISE_NSG_9env_var_tESI_EENS9_ISE_NSG_13description_tESI_EEEEEEEEEENS0_13typed_keywordISD_SH_Lb0EEEEENS_11enable_if_cIXsrNS0_9has_paramIT0_T1_EE5valueEvE4typeERT_RKS12_S13_
FNA:18,1,_ZN5boost3nfp10opt_assignINSt7__cxx1112basic_stringIcSt11char_traitsIcESaIcEEENS0_23named_parameter_combineINS0_15named_parameterIKNS_9unit_test13basic_cstringIKcEENS_7runtime12_GLOBAL__N_16help_tERSE_EENS8_INS9_ISE_NSG_12value_hint_tESI_EENS8_INS9_IKS7_NSG_15default_value_tERSM_EENS8_INS9_ISE_NSG_9env_var_tESI_EENS9_ISE_NSG_13description_tESI_EEEEEEEEEENS0_13typed_keywordISD_SK_Lb0EEEEENS_11enable_if_cIXsrNS0_9has_paramIT0_T1_EE5valueEvE4typeERT_RKS12_S13_
FNA:18,1,_ZN5boost3nfp10opt_assignINSt7__cxx1112basic_stringIcSt11char_traitsIcESaIcEEENS0_23named_parameter_combineINS0_15named_parameterIKNS_9unit_test13basic_cstringIKcEENS_7runtime12_GLOBAL__N_16help_tERSE_EENS8_INS9_ISE_NSG_12value_hint_tESI_EENS8_INS9_IKS7_NSG_15default_value_tERSM_EENS8_INS9_ISE_NSG_9env_var_tESI_EENS9_ISE_NSG_13description_tESI_EEEEEEEEEENS0_13typed_keywordISD_SQ_Lb0EEEEENS_11enable_if_cIXsrNS0_9has_paramIT0_T1_EE5valueEvE4typeERT_RKS12_S13_
FNA:18,1,_ZN5boost3nfp10opt_assignINSt7__cxx1112basic_stringIcSt11char_traitsIcESaIcEEENS0_23named_parameter_combineINS0_15named_parameterIKNS_9unit_test13basic_cstringIKcEENS_7runtime12_GLOBAL__N_16help_tERSE_EENS8_INS9_ISE_NSG_12value_hint_tESI_EENS8_INS9_IKS7_NSG_15default_value_tERSM_EENS8_INS9_ISE_NSG_9env_var_tESI_EENS9_ISE_NSG_13description_tESI_EEEEEEEEEENS0_13typed_keywordISD_SS_Lb0EEEEENS_11enable_if_cIXsrNS0_9has_paramIT0_T1_EE5valueEvE4typeERT_RKS12_S13_
FNA:18,1,_ZN5boost3nfp10opt_assignINSt7__cxx1112basic_stringIcSt11char_traitsIcESaIcEEENS0_23named_parameter_combineINS0_15named_parameterIKNS_9unit_test13basic_cstringIKcEENS_7runtime12_GLOBAL__N_16help_tERSE_EENS8_INS9_ISE_NSG_12value_hint_tESI_EENS8_INS9_IKS7_NSG_15default_value_tERSM_EENS8_INS9_ISE_NSG_9env_var_tESI_EENS9_ISE_NSG_13description_tESI_EEEEEEEEEENS0_7keywordISN_Lb0EEEEENS_11enable_if_cIXsrNS0_9has_paramIT0_T1_EE5valueEvE4typeERT_RKS12_S13_
FNA:18,1,_ZN5boost3nfp10opt_assignINSt7__cxx1112basic_stringIcSt11char_traitsIcESaIcEEENS0_23named_parameter_combineINS0_15named_parameterIKNS_9unit_test13basic_cstringIKcEENS_7runtime12_GLOBAL__N_16help_tERSE_EENS8_INS9_ISE_NSG_12value_hint_tESI_EENS8_INS9_IKS7_NSG_16optional_value_tERSM_EENS9_ISE_NSG_13description_tESI_EEEEEEEENS0_13typed_keywordISD_SH_Lb0EEEEENS_11enable_if_cIXsrNS0_9has_paramIT0_T1_EE5valueEvE4typeERT_RKSZ_S10_
FNA:18,1,_ZN5boost3nfp10opt_assignINSt7__cxx1112basic_stringIcSt11char_traitsIcESaIcEEENS0_23named_parameter_combineINS0_15named_parameterIKNS_9unit_test13basic_cstringIKcEENS_7runtime12_GLOBAL__N_16help_tERSE_EENS8_INS9_ISE_NSG_12value_hint_tESI_EENS8_INS9_IKS7_NSG_16optional_value_tERSM_EENS9_ISE_NSG_13description_tESI_EEEEEEEENS0_13typed_keywordISD_SK_Lb0EEEEENS_11enable_if_cIXsrNS0_9has_paramIT0_T1_EE5valueEvE4typeERT_RKSZ_S10_
FNA:18,1,_ZN5boost3nfp10opt_assignINSt7__cxx1112basic_stringIcSt11char_traitsIcESaIcEEENS0_23named_parameter_combineINS0_15named_parameterIKNS_9unit_test13basic_cstringIKcEENS_7runtime12_GLOBAL__N_16help_tERSE_EENS8_INS9_ISE_NSG_12value_hint_tESI_EENS8_INS9_IKS7_NSG_16optional_value_tERSM_EENS9_ISE_NSG_13description_tESI_EEEEEEEENS0_13typed_keywordISD_SQ_Lb0EEEEENS_11enable_if_cIXsrNS0_9has_paramIT0_T1_EE5valueEvE4typeERT_RKSZ_S10_
FNA:18,1,_ZN5boost3nfp10opt_assignINSt7__cxx1112basic_stringIcSt11char_traitsIcESaIcEEENS0_23named_parameter_combineINS0_15named_parameterIKNS_9unit_test13basic_cstringIKcEENS_7runtime12_GLOBAL__N_16help_tERSE_EENS8_INS9_ISE_NSG_12value_hint_tESI_EENS8_INS9_IKS7_NSG_16optional_value_tERSM_EENS9_ISE_NSG_13description_tESI_EEEEEEEENS0_7keywordISN_Lb0EEEEENS_11enable_if_cIXsrNS0_9has_paramIT0_T1_EE5valueEvE4typeERT_RKSZ_S10_
FNA:18,1,_ZN5boost3nfp10opt_assignINSt7__cxx1112basic_stringIcSt11char_traitsIcESaIcEEENS0_23named_parameter_combineINS0_15named_parameterIKNS_9unit_test13basic_cstringIKcEENS_7runtime12_GLOBAL__N_16help_tERSE_EENS8_INS9_ISE_NSG_12value_hint_tESI_EENS8_INS9_IKjNSG_16optional_value_tERSM_EENS8_INS9_ISM_NSG_15default_value_tESO_EENS8_INS9_ISE_NSG_9env_var_tESI_EENS9_ISE_NSG_13description_tESI_EEEEEEEEEEEENS0_13typed_keywordISD_SH_Lb0EEEEENS_11enable_if_cIXsrNS0_9has_paramIT0_T1_EE5valueEvE4typeERT_RKS15_S16_
FNA:18,1,_ZN5boost3nfp10opt_assignINSt7__cxx1112basic_stringIcSt11char_traitsIcESaIcEEENS0_23named_parameter_combineINS0_15named_parameterIKNS_9unit_test13basic_cstringIKcEENS_7runtime12_GLOBAL__N_16help_tERSE_EENS8_INS9_ISE_NSG_12value_hint_tESI_EENS8_INS9_IKjNSG_16optional_value_tERSM_EENS8_INS9_ISM_NSG_15default_value_tESO_EENS8_INS9_ISE_NSG_9env_var_tESI_EENS9_ISE_NSG_13description_tESI_EEEEEEEEEEEENS0_13typed_keywordISD_SK_Lb0EEEEENS_11enable_if_cIXsrNS0_9has_paramIT0_T1_EE5valueEvE4typeERT_RKS15_S16_
FNA:18,1,_ZN5boost3nfp10opt_assignINSt7__cxx1112basic_stringIcSt11char_traitsIcESaIcEEENS0_23named_parameter_combineINS0_15named_parameterIKNS_9unit_test13basic_cstringIKcEENS_7runtime12_GLOBAL__N_16help_tERSE_EENS8_INS9_ISE_NSG_12value_hint_tESI_EENS8_INS9_IKjNSG_16optional_value_tERSM_EENS8_INS9_ISM_NSG_15default_value_tESO_EENS8_INS9_ISE_NSG_9env_var_tESI_EENS9_ISE_NSG_13description_tESI_EEEEEEEEEEEENS0_13typed_keywordISD_SS_Lb0EEEEENS_11enable_if_cIXsrNS0_9has_paramIT0_T1_EE5valueEvE4typeERT_RKS15_S16_
FNA:18,1,_ZN5boost3nfp10opt_assignINSt7__cxx1112basic_stringIcSt11char_traitsIcESaIcEEENS0_23named_parameter_combineINS0_15named_parameterIKNS_9unit_test13basic_cstringIKcEENS_7runtime12_GLOBAL__N_16help_tERSE_EENS8_INS9_ISE_NSG_12value_hint_tESI_EENS8_INS9_IKjNSG_16optional_value_tERSM_EENS8_INS9_ISM_NSG_15default_value_tESO_EENS8_INS9_ISE_NSG_9env_var_tESI_EENS9_ISE_NSG_13description_tESI_EEEEEEEEEEEENS0_13typed_keywordISD_SU_Lb0EEEEENS_11enable_if_cIXsrNS0_9has_paramIT0_T1_EE5valueEvE4typeERT_RKS15_S16_
FNA:18,1,_ZN5boost3nfp10opt_assignINSt7__cxx1112basic_stringIcSt11char_traitsIcESaIcEEENS0_23named_parameter_combineINS0_15named_parameterIKNS_9unit_test13basic_cstringIKcEENS_7runtime12_GLOBAL__N_16help_tERSE_EENS8_INS9_ISE_NSG_12value_hint_tESI_EENS8_INS9_IKlNSG_16optional_value_tERSM_EENS8_INS9_ISM_NSG_15default_value_tESO_EENS8_INS9_ISE_NSG_9env_var_tESI_EENS9_ISE_NSG_13description_tESI_EEEEEEEEEEEENS0_13typed_keywordISD_SH_Lb0EEEEENS_11enable_if_cIXsrNS0_9has_paramIT0_T1_EE5valueEvE4typeERT_RKS15_S16_
FNA:18,1,_ZN5boost3nfp10opt_assignINSt7__cxx1112basic_stringIcSt11char_traitsIcESaIcEEENS0_23named_parameter_combineINS0_15named_parameterIKNS_9unit_test13basic_cstringIKcEENS_7runtime12_GLOBAL__N_16help_tERSE_EENS8_INS9_ISE_NSG_12value_hint_tESI_EENS8_INS9_IKlNSG_16optional_value_tERSM_EENS8_INS9_ISM_NSG_15default_value_tESO_EENS8_INS9_ISE_NSG_9env_var_tESI_EENS9_ISE_NSG_13description_tESI_EEEEEEEEEEEENS0_13typed_keywordISD_SK_Lb0EEEEENS_11enable_if_cIXsrNS0_9has_paramIT0_T1_EE5valueEvE4typeERT_RKS15_S16_
FNA:18,1,_ZN5boost3nfp10opt_assignINSt7__cxx1112basic_stringIcSt11char_traitsIcESaIcEEENS0_23named_parameter_combineINS0_15named_parameterIKNS_9unit_test13basic_cstringIKcEENS_7runtime12_GLOBAL__N_16help_tERSE_EENS8_INS9_ISE_NSG_12value_hint_tESI_EENS8_INS9_IKlNSG_16optional_value_tERSM_EENS8_INS9_ISM_NSG_15default_value_tESO_EENS8_INS9_ISE_NSG_9env_var_tESI_EENS9_ISE_NSG_13description_tESI_EEEEEEEEEEEENS0_13typed_keywordISD_SS_Lb0EEEEENS_11enable_if_cIXsrNS0_9has_paramIT0_T1_EE5valueEvE4typeERT_RKS15_S16_
FNA:18,1,_ZN5boost3nfp10opt_assignINSt7__cxx1112basic_stringIcSt11char_traitsIcESaIcEEENS0_23named_parameter_combineINS0_15named_parameterIKNS_9unit_test13basic_cstringIKcEENS_7runtime12_GLOBAL__N_16help_tERSE_EENS8_INS9_ISE_NSG_12value_hint_tESI_EENS8_INS9_IKlNSG_16optional_value_tERSM_EENS8_INS9_ISM_NSG_15default_value_tESO_EENS8_INS9_ISE_NSG_9env_var_tESI_EENS9_ISE_NSG_13description_tESI_EEEEEEEEEEEENS0_13typed_keywordISD_SU_Lb0EEEEENS_11enable_if_cIXsrNS0_9has_paramIT0_T1_EE5valueEvE4typeERT_RKS15_S16_
FNA:18,4,_ZN5boost3nfp10opt_assignINSt7__cxx1112basic_stringIcSt11char_traitsIcESaIcEEENS0_23named_parameter_combineINS0_15named_parameterIKNS_9unit_test13basic_cstringIKcEENS_7runtime12_GLOBAL__N_16help_tERSE_EENS8_INS9_ISE_NSG_12value_hint_tESI_EENS8_INS9_ISE_NSG_9env_var_tESI_EENS9_ISE_NSG_13description_tESI_EEEEEEEENS0_13typed_keywordISD_SH_Lb0EEEEENS_11enable_if_cIXsrNS0_9has_paramIT0_T1_EE5valueEvE4typeERT_RKSX_SY_
FNA:18,4,_ZN5boost3nfp10opt_assignINSt7__cxx1112basic_stringIcSt11char_traitsIcESaIcEEENS0_23named_parameter_combineINS0_15named_parameterIKNS_9unit_test13basic_cstringIKcEENS_7runtime12_GLOBAL__N_16help_tERSE_EENS8_INS9_ISE_NSG_12value_hint_tESI_EENS8_INS9_ISE_NSG_9env_var_tESI_EENS9_ISE_NSG_13description_tESI_EEEEEEEENS0_13typed_keywordISD_SK_Lb0EEEEENS_11enable_if_cIXsrNS0_9has_paramIT0_T1_EE5valueEvE4typeERT_RKSX_SY_
FNA:18,4,_ZN5boost3nfp10opt_assignINSt7__cxx1112basic_stringIcSt11char_traitsIcESaIcEEENS0_23named_parameter_combineINS0_15named_parameterIKNS_9unit_test13basic_cstringIKcEENS_7runtime12_GLOBAL__N_16help_tERSE_EENS8_INS9_ISE_NSG_12value_hint_tESI_EENS8_INS9_ISE_NSG_9env_var_tESI_EENS9_ISE_NSG_13description_tESI_EEEEEEEENS0_13typed_keywordISD_SM_Lb0EEEEENS_11enable_if_cIXsrNS0_9has_paramIT0_T1_EE5valueEvE4typeERT_RKSX_SY_
FNA:18,4,_ZN5boost3nfp10opt_assignINSt7__cxx1112basic_stringIcSt11char_traitsIcESaIcEEENS0_23named_parameter_combineINS0_15named_parameterIKNS_9unit_test13basic_cstringIKcEENS_7runtime12_GLOBAL__N_16help_tERSE_EENS8_INS9_ISE_NSG_12value_hint_tESI_EENS8_INS9_ISE_NSG_9env_var_tESI_EENS9_ISE_NSG_13description_tESI_EEEEEEEENS0_13typed_keywordISD_SO_Lb0EEEEENS_11enable_if_cIXsrNS0_9has_paramIT0_T1_EE5valueEvE4typeERT_RKSX_SY_
FNA:18,1,_ZN5boost3nfp10opt_assignINSt7__cxx1112basic_stringIcSt11char_traitsIcESaIcEEENS0_23named_parameter_combineINS0_15named_parameterIKZNS_9unit_test14runtime_config12_GLOBAL__N_1L19register_parametersERNS_7runtime16parameters_storeEEUlNSA_13basic_cstringIKcEEE_NSD_12_GLOBAL__N_110callback_tERSK_EENS8_INS9_IKSI_NSL_9env_var_tERSP_EENS9_ISP_NSL_13description_tESR_EEEEEENS0_13typed_keywordISI_SQ_Lb0EEEEENS_11enable_if_cIXsrNS0_9has_paramIT0_T1_EE5valueEvE4typeERT_RKS11_S12_
FNA:18,1,_ZN5boost3nfp10opt_assignINSt7__cxx1112basic_stringIcSt11char_traitsIcESaIcEEENS0_23named_parameter_combineINS0_15named_parameterIKZNS_9unit_test14runtime_config12_GLOBAL__N_1L19register_parametersERNS_7runtime16parameters_storeEEUlNSA_13basic_cstringIKcEEE_NSD_12_GLOBAL__N_110callback_tERSK_EENS8_INS9_IKSI_NSL_9env_var_tERSP_EENS9_ISP_NSL_13description_tESR_EEEEEENS0_13typed_keywordISI_ST_Lb0EEEEENS_11enable_if_cIXsrNS0_9has_paramIT0_T1_EE5valueEvE4typeERT_RKS11_S12_
FNA:18,7,_ZN5boost3nfp10opt_assignINSt7__cxx1112basic_stringIcSt11char_traitsIcESaIcEEENS0_23named_parameter_combineINS0_15named_parameterIKbNS_7runtime12_GLOBAL__N_115default_value_tERSA_EENS8_INS9_ISA_NSC_16optional_value_tESE_EENS8_INS9_IKNS_9unit_test13basic_cstringIKcEENSC_6help_tERSM_EENS8_INS9_ISM_NSC_9env_var_tESO_EENS9_ISM_NSC_13description_tESO_EEEEEEEEEENS0_13typed_keywordISL_SN_Lb0EEEEENS_11enable_if_cIXsrNS0_9has_paramIT0_T1_EE5valueEvE4typeERT_RKS12_S13_
FNA:18,7,_ZN5boost3nfp10opt_assignINSt7__cxx1112basic_stringIcSt11char_traitsIcESaIcEEENS0_23named_parameter_combineINS0_15named_parameterIKbNS_7runtime12_GLOBAL__N_115default_value_tERSA_EENS8_INS9_ISA_NSC_16optional_value_tESE_EENS8_INS9_IKNS_9unit_test13basic_cstringIKcEENSC_6help_tERSM_EENS8_INS9_ISM_NSC_9env_var_tESO_EENS9_ISM_NSC_13description_tESO_EEEEEEEEEENS0_13typed_keywordISL_SQ_Lb0EEEEENS_11enable_if_cIXsrNS0_9has_paramIT0_T1_EE5valueEvE4typeERT_RKS12_S13_
FNA:18,7,_ZN5boost3nfp10opt_assignINSt7__cxx1112basic_stringIcSt11char_traitsIcESaIcEEENS0_23named_parameter_combineINS0_15named_parameterIKbNS_7runtime12_GLOBAL__N_115default_value_tERSA_EENS8_INS9_ISA_NSC_16optional_value_tESE_EENS8_INS9_IKNS_9unit_test13basic_cstringIKcEENSC_6help_tERSM_EENS8_INS9_ISM_NSC_9env_var_tESO_EENS9_ISM_NSC_13description_tESO_EEEEEEEEEENS0_13typed_keywordISL_SS_Lb0EEEEENS_11enable_if_cIXsrNS0_9has_paramIT0_T1_EE5valueEvE4typeERT_RKS12_S13_
FNA:18,2,_ZN5boost3nfp10opt_assignINSt7__cxx1112basic_stringIcSt11char_traitsIcESaIcEEENS0_23named_parameter_combineINS0_15named_parameterIKbNS_7runtime12_GLOBAL__N_115default_value_tERSA_EENS8_INS9_ISA_NSC_16optional_value_tESE_EENS9_IKNS_9unit_test13basic_cstringIKcEENSC_13description_tERSM_EEEEEENS0_13typed_keywordISL_SN_Lb0EEEEENS_11enable_if_cIXsrNS0_9has_paramIT0_T1_EE5valueEvE4typeERT_RKSW_SX_
FNA:18,4,_ZN5boost3nfp10opt_assignINSt7__cxx1112basic_stringIcSt11char_traitsIcESaIcEEENS0_23named_parameter_combineINS0_15named_parameterIKbNS_7runtime12_GLOBAL__N_116optional_value_tERSA_EENS8_INS9_IKNS_9unit_test13basic_cstringIKcEENSC_6help_tERSK_EENS8_INS9_ISA_NSC_15default_value_tESE_EENS8_INS9_ISK_NSC_9env_var_tESM_EENS9_ISK_NSC_13description_tESM_EEEEEEEEEENS0_13typed_keywordISJ_SL_Lb0EEEEENS_11enable_if_cIXsrNS0_9has_paramIT0_T1_EE5valueEvE4typeERT_RKS12_S13_
FNA:18,4,_ZN5boost3nfp10opt_assignINSt7__cxx1112basic_stringIcSt11char_traitsIcESaIcEEENS0_23named_parameter_combineINS0_15named_parameterIKbNS_7runtime12_GLOBAL__N_116optional_value_tERSA_EENS8_INS9_IKNS_9unit_test13basic_cstringIKcEENSC_6help_tERSK_EENS8_INS9_ISA_NSC_15default_value_tESE_EENS8_INS9_ISK_NSC_9env_var_tESM_EENS9_ISK_NSC_13description_tESM_EEEEEEEEEENS0_13typed_keywordISJ_SQ_Lb0EEEEENS_11enable_if_cIXsrNS0_9has_paramIT0_T1_EE5valueEvE4typeERT_RKS12_S13_
FNA:18,4,_ZN5boost3nfp10opt_assignINSt7__cxx1112basic_stringIcSt11char_traitsIcESaIcEEENS0_23named_parameter_combineINS0_15named_parameterIKbNS_7runtime12_GLOBAL__N_116optional_value_tERSA_EENS8_INS9_IKNS_9unit_test13basic_cstringIKcEENSC_6help_tERSK_EENS8_INS9_ISA_NSC_15default_value_tESE_EENS8_INS9_ISK_NSC_9env_var_tESM_EENS9_ISK_NSC_13description_tESM_EEEEEEEEEENS0_13typed_keywordISJ_SS_Lb0EEEEENS_11enable_if_cIXsrNS0_9has_paramIT0_T1_EE5valueEvE4typeERT_RKS12_S13_
FNA:18,7,_ZN5boost3nfp10opt_assignIbNS0_23named_parameter_combineINS0_15named_parameterIKbNS_7runtime12_GLOBAL__N_115default_value_tERS4_EENS2_INS3_IS4_NS6_16optional_value_tES8_EENS2_INS3_IKNS_9unit_test13basic_cstringIKcEENS6_6help_tERSG_EENS2_INS3_ISG_NS6_9env_var_tESI_EENS3_ISG_NS6_13description_tESI_EEEEEEEEEENS0_7keywordIS7_Lb0EEEEENS_11enable_if_cIXsrNS0_9has_paramIT0_T1_EE5valueEvE4typeERT_RKSW_SX_
FNA:18,7,_ZN5boost3nfp10opt_assignIbNS0_23named_parameter_combineINS0_15named_parameterIKbNS_7runtime12_GLOBAL__N_115default_value_tERS4_EENS2_INS3_IS4_NS6_16optional_value_tES8_EENS2_INS3_IKNS_9unit_test13basic_cstringIKcEENS6_6help_tERSG_EENS2_INS3_ISG_NS6_9env_var_tESI_EENS3_ISG_NS6_13description_tESI_EEEEEEEEEENS0_7keywordISA_Lb0EEEEENS_11enable_if_cIXsrNS0_9has_paramIT0_T1_EE5valueEvE4typeERT_RKSW_SX_
FNA:18,2,_ZN5boost3nfp10opt_assignIbNS0_23named_parameter_combineINS0_15named_parameterIKbNS_7runtime12_GLOBAL__N_115default_value_tERS4_EENS2_INS3_IS4_NS6_16optional_value_tES8_EENS3_IKNS_9unit_test13basic_cstringIKcEENS6_13description_tERSG_EEEEEENS0_7keywordIS7_Lb0EEEEENS_11enable_if_cIXsrNS0_9has_paramIT0_T1_EE5valueEvE4typeERT_RKSQ_SR_
FNA:18,2,_ZN5boost3nfp10opt_assignIbNS0_23named_parameter_combineINS0_15named_parameterIKbNS_7runtime12_GLOBAL__N_115default_value_tERS4_EENS2_INS3_IS4_NS6_16optional_value_tES8_EENS3_IKNS_9unit_test13basic_cstringIKcEENS6_13description_tERSG_EEEEEENS0_7keywordISA_Lb0EEEEENS_11enable_if_cIXsrNS0_9has_paramIT0_T1_EE5valueEvE4typeERT_RKSQ_SR_
FNA:18,4,_ZN5boost3nfp10opt_assignIbNS0_23named_parameter_combineINS0_15named_parameterIKbNS_7runtime12_GLOBAL__N_116optional_value_tERS4_EENS2_INS3_IKNS_9unit_test13basic_cstringIKcEENS6_6help_tERSE_EENS2_INS3_IS4_NS6_15default_value_tES8_EENS2_INS3_ISE_NS6_9env_var_tESG_EENS3_ISE_NS6_13description_tESG_EEEEEEEEEENS0_7keywordIS7_Lb0EEEEENS_11enable_if_cIXsrNS0_9has_paramIT0_T1_EE5valueEvE4typeERT_RKSW_SX_
FNA:18,4,_ZN5boost3nfp10opt_assignIbNS0_23named_parameter_combineINS0_15named_parameterIKbNS_7runtime12_GLOBAL__N_116optional_value_tERS4_EENS2_INS3_IKNS_9unit_test13basic_cstringIKcEENS6_6help_tERSE_EENS2_INS3_IS4_NS6_15default_value_tES8_EENS2_INS3_ISE_NS6_9env_var_tESG_EENS3_ISE_NS6_13description_tESG_EEEEEEEEEENS0_7keywordISI_Lb0EEEEENS_11enable_if_cIXsrNS0_9has_paramIT0_T1_EE5valueEvE4typeERT_RKSW_SX_
FNA:18,1,_ZN5boost3nfp10opt_assignIjNS0_23named_parameter_combineINS0_15named_parameterIKNS_9unit_test13basic_cstringIKcEENS_7runtime12_GLOBAL__N_16help_tERS8_EENS2_INS3_IS8_NSA_12value_hint_tESC_EENS2_INS3_IKjNSA_16optional_value_tERSG_EENS2_INS3_ISG_NSA_15default_value_tESI_EENS2_INS3_IS8_NSA_9env_var_tESC_EENS3_IS8_NSA_13description_tESC_EEEEEEEEEEEENS0_7keywordISH_Lb0EEEEENS_11enable_if_cIXsrNS0_9has_paramIT0_T1_EE5valueEvE4typeERT_RKSZ_S10_
FNA:18,1,_ZN5boost3nfp10opt_assignIjNS0_23named_parameter_combineINS0_15named_parameterIKNS_9unit_test13basic_cstringIKcEENS_7runtime12_GLOBAL__N_16help_tERS8_EENS2_INS3_IS8_NSA_12value_hint_tESC_EENS2_INS3_IKjNSA_16optional_value_tERSG_EENS2_INS3_ISG_NSA_15default_value_tESI_EENS2_INS3_IS8_NSA_9env_var_tESC_EENS3_IS8_NSA_13description_tESC_EEEEEEEEEEEENS0_7keywordISK_Lb0EEEEENS_11enable_if_cIXsrNS0_9has_paramIT0_T1_EE5valueEvE4typeERT_RKSZ_S10_
FNA:18,1,_ZN5boost3nfp10opt_assignImNS0_23named_parameter_combineINS0_15named_parameterIKNS_9unit_test13basic_cstringIKcEENS_7runtime12_GLOBAL__N_16help_tERS8_EENS2_INS3_IS8_NSA_12value_hint_tESC_EENS2_INS3_IKlNSA_16optional_value_tERSG_EENS2_INS3_ISG_NSA_15default_value_tESI_EENS2_INS3_IS8_NSA_9env_var_tESC_EENS3_IS8_NSA_13description_tESC_EEEEEEEEEEEENS0_7keywordISH_Lb0EEEEENS_11enable_if_cIXsrNS0_9has_paramIT0_T1_EE5valueEvE4typeERT_RKSZ_S10_
FNA:18,1,_ZN5boost3nfp10opt_assignImNS0_23named_parameter_combineINS0_15named_parameterIKNS_9unit_test13basic_cstringIKcEENS_7runtime12_GLOBAL__N_16help_tERS8_EENS2_INS3_IS8_NSA_12value_hint_tESC_EENS2_INS3_IKlNSA_16optional_value_tERSG_EENS2_INS3_ISG_NSA_15default_value_tESI_EENS2_INS3_IS8_NSA_9env_var_tESC_EENS3_IS8_NSA_13description_tESC_EEEEEEEEEEEENS0_7keywordISK_Lb0EEEEENS_11enable_if_cIXsrNS0_9has_paramIT0_T1_EE5valueEvE4typeERT_RKSZ_S10_
FNL:19,355,360
FNA:19,1,_ZN5boost3nfp7opt_getINS_8functionIFvNS_9unit_test13basic_cstringIKcEEEEENS0_23named_parameter_combineINS0_15named_parameterIKS6_NS_7runtime12_GLOBAL__N_16help_tERSB_EENS9_INSA_IKSt16initializer_listISt4pairISB_NS3_12report_levelEEENSD_13enum_values_tERSM_EENS9_INSA_IKSJ_NSD_15default_value_tERSQ_EENS9_INSA_ISB_NSD_9env_var_tESF_EENSA_ISB_NSD_13description_tESF_EEEEEEEEEENS0_7keywordINSD_10callback_tELb0EEEEET_RKT0_T1_S15_
FNA:19,2,_ZN5boost3nfp7opt_getINS_8functionIFvNS_9unit_test13basic_cstringIKcEEEEENS0_23named_parameter_combineINS0_15named_parameterIKS6_NS_7runtime12_GLOBAL__N_16help_tERSB_EENS9_INSA_IKSt16initializer_listISt4pairISB_NS3_13output_formatEEENSD_13enum_values_tERSM_EENS9_INSA_IKSJ_NSD_15default_value_tERSQ_EENS9_INSA_ISB_NSD_9env_var_tESF_EENSA_ISB_NSD_13description_tESF_EEEEEEEEEENS0_7keywordINSD_10callback_tELb0EEEEET_RKT0_T1_S15_
FNA:19,1,_ZN5boost3nfp7opt_getINS_8functionIFvNS_9unit_test13basic_cstringIKcEEEEENS0_23named_parameter_combineINS0_15named_parameterIKS6_NS_7runtime12_GLOBAL__N_16help_tERSB_EENS9_INSA_IKSt16initializer_listISt4pairISB_NS3_13output_formatEEENSD_13enum_values_tERSM_EENS9_INSA_IKSJ_NSD_16optional_value_tERSQ_EENS9_INSA_ISQ_NSD_15default_value_tESS_EENS9_INSA_ISB_NSD_9env_var_tESF_EENSA_ISB_NSD_13description_tESF_EEEEEEEEEEEENS0_7keywordINSD_10callback_tELb0EEEEET_RKT0_T1_S18_
FNA:19,1,_ZN5boost3nfp7opt_getINS_8functionIFvNS_9unit_test13basic_cstringIKcEEEEENS0_23named_parameter_combineINS0_15named_parameterIKS6_NS_7runtime12_GLOBAL__N_16help_tERSB_EENS9_INSA_IKSt16initializer_listISt4pairISB_NS3_13output_formatEEENSD_13enum_values_tERSM_EENS9_INSA_ISB_NSD_9env_var_tESF_EENSA_ISB_NSD_13description_tESF_EEEEEEEENS0_7keywordINSD_10callback_tELb0EEEEET_RKT0_T1_S10_
FNA:19,1,_ZN5boost3nfp7opt_getINS_8functionIFvNS_9unit_test13basic_cstringIKcEEEEENS0_23named_parameter_combineINS0_15named_parameterIKS6_NS_7runtime12_GLOBAL__N_16help_tERSB_EENS9_INSA_IKSt16initializer_listISt4pairISB_NS3_9log_levelEEENSD_13enum_values_tERSM_EENS9_INSA_IKSJ_NSD_15default_value_tERSQ_EENS9_INSA_ISB_NSD_9env_var_tESF_EENSA_ISB_NSD_13description_tESF_EEEEEEEEEENS0_7keywordINSD_10callback_tELb0EEEEET_RKT0_T1_S15_
FNA:19,1,_ZN5boost3nfp7opt_getINS_8functionIFvNS_9unit_test13basic_cstringIKcEEEEENS0_23named_parameter_combineINS0_15named_parameterIKS6_NS_7runtime12_GLOBAL__N_16help_tERSB_EENS9_INSA_ISB_NSD_12value_hint_tESF_EENS9_INSA_IKNSt7__cxx1112basic_stringIcSt11char_traitsIcESaIcEEENSD_15default_value_tERSP_EENS9_INSA_ISB_NSD_9env_var_tESF_EENSA_ISB_NSD_13description_tESF_EEEEEEEEEENS0_7keywordINSD_10callback_tELb0EEEEET_RKT0_T1_S14_
FNA:19,1,_ZN5boost3nfp7opt_getINS_8functionIFvNS_9unit_test13basic_cstringIKcEEEEENS0_23named_parameter_combineINS0_15named_parameterIKS6_NS_7runtime12_GLOBAL__N_16help_tERSB_EENS9_INSA_ISB_NSD_12value_hint_tESF_EENS9_INSA_IKNSt7__cxx1112basic_stringIcSt11char_traitsIcESaIcEEENSD_16optional_value_tERSP_EENSA_ISB_NSD_13description_tESF_EEEEEEEENS0_7keywordINSD_10callback_tELb0EEEEET_RKT0_T1_S11_
FNA:19,1,_ZN5boost3nfp7opt_getINS_8functionIFvNS_9unit_test13basic_cstringIKcEEEEENS0_23named_parameter_combineINS0_15named_parameterIKS6_NS_7runtime12_GLOBAL__N_16help_tERSB_EENS9_INSA_ISB_NSD_12value_hint_tESF_EENS9_INSA_IKjNSD_16optional_value_tERSJ_EENS9_INSA_ISJ_NSD_15default_value_tESL_EENS9_INSA_ISB_NSD_9env_var_tESF_EENSA_ISB_NSD_13description_tESF_EEEEEEEEEEEENS0_7keywordINSD_10callback_tELb0EEEEET_RKT0_T1_S11_
FNA:19,1,_ZN5boost3nfp7opt_getINS_8functionIFvNS_9unit_test13basic_cstringIKcEEEEENS0_23named_parameter_combineINS0_15named_parameterIKS6_NS_7runtime12_GLOBAL__N_16help_tERSB_EENS9_INSA_ISB_NSD_12value_hint_tESF_EENS9_INSA_IKlNSD_16optional_value_tERSJ_EENS9_INSA_ISJ_NSD_15default_value_tESL_EENS9_INSA_ISB_NSD_9env_var_tESF_EENSA_ISB_NSD_13description_tESF_EEEEEEEEEEEENS0_7keywordINSD_10callback_tELb0EEEEET_RKT0_T1_S11_
FNA:19,4,_ZN5boost3nfp7opt_getINS_8functionIFvNS_9unit_test13basic_cstringIKcEEEEENS0_23named_parameter_combineINS0_15named_parameterIKS6_NS_7runtime12_GLOBAL__N_16help_tERSB_EENS9_INSA_ISB_NSD_12value_hint_tESF_EENS9_INSA_ISB_NSD_9env_var_tESF_EENSA_ISB_NSD_13description_tESF_EEEEEEEENS0_7keywordINSD_10callback_tELb0EEEEET_RKT0_T1_ST_
FNA:19,1,_ZN5boost3nfp7opt_getINS_8functionIFvNS_9unit_test13basic_cstringIKcEEEEENS0_23named_parameter_combineINS0_15named_parameterIKZNS3_14runtime_config12_GLOBAL__N_1L19register_parametersERNS_7runtime16parameters_storeEEUlS6_E_NSD_12_GLOBAL__N_110callback_tERSH_EENS9_INSA_IKS6_NSI_9env_var_tERSM_EENSA_ISM_NSI_13description_tESO_EEEEEENS0_7keywordISJ_Lb0EEEEET_RKT0_T1_SW_
FNA:19,7,_ZN5boost3nfp7opt_getINS_8functionIFvNS_9unit_test13basic_cstringIKcEEEEENS0_23named_parameter_combineINS0_15named_parameterIKbNS_7runtime12_GLOBAL__N_115default_value_tERSB_EENS9_INSA_ISB_NSD_16optional_value_tESF_EENS9_INSA_IKS6_NSD_6help_tERSJ_EENS9_INSA_ISJ_NSD_9env_var_tESL_EENSA_ISJ_NSD_13description_tESL_EEEEEEEEEENS0_7keywordINSD_10callback_tELb0EEEEET_RKT0_T1_SY_
FNA:19,2,_ZN5boost3nfp7opt_getINS_8functionIFvNS_9unit_test13basic_cstringIKcEEEEENS0_23named_parameter_combineINS0_15named_parameterIKbNS_7runtime12_GLOBAL__N_115default_value_tERSB_EENS9_INSA_ISB_NSD_16optional_value_tESF_EENSA_IKS6_NSD_13description_tERSJ_EEEEEENS0_7keywordINSD_10callback_tELb0EEEEET_RKT0_T1_SS_
FNA:19,4,_ZN5boost3nfp7opt_getINS_8functionIFvNS_9unit_test13basic_cstringIKcEEEEENS0_23named_parameter_combineINS0_15named_parameterIKbNS_7runtime12_GLOBAL__N_116optional_value_tERSB_EENS9_INSA_IKS6_NSD_6help_tERSH_EENS9_INSA_ISB_NSD_15default_value_tESF_EENS9_INSA_ISH_NSD_9env_var_tESJ_EENSA_ISH_NSD_13description_tESJ_EEEEEEEEEENS0_7keywordINSD_10callback_tELb0EEEEET_RKT0_T1_SY_
FNA:19,1,_ZN5boost3nfp7opt_getINS_9unit_test12report_levelENS0_23named_parameter_combineINS0_15named_parameterIKNS2_13basic_cstringIKcEENS_7runtime12_GLOBAL__N_16help_tERS9_EENS4_INS5_IKSt16initializer_listISt4pairIS9_S3_EENSB_13enum_values_tERSJ_EENS4_INS5_IKS3_NSB_15default_value_tERSN_EENS4_INS5_IS9_NSB_9env_var_tESD_EENS5_IS9_NSB_13description_tESD_EEEEEEEEEENS0_7keywordINSB_16optional_value_tELb0EEEEET_RKT0_T1_S12_
FNA:19,1,_ZN5boost3nfp7opt_getINS_9unit_test12report_levelENS0_23named_parameter_combineINS0_15named_parameterIKNS2_13basic_cstringIKcEENS_7runtime12_GLOBAL__N_16help_tERS9_EENS4_INS5_IKSt16initializer_listISt4pairIS9_S3_EENSB_13enum_values_tERSJ_EENS4_INS5_IKS3_NSB_15default_value_tERSN_EENS4_INS5_IS9_NSB_9env_var_tESD_EENS5_IS9_NSB_13description_tESD_EEEEEEEEEENS0_7keywordISO_Lb0EEEEET_RKT0_T1_S11_
FNA:19,2,_ZN5boost3nfp7opt_getINS_9unit_test13output_formatENS0_23named_parameter_combineINS0_15named_parameterIKNS2_13basic_cstringIKcEENS_7runtime12_GLOBAL__N_16help_tERS9_EENS4_INS5_IKSt16initializer_listISt4pairIS9_S3_EENSB_13enum_values_tERSJ_EENS4_INS5_IKS3_NSB_15default_value_tERSN_EENS4_INS5_IS9_NSB_9env_var_tESD_EENS5_IS9_NSB_13description_tESD_EEEEEEEEEENS0_7keywordINSB_16optional_value_tELb0EEEEET_RKT0_T1_S12_
FNA:19,2,_ZN5boost3nfp7opt_getINS_9unit_test13output_formatENS0_23named_parameter_combineINS0_15named_parameterIKNS2_13basic_cstringIKcEENS_7runtime12_GLOBAL__N_16help_tERS9_EENS4_INS5_IKSt16initializer_listISt4pairIS9_S3_EENSB_13enum_values_tERSJ_EENS4_INS5_IKS3_NSB_15default_value_tERSN_EENS4_INS5_IS9_NSB_9env_var_tESD_EENS5_IS9_NSB_13description_tESD_EEEEEEEEEENS0_7keywordISO_Lb0EEEEET_RKT0_T1_S11_
FNA:19,1,_ZN5boost3nfp7opt_getINS_9unit_test13output_formatENS0_23named_parameter_combineINS0_15named_parameterIKNS2_13basic_cstringIKcEENS_7runtime12_GLOBAL__N_16help_tERS9_EENS4_INS5_IKSt16initializer_listISt4pairIS9_S3_EENSB_13enum_values_tERSJ_EENS4_INS5_IKS3_NSB_16optional_value_tERSN_EENS4_INS5_ISN_NSB_15default_value_tESP_EENS4_INS5_IS9_NSB_9env_var_tESD_EENS5_IS9_NSB_13description_tESD_EEEEEEEEEEEENS0_7keywordISO_Lb0EEEEET_RKT0_T1_S14_
FNA:19,1,_ZN5boost3nfp7opt_getINS_9unit_test13output_formatENS0_23named_parameter_combineINS0_15named_parameterIKNS2_13basic_cstringIKcEENS_7runtime12_GLOBAL__N_16help_tERS9_EENS4_INS5_IKSt16initializer_listISt4pairIS9_S3_EENSB_13enum_values_tERSJ_EENS4_INS5_IKS3_NSB_16optional_value_tERSN_EENS4_INS5_ISN_NSB_15default_value_tESP_EENS4_INS5_IS9_NSB_9env_var_tESD_EENS5_IS9_NSB_13description_tESD_EEEEEEEEEEEENS0_7keywordISR_Lb0EEEEET_RKT0_T1_S14_
FNA:19,1,_ZN5boost3nfp7opt_getINS_9unit_test13output_formatENS0_23named_parameter_combineINS0_15named_parameterIKNS2_13basic_cstringIKcEENS_7runtime12_GLOBAL__N_16help_tERS9_EENS4_INS5_IKSt16initializer_listISt4pairIS9_S3_EENSB_13enum_values_tERSJ_EENS4_INS5_IS9_NSB_9env_var_tESD_EENS5_IS9_NSB_13description_tESD_EEEEEEEENS0_7keywordINSB_15default_value_tELb0EEEEET_RKT0_T1_SX_
FNA:19,1,_ZN5boost3nfp7opt_getINS_9unit_test13output_formatENS0_23named_parameter_combineINS0_15named_parameterIKNS2_13basic_cstringIKcEENS_7runtime12_GLOBAL__N_16help_tERS9_EENS4_INS5_IKSt16initializer_listISt4pairIS9_S3_EENSB_13enum_values_tERSJ_EENS4_INS5_IS9_NSB_9env_var_tESD_EENS5_IS9_NSB_13description_tESD_EEEEEEEENS0_7keywordINSB_16optional_value_tELb0EEEEET_RKT0_T1_SX_
FNA:19,1,_ZN5boost3nfp7opt_getINS_9unit_test9log_levelENS0_23named_parameter_combineINS0_15named_parameterIKNS2_13basic_cstringIKcEENS_7runtime12_GLOBAL__N_16help_tERS9_EENS4_INS5_IKSt16initializer_listISt4pairIS9_S3_EENSB_13enum_values_tERSJ_EENS4_INS5_IKS3_NSB_15default_value_tERSN_EENS4_INS5_IS9_NSB_9env_var_tESD_EENS5_IS9_NSB_13description_tESD_EEEEEEEEEENS0_7keywordINSB_16optional_value_tELb0EEEEET_RKT0_T1_S12_
FNA:19,1,_ZN5boost3nfp7opt_getINS_9unit_test9log_levelENS0_23named_parameter_combineINS0_15named_parameterIKNS2_13basic_cstringIKcEENS_7runtime12_GLOBAL__N_16help_tERS9_EENS4_INS5_IKSt16initializer_listISt4pairIS9_S3_EENSB_13enum_values_tERSJ_EENS4_INS5_IKS3_NSB_15default_value_tERSN_EENS4_INS5_IS9_NSB_9env_var_tESD_EENS5_IS9_NSB_13description_tESD_EEEEEEEEEENS0_7keywordISO_Lb0EEEEET_RKT0_T1_S11_
FNA:19,1,_ZN5boost3nfp7opt_getINSt7__cxx1112basic_stringIcSt11char_traitsIcESaIcEEENS0_23named_parameter_combineINS0_15named_parameterIKNS_9unit_test13basic_cstringIKcEENS_7runtime12_GLOBAL__N_16help_tERSE_EENS8_INS9_IKSt16initializer_listISt4pairISE_NSA_12report_levelEEENSG_13enum_values_tERSP_EENS8_INS9_IKSM_NSG_15default_value_tERST_EENS8_INS9_ISE_NSG_9env_var_tESI_EENS9_ISE_NSG_13description_tESI_EEEEEEEEEENS0_13typed_keywordISD_NSG_12value_hint_tELb0EEEEET_RKT0_T1_S18_
FNA:19,1,_ZN5boost3nfp7opt_getINSt7__cxx1112basic_stringIcSt11char_traitsIcESaIcEEENS0_23named_parameter_combineINS0_15named_parameterIKNS_9unit_test13basic_cstringIKcEENS_7runtime12_GLOBAL__N_16help_tERSE_EENS8_INS9_IKSt16initializer_listISt4pairISE_NSA_12report_levelEEENSG_13enum_values_tERSP_EENS8_INS9_IKSM_NSG_15default_value_tERST_EENS8_INS9_ISE_NSG_9env_var_tESI_EENS9_ISE_NSG_13description_tESI_EEEEEEEEEENS0_13typed_keywordISD_SH_Lb0EEEEET_RKT0_T1_S17_
FNA:19,1,_ZN5boost3nfp7opt_getINSt7__cxx1112basic_stringIcSt11char_traitsIcESaIcEEENS0_23named_parameter_combineINS0_15named_parameterIKNS_9unit_test13basic_cstringIKcEENS_7runtime12_GLOBAL__N_16help_tERSE_EENS8_INS9_IKSt16initializer_listISt4pairISE_NSA_12report_levelEEENSG_13enum_values_tERSP_EENS8_INS9_IKSM_NSG_15default_value_tERST_EENS8_INS9_ISE_NSG_9env_var_tESI_EENS9_ISE_NSG_13description_tESI_EEEEEEEEEENS0_13typed_keywordISD_SX_Lb0EEEEET_RKT0_T1_S17_
FNA:19,1,_ZN5boost3nfp7opt_getINSt7__cxx1112basic_stringIcSt11char_traitsIcESaIcEEENS0_23named_parameter_combineINS0_15named_parameterIKNS_9unit_test13basic_cstringIKcEENS_7runtime12_GLOBAL__N_16help_tERSE_EENS8_INS9_IKSt16initializer_listISt4pairISE_NSA_12report_levelEEENSG_13enum_values_tERSP_EENS8_INS9_IKSM_NSG_15default_value_tERST_EENS8_INS9_ISE_NSG_9env_var_tESI_EENS9_ISE_NSG_13description_tESI_EEEEEEEEEENS0_13typed_keywordISD_SZ_Lb0EEEEET_RKT0_T1_S17_
FNA:19,2,_ZN5boost3nfp7opt_getINSt7__cxx1112basic_stringIcSt11char_traitsIcESaIcEEENS0_23named_parameter_combineINS0_15named_parameterIKNS_9unit_test13basic_cstringIKcEENS_7runtime12_GLOBAL__N_16help_tERSE_EENS8_INS9_IKSt16initializer_listISt4pairISE_NSA_13output_formatEEENSG_13enum_values_tERSP_EENS8_INS9_IKSM_NSG_15default_value_tERST_EENS8_INS9_ISE_NSG_9env_var_tESI_EENS9_ISE_NSG_13description_tESI_EEEEEEEEEENS0_13typed_keywordISD_NSG_12value_hint_tELb0EEEEET_RKT0_T1_S18_
FNA:19,2,_ZN5boost3nfp7opt_getINSt7__cxx1112basic_stringIcSt11char_traitsIcESaIcEEENS0_23named_parameter_combineINS0_15named_parameterIKNS_9unit_test13basic_cstringIKcEENS_7runtime12_GLOBAL__N_16help_tERSE_EENS8_INS9_IKSt16initializer_listISt4pairISE_NSA_13output_formatEEENSG_13enum_values_tERSP_EENS8_INS9_IKSM_NSG_15default_value_tERST_EENS8_INS9_ISE_NSG_9env_var_tESI_EENS9_ISE_NSG_13description_tESI_EEEEEEEEEENS0_13typed_keywordISD_SH_Lb0EEEEET_RKT0_T1_S17_
FNA:19,2,_ZN5boost3nfp7opt_getINSt7__cxx1112basic_stringIcSt11char_traitsIcESaIcEEENS0_23named_parameter_combineINS0_15named_parameterIKNS_9unit_test13basic_cstringIKcEENS_7runtime12_GLOBAL__N_16help_tERSE_EENS8_INS9_IKSt16initializer_listISt4pairISE_NSA_13output_formatEEENSG_13enum_values_tERSP_EENS8_INS9_IKSM_NSG_15default_value_tERST_EENS8_INS9_ISE_NSG_9env_var_tESI_EENS9_ISE_NSG_13description_tESI_EEEEEEEEEENS0_13typed_keywordISD_SX_Lb0EEEEET_RKT0_T1_S17_
FNA:19,2,_ZN5boost3nfp7opt_getINSt7__cxx1112basic_stringIcSt11char_traitsIcESaIcEEENS0_23named_parameter_combineINS0_15named_parameterIKNS_9unit_test13basic_cstringIKcEENS_7runtime12_GLOBAL__N_16help_tERSE_EENS8_INS9_IKSt16initializer_listISt4pairISE_NSA_13output_formatEEENSG_13enum_values_tERSP_EENS8_INS9_IKSM_NSG_15default_value_tERST_EENS8_INS9_ISE_NSG_9env_var_tESI_EENS9_ISE_NSG_13description_tESI_EEEEEEEEEENS0_13typed_keywordISD_SZ_Lb0EEEEET_RKT0_T1_S17_
FNA:19,1,_ZN5boost3nfp7opt_getINSt7__cxx1112basic_stringIcSt11char_traitsIcESaIcEEENS0_23named_parameter_combineINS0_15named_parameterIKNS_9unit_test13basic_cstringIKcEENS_7runtime12_GLOBAL__N_16help_tERSE_EENS8_INS9_IKSt16initializer_listISt4pairISE_NSA_13output_formatEEENSG_13enum_values_tERSP_EENS8_INS9_IKSM_NSG_16optional_value_tERST_EENS8_INS9_IST_NSG_15default_value_tESV_EENS8_INS9_ISE_NSG_9env_var_tESI_EENS9_ISE_NSG_13description_tESI_EEEEEEEEEEEENS0_13typed_keywordISD_NSG_12value_hint_tELb0EEEEET_RKT0_T1_S1B_
FNA:19,1,_ZN5boost3nfp7opt_getINSt7__cxx1112basic_stringIcSt11char_traitsIcESaIcEEENS0_23named_parameter_combineINS0_15named_parameterIKNS_9unit_test13basic_cstringIKcEENS_7runtime12_GLOBAL__N_16help_tERSE_EENS8_INS9_IKSt16initializer_listISt4pairISE_NSA_13output_formatEEENSG_13enum_values_tERSP_EENS8_INS9_IKSM_NSG_16optional_value_tERST_EENS8_INS9_IST_NSG_15default_value_tESV_EENS8_INS9_ISE_NSG_9env_var_tESI_EENS9_ISE_NSG_13description_tESI_EEEEEEEEEEEENS0_13typed_keywordISD_S11_Lb0EEEEET_RKT0_T1_S1A_
FNA:19,1,_ZN5boost3nfp7opt_getINSt7__cxx1112basic_stringIcSt11char_traitsIcESaIcEEENS0_23named_parameter_combineINS0_15named_parameterIKNS_9unit_test13basic_cstringIKcEENS_7runtime12_GLOBAL__N_16help_tERSE_EENS8_INS9_IKSt16initializer_listISt4pairISE_NSA_13output_formatEEENSG_13enum_values_tERSP_EENS8_INS9_IKSM_NSG_16optional_value_tERST_EENS8_INS9_IST_NSG_15default_value_tESV_EENS8_INS9_ISE_NSG_9env_var_tESI_EENS9_ISE_NSG_13description_tESI_EEEEEEEEEEEENS0_13typed_keywordISD_SH_Lb0EEEEET_RKT0_T1_S1A_
FNA:19,1,_ZN5boost3nfp7opt_getINSt7__cxx1112basic_stringIcSt11char_traitsIcESaIcEEENS0_23named_parameter_combineINS0_15named_parameterIKNS_9unit_test13basic_cstringIKcEENS_7runtime12_GLOBAL__N_16help_tERSE_EENS8_INS9_IKSt16initializer_listISt4pairISE_NSA_13output_formatEEENSG_13enum_values_tERSP_EENS8_INS9_IKSM_NSG_16optional_value_tERST_EENS8_INS9_IST_NSG_15default_value_tESV_EENS8_INS9_ISE_NSG_9env_var_tESI_EENS9_ISE_NSG_13description_tESI_EEEEEEEEEEEENS0_13typed_keywordISD_SZ_Lb0EEEEET_RKT0_T1_S1A_
FNA:19,1,_ZN5boost3nfp7opt_getINSt7__cxx1112basic_stringIcSt11char_traitsIcESaIcEEENS0_23named_parameter_combineINS0_15named_parameterIKNS_9unit_test13basic_cstringIKcEENS_7runtime12_GLOBAL__N_16help_tERSE_EENS8_INS9_IKSt16initializer_listISt4pairISE_NSA_13output_formatEEENSG_13enum_values_tERSP_EENS8_INS9_ISE_NSG_9env_var_tESI_EENS9_ISE_NSG_13description_tESI_EEEEEEEENS0_13typed_keywordISD_NSG_12value_hint_tELb0EEEEET_RKT0_T1_S13_
FNA:19,1,_ZN5boost3nfp7opt_getINSt7__cxx1112basic_stringIcSt11char_traitsIcESaIcEEENS0_23named_parameter_combineINS0_15named_parameterIKNS_9unit_test13basic_cstringIKcEENS_7runtime12_GLOBAL__N_16help_tERSE_EENS8_INS9_IKSt16initializer_listISt4pairISE_NSA_13output_formatEEENSG_13enum_values_tERSP_EENS8_INS9_ISE_NSG_9env_var_tESI_EENS9_ISE_NSG_13description_tESI_EEEEEEEENS0_13typed_keywordISD_SH_Lb0EEEEET_RKT0_T1_S12_
FNA:19,1,_ZN5boost3nfp7opt_getINSt7__cxx1112basic_stringIcSt11char_traitsIcESaIcEEENS0_23named_parameter_combineINS0_15named_parameterIKNS_9unit_test13basic_cstringIKcEENS_7runtime12_GLOBAL__N_16help_tERSE_EENS8_INS9_IKSt16initializer_listISt4pairISE_NSA_13output_formatEEENSG_13enum_values_tERSP_EENS8_INS9_ISE_NSG_9env_var_tESI_EENS9_ISE_NSG_13description_tESI_EEEEEEEENS0_13typed_keywordISD_ST_Lb0EEEEET_RKT0_T1_S12_
FNA:19,1,_ZN5boost3nfp7opt_getINSt7__cxx1112basic_stringIcSt11char_traitsIcESaIcEEENS0_23named_parameter_combineINS0_15named_parameterIKNS_9unit_test13basic_cstringIKcEENS_7runtime12_GLOBAL__N_16help_tERSE_EENS8_INS9_IKSt16initializer_listISt4pairISE_NSA_13output_formatEEENSG_13enum_values_tERSP_EENS8_INS9_ISE_NSG_9env_var_tESI_EENS9_ISE_NSG_13description_tESI_EEEEEEEENS0_13typed_keywordISD_SV_Lb0EEEEET_RKT0_T1_S12_
FNA:19,1,_ZN5boost3nfp7opt_getINSt7__cxx1112basic_stringIcSt11char_traitsIcESaIcEEENS0_23named_parameter_combineINS0_15named_parameterIKNS_9unit_test13basic_cstringIKcEENS_7runtime12_GLOBAL__N_16help_tERSE_EENS8_INS9_IKSt16initializer_listISt4pairISE_NSA_9log_levelEEENSG_13enum_values_tERSP_EENS8_INS9_IKSM_NSG_15default_value_tERST_EENS8_INS9_ISE_NSG_9env_var_tESI_EENS9_ISE_NSG_13description_tESI_EEEEEEEEEENS0_13typed_keywordISD_NSG_12value_hint_tELb0EEEEET_RKT0_T1_S18_
FNA:19,1,_ZN5boost3nfp7opt_getINSt7__cxx1112basic_stringIcSt11char_traitsIcESaIcEEENS0_23named_parameter_combineINS0_15named_parameterIKNS_9unit_test13basic_cstringIKcEENS_7runtime12_GLOBAL__N_16help_tERSE_EENS8_INS9_IKSt16initializer_listISt4pairISE_NSA_9log_levelEEENSG_13enum_values_tERSP_EENS8_INS9_IKSM_NSG_15default_value_tERST_EENS8_INS9_ISE_NSG_9env_var_tESI_EENS9_ISE_NSG_13description_tESI_EEEEEEEEEENS0_13typed_keywordISD_SH_Lb0EEEEET_RKT0_T1_S17_
FNA:19,1,_ZN5boost3nfp7opt_getINSt7__cxx1112basic_stringIcSt11char_traitsIcESaIcEEENS0_23named_parameter_combineINS0_15named_parameterIKNS_9unit_test13basic_cstringIKcEENS_7runtime12_GLOBAL__N_16help_tERSE_EENS8_INS9_IKSt16initializer_listISt4pairISE_NSA_9log_levelEEENSG_13enum_values_tERSP_EENS8_INS9_IKSM_NSG_15default_value_tERST_EENS8_INS9_ISE_NSG_9env_var_tESI_EENS9_ISE_NSG_13description_tESI_EEEEEEEEEENS0_13typed_keywordISD_SX_Lb0EEEEET_RKT0_T1_S17_
FNA:19,1,_ZN5boost3nfp7opt_getINSt7__cxx1112basic_stringIcSt11char_traitsIcESaIcEEENS0_23named_parameter_combineINS0_15named_parameterIKNS_9unit_test13basic_cstringIKcEENS_7runtime12_GLOBAL__N_16help_tERSE_EENS8_INS9_IKSt16initializer_listISt4pairISE_NSA_9log_levelEEENSG_13enum_values_tERSP_EENS8_INS9_IKSM_NSG_15default_value_tERST_EENS8_INS9_ISE_NSG_9env_var_tESI_EENS9_ISE_NSG_13description_tESI_EEEEEEEEEENS0_13typed_keywordISD_SZ_Lb0EEEEET_RKT0_T1_S17_
FNA:19,1,_ZN5boost3nfp7opt_getINSt7__cxx1112basic_stringIcSt11char_traitsIcESaIcEEENS0_23named_parameter_combineINS0_15named_parameterIKNS_9unit_test13basic_cstringIKcEENS_7runtime12_GLOBAL__N_16help_tERSE_EENS8_INS9_ISE_NSG_12value_hint_tESI_EENS8_INS9_IKS7_NSG_15default_value_tERSM_EENS8_INS9_ISE_NSG_9env_var_tESI_EENS9_ISE_NSG_13description_tESI_EEEEEEEEEENS0_13typed_keywordISD_SH_Lb0EEEEET_RKT0_T1_S10_
FNA:19,1,_ZN5boost3nfp7opt_getINSt7__cxx1112basic_stringIcSt11char_traitsIcESaIcEEENS0_23named_parameter_combineINS0_15named_parameterIKNS_9unit_test13basic_cstringIKcEENS_7runtime12_GLOBAL__N_16help_tERSE_EENS8_INS9_ISE_NSG_12value_hint_tESI_EENS8_INS9_IKS7_NSG_15default_value_tERSM_EENS8_INS9_ISE_NSG_9env_var_tESI_EENS9_ISE_NSG_13description_tESI_EEEEEEEEEENS0_13typed_keywordISD_SK_Lb0EEEEET_RKT0_T1_S10_
FNA:19,1,_ZN5boost3nfp7opt_getINSt7__cxx1112basic_stringIcSt11char_traitsIcESaIcEEENS0_23named_parameter_combineINS0_15named_parameterIKNS_9unit_test13basic_cstringIKcEENS_7runtime12_GLOBAL__N_16help_tERSE_EENS8_INS9_ISE_NSG_12value_hint_tESI_EENS8_INS9_IKS7_NSG_15default_value_tERSM_EENS8_INS9_ISE_NSG_9env_var_tESI_EENS9_ISE_NSG_13description_tESI_EEEEEEEEEENS0_13typed_keywordISD_SQ_Lb0EEEEET_RKT0_T1_S10_
FNA:19,1,_ZN5boost3nfp7opt_getINSt7__cxx1112basic_stringIcSt11char_traitsIcESaIcEEENS0_23named_parameter_combineINS0_15named_parameterIKNS_9unit_test13basic_cstringIKcEENS_7runtime12_GLOBAL__N_16help_tERSE_EENS8_INS9_ISE_NSG_12value_hint_tESI_EENS8_INS9_IKS7_NSG_15default_value_tERSM_EENS8_INS9_ISE_NSG_9env_var_tESI_EENS9_ISE_NSG_13description_tESI_EEEEEEEEEENS0_13typed_keywordISD_SS_Lb0EEEEET_RKT0_T1_S10_
FNA:19,1,_ZN5boost3nfp7opt_getINSt7__cxx1112basic_stringIcSt11char_traitsIcESaIcEEENS0_23named_parameter_combineINS0_15named_parameterIKNS_9unit_test13basic_cstringIKcEENS_7runtime12_GLOBAL__N_16help_tERSE_EENS8_INS9_ISE_NSG_12value_hint_tESI_EENS8_INS9_IKS7_NSG_15default_value_tERSM_EENS8_INS9_ISE_NSG_9env_var_tESI_EENS9_ISE_NSG_13description_tESI_EEEEEEEEEENS0_7keywordINSG_16optional_value_tELb0EEEEET_RKT0_T1_S11_
FNA:19,1,_ZN5boost3nfp7opt_getINSt7__cxx1112basic_stringIcSt11char_traitsIcESaIcEEENS0_23named_parameter_combineINS0_15named_parameterIKNS_9unit_test13basic_cstringIKcEENS_7runtime12_GLOBAL__N_16help_tERSE_EENS8_INS9_ISE_NSG_12value_hint_tESI_EENS8_INS9_IKS7_NSG_15default_value_tERSM_EENS8_INS9_ISE_NSG_9env_var_tESI_EENS9_ISE_NSG_13description_tESI_EEEEEEEEEENS0_7keywordISN_Lb0EEEEET_RKT0_T1_S10_
FNA:19,1,_ZN5boost3nfp7opt_getINSt7__cxx1112basic_stringIcSt11char_traitsIcESaIcEEENS0_23named_parameter_combineINS0_15named_parameterIKNS_9unit_test13basic_cstringIKcEENS_7runtime12_GLOBAL__N_16help_tERSE_EENS8_INS9_ISE_NSG_12value_hint_tESI_EENS8_INS9_IKS7_NSG_16optional_value_tERSM_EENS9_ISE_NSG_13description_tESI_EEEEEEEENS0_13typed_keywordISD_NSG_9env_var_tELb0EEEEET_RKT0_T1_SY_
FNA:19,1,_ZN5boost3nfp7opt_getINSt7__cxx1112basic_stringIcSt11char_traitsIcESaIcEEENS0_23named_parameter_combineINS0_15named_parameterIKNS_9unit_test13basic_cstringIKcEENS_7runtime12_GLOBAL__N_16help_tERSE_EENS8_INS9_ISE_NSG_12value_hint_tESI_EENS8_INS9_IKS7_NSG_16optional_value_tERSM_EENS9_ISE_NSG_13description_tESI_EEEEEEEENS0_13typed_keywordISD_SH_Lb0EEEEET_RKT0_T1_SX_
FNA:19,1,_ZN5boost3nfp7opt_getINSt7__cxx1112basic_stringIcSt11char_traitsIcESaIcEEENS0_23named_parameter_combineINS0_15named_parameterIKNS_9unit_test13basic_cstringIKcEENS_7runtime12_GLOBAL__N_16help_tERSE_EENS8_INS9_ISE_NSG_12value_hint_tESI_EENS8_INS9_IKS7_NSG_16optional_value_tERSM_EENS9_ISE_NSG_13description_tESI_EEEEEEEENS0_13typed_keywordISD_SK_Lb0EEEEET_RKT0_T1_SX_
FNA:19,1,_ZN5boost3nfp7opt_getINSt7__cxx1112basic_stringIcSt11char_traitsIcESaIcEEENS0_23named_parameter_combineINS0_15named_parameterIKNS_9unit_test13basic_cstringIKcEENS_7runtime12_GLOBAL__N_16help_tERSE_EENS8_INS9_ISE_NSG_12value_hint_tESI_EENS8_INS9_IKS7_NSG_16optional_value_tERSM_EENS9_ISE_NSG_13description_tESI_EEEEEEEENS0_13typed_keywordISD_SQ_Lb0EEEEET_RKT0_T1_SX_
FNA:19,1,_ZN5boost3nfp7opt_getINSt7__cxx1112basic_stringIcSt11char_traitsIcESaIcEEENS0_23named_parameter_combineINS0_15named_parameterIKNS_9unit_test13basic_cstringIKcEENS_7runtime12_GLOBAL__N_16help_tERSE_EENS8_INS9_ISE_NSG_12value_hint_tESI_EENS8_INS9_IKS7_NSG_16optional_value_tERSM_EENS9_ISE_NSG_13description_tESI_EEEEEEEENS0_7keywordINSG_15default_value_tELb0EEEEET_RKT0_T1_SY_
FNA:19,1,_ZN5boost3nfp7opt_getINSt7__cxx1112basic_stringIcSt11char_traitsIcESaIcEEENS0_23named_parameter_combineINS0_15named_parameterIKNS_9unit_test13basic_cstringIKcEENS_7runtime12_GLOBAL__N_16help_tERSE_EENS8_INS9_ISE_NSG_12value_hint_tESI_EENS8_INS9_IKS7_NSG_16optional_value_tERSM_EENS9_ISE_NSG_13description_tESI_EEEEEEEENS0_7keywordISN_Lb0EEEEET_RKT0_T1_SX_
FNA:19,1,_ZN5boost3nfp7opt_getINSt7__cxx1112basic_stringIcSt11char_traitsIcESaIcEEENS0_23named_parameter_combineINS0_15named_parameterIKNS_9unit_test13basic_cstringIKcEENS_7runtime12_GLOBAL__N_16help_tERSE_EENS8_INS9_ISE_NSG_12value_hint_tESI_EENS8_INS9_IKjNSG_16optional_value_tERSM_EENS8_INS9_ISM_NSG_15default_value_tESO_EENS8_INS9_ISE_NSG_9env_var_tESI_EENS9_ISE_NSG_13description_tESI_EEEEEEEEEEEENS0_13typed_keywordISD_SH_Lb0EEEEET_RKT0_T1_S13_
FNA:19,1,_ZN5boost3nfp7opt_getINSt7__cxx1112basic_stringIcSt11char_traitsIcESaIcEEENS0_23named_parameter_combineINS0_15named_parameterIKNS_9unit_test13basic_cstringIKcEENS_7runtime12_GLOBAL__N_16help_tERSE_EENS8_INS9_ISE_NSG_12value_hint_tESI_EENS8_INS9_IKjNSG_16optional_value_tERSM_EENS8_INS9_ISM_NSG_15default_value_tESO_EENS8_INS9_ISE_NSG_9env_var_tESI_EENS9_ISE_NSG_13description_tESI_EEEEEEEEEEEENS0_13typed_keywordISD_SK_Lb0EEEEET_RKT0_T1_S13_
FNA:19,1,_ZN5boost3nfp7opt_getINSt7__cxx1112basic_stringIcSt11char_traitsIcESaIcEEENS0_23named_parameter_combineINS0_15named_parameterIKNS_9unit_test13basic_cstringIKcEENS_7runtime12_GLOBAL__N_16help_tERSE_EENS8_INS9_ISE_NSG_12value_hint_tESI_EENS8_INS9_IKjNSG_16optional_value_tERSM_EENS8_INS9_ISM_NSG_15default_value_tESO_EENS8_INS9_ISE_NSG_9env_var_tESI_EENS9_ISE_NSG_13description_tESI_EEEEEEEEEEEENS0_13typed_keywordISD_SS_Lb0EEEEET_RKT0_T1_S13_
FNA:19,1,_ZN5boost3nfp7opt_getINSt7__cxx1112basic_stringIcSt11char_traitsIcESaIcEEENS0_23named_parameter_combineINS0_15named_parameterIKNS_9unit_test13basic_cstringIKcEENS_7runtime12_GLOBAL__N_16help_tERSE_EENS8_INS9_ISE_NSG_12value_hint_tESI_EENS8_INS9_IKjNSG_16optional_value_tERSM_EENS8_INS9_ISM_NSG_15default_value_tESO_EENS8_INS9_ISE_NSG_9env_var_tESI_EENS9_ISE_NSG_13description_tESI_EEEEEEEEEEEENS0_13typed_keywordISD_SU_Lb0EEEEET_RKT0_T1_S13_
FNA:19,1,_ZN5boost3nfp7opt_getINSt7__cxx1112basic_stringIcSt11char_traitsIcESaIcEEENS0_23named_parameter_combineINS0_15named_parameterIKNS_9unit_test13basic_cstringIKcEENS_7runtime12_GLOBAL__N_16help_tERSE_EENS8_INS9_ISE_NSG_12value_hint_tESI_EENS8_INS9_IKlNSG_16optional_value_tERSM_EENS8_INS9_ISM_NSG_15default_value_tESO_EENS8_INS9_ISE_NSG_9env_var_tESI_EENS9_ISE_NSG_13description_tESI_EEEEEEEEEEEENS0_13typed_keywordISD_SH_Lb0EEEEET_RKT0_T1_S13_
FNA:19,1,_ZN5boost3nfp7opt_getINSt7__cxx1112basic_stringIcSt11char_traitsIcESaIcEEENS0_23named_parameter_combineINS0_15named_parameterIKNS_9unit_test13basic_cstringIKcEENS_7runtime12_GLOBAL__N_16help_tERSE_EENS8_INS9_ISE_NSG_12value_hint_tESI_EENS8_INS9_IKlNSG_16optional_value_tERSM_EENS8_INS9_ISM_NSG_15default_value_tESO_EENS8_INS9_ISE_NSG_9env_var_tESI_EENS9_ISE_NSG_13description_tESI_EEEEEEEEEEEENS0_13typed_keywordISD_SK_Lb0EEEEET_RKT0_T1_S13_
FNA:19,1,_ZN5boost3nfp7opt_getINSt7__cxx1112basic_stringIcSt11char_traitsIcESaIcEEENS0_23named_parameter_combineINS0_15named_parameterIKNS_9unit_test13basic_cstringIKcEENS_7runtime12_GLOBAL__N_16help_tERSE_EENS8_INS9_ISE_NSG_12value_hint_tESI_EENS8_INS9_IKlNSG_16optional_value_tERSM_EENS8_INS9_ISM_NSG_15default_value_tESO_EENS8_INS9_ISE_NSG_9env_var_tESI_EENS9_ISE_NSG_13description_tESI_EEEEEEEEEEEENS0_13typed_keywordISD_SS_Lb0EEEEET_RKT0_T1_S13_
FNA:19,1,_ZN5boost3nfp7opt_getINSt7__cxx1112basic_stringIcSt11char_traitsIcESaIcEEENS0_23named_parameter_combineINS0_15named_parameterIKNS_9unit_test13basic_cstringIKcEENS_7runtime12_GLOBAL__N_16help_tERSE_EENS8_INS9_ISE_NSG_12value_hint_tESI_EENS8_INS9_IKlNSG_16optional_value_tERSM_EENS8_INS9_ISM_NSG_15default_value_tESO_EENS8_INS9_ISE_NSG_9env_var_tESI_EENS9_ISE_NSG_13description_tESI_EEEEEEEEEEEENS0_13typed_keywordISD_SU_Lb0EEEEET_RKT0_T1_S13_
FNA:19,4,_ZN5boost3nfp7opt_getINSt7__cxx1112basic_stringIcSt11char_traitsIcESaIcEEENS0_23named_parameter_combineINS0_15named_parameterIKNS_9unit_test13basic_cstringIKcEENS_7runtime12_GLOBAL__N_16help_tERSE_EENS8_INS9_ISE_NSG_12value_hint_tESI_EENS8_INS9_ISE_NSG_9env_var_tESI_EENS9_ISE_NSG_13description_tESI_EEEEEEEENS0_13typed_keywordISD_SH_Lb0EEEEET_RKT0_T1_SV_
FNA:19,4,_ZN5boost3nfp7opt_getINSt7__cxx1112basic_stringIcSt11char_traitsIcESaIcEEENS0_23named_parameter_combineINS0_15named_parameterIKNS_9unit_test13basic_cstringIKcEENS_7runtime12_GLOBAL__N_16help_tERSE_EENS8_INS9_ISE_NSG_12value_hint_tESI_EENS8_INS9_ISE_NSG_9env_var_tESI_EENS9_ISE_NSG_13description_tESI_EEEEEEEENS0_13typed_keywordISD_SK_Lb0EEEEET_RKT0_T1_SV_
FNA:19,4,_ZN5boost3nfp7opt_getINSt7__cxx1112basic_stringIcSt11char_traitsIcESaIcEEENS0_23named_parameter_combineINS0_15named_parameterIKNS_9unit_test13basic_cstringIKcEENS_7runtime12_GLOBAL__N_16help_tERSE_EENS8_INS9_ISE_NSG_12value_hint_tESI_EENS8_INS9_ISE_NSG_9env_var_tESI_EENS9_ISE_NSG_13description_tESI_EEEEEEEENS0_13typed_keywordISD_SM_Lb0EEEEET_RKT0_T1_SV_
FNA:19,4,_ZN5boost3nfp7opt_getINSt7__cxx1112basic_stringIcSt11char_traitsIcESaIcEEENS0_23named_parameter_combineINS0_15named_parameterIKNS_9unit_test13basic_cstringIKcEENS_7runtime12_GLOBAL__N_16help_tERSE_EENS8_INS9_ISE_NSG_12value_hint_tESI_EENS8_INS9_ISE_NSG_9env_var_tESI_EENS9_ISE_NSG_13description_tESI_EEEEEEEENS0_13typed_keywordISD_SO_Lb0EEEEET_RKT0_T1_SV_
FNA:19,2,_ZN5boost3nfp7opt_getINSt7__cxx1112basic_stringIcSt11char_traitsIcESaIcEEENS0_23named_parameter_combineINS0_15named_parameterIKNS_9unit_test13basic_cstringIKcEENS_7runtime12_GLOBAL__N_16help_tERSE_EENS8_INS9_ISE_NSG_12value_hint_tESI_EENS8_INS9_ISE_NSG_9env_var_tESI_EENS9_ISE_NSG_13description_tESI_EEEEEEEENS0_7keywordINSG_15default_value_tELb0EEEEET_RKT0_T1_SW_
FNA:19,2,_ZN5boost3nfp7opt_getINSt7__cxx1112basic_stringIcSt11char_traitsIcESaIcEEENS0_23named_parameter_combineINS0_15named_parameterIKNS_9unit_test13basic_cstringIKcEENS_7runtime12_GLOBAL__N_16help_tERSE_EENS8_INS9_ISE_NSG_12value_hint_tESI_EENS8_INS9_ISE_NSG_9env_var_tESI_EENS9_ISE_NSG_13description_tESI_EEEEEEEENS0_7keywordINSG_16optional_value_tELb0EEEEET_RKT0_T1_SW_
FNA:19,1,_ZN5boost3nfp7opt_getINSt7__cxx1112basic_stringIcSt11char_traitsIcESaIcEEENS0_23named_parameter_combineINS0_15named_parameterIKZNS_9unit_test14runtime_config12_GLOBAL__N_1L19register_parametersERNS_7runtime16parameters_storeEEUlNSA_13basic_cstringIKcEEE_NSD_12_GLOBAL__N_110callback_tERSK_EENS8_INS9_IKSI_NSL_9env_var_tERSP_EENS9_ISP_NSL_13description_tESR_EEEEEENS0_13typed_keywordISI_NSL_12value_hint_tELb0EEEEET_RKT0_T1_S10_
FNA:19,1,_ZN5boost3nfp7opt_getINSt7__cxx1112basic_stringIcSt11char_traitsIcESaIcEEENS0_23named_parameter_combineINS0_15named_parameterIKZNS_9unit_test14runtime_config12_GLOBAL__N_1L19register_parametersERNS_7runtime16parameters_storeEEUlNSA_13basic_cstringIKcEEE_NSD_12_GLOBAL__N_110callback_tERSK_EENS8_INS9_IKSI_NSL_9env_var_tERSP_EENS9_ISP_NSL_13description_tESR_EEEEEENS0_13typed_keywordISI_NSL_6help_tELb0EEEEET_RKT0_T1_S10_
FNA:19,1,_ZN5boost3nfp7opt_getINSt7__cxx1112basic_stringIcSt11char_traitsIcESaIcEEENS0_23named_parameter_combineINS0_15named_parameterIKZNS_9unit_test14runtime_config12_GLOBAL__N_1L19register_parametersERNS_7runtime16parameters_storeEEUlNSA_13basic_cstringIKcEEE_NSD_12_GLOBAL__N_110callback_tERSK_EENS8_INS9_IKSI_NSL_9env_var_tERSP_EENS9_ISP_NSL_13description_tESR_EEEEEENS0_13typed_keywordISI_SQ_Lb0EEEEET_RKT0_T1_SZ_
FNA:19,1,_ZN5boost3nfp7opt_getINSt7__cxx1112basic_stringIcSt11char_traitsIcESaIcEEENS0_23named_parameter_combineINS0_15named_parameterIKZNS_9unit_test14runtime_config12_GLOBAL__N_1L19register_parametersERNS_7runtime16parameters_storeEEUlNSA_13basic_cstringIKcEEE_NSD_12_GLOBAL__N_110callback_tERSK_EENS8_INS9_IKSI_NSL_9env_var_tERSP_EENS9_ISP_NSL_13description_tESR_EEEEEENS0_13typed_keywordISI_ST_Lb0EEEEET_RKT0_T1_SZ_
FNA:19,1,_ZN5boost3nfp7opt_getINSt7__cxx1112basic_stringIcSt11char_traitsIcESaIcEEENS0_23named_parameter_combineINS0_15named_parameterIKZNS_9unit_test14runtime_config12_GLOBAL__N_1L19register_parametersERNS_7runtime16parameters_storeEEUlNSA_13basic_cstringIKcEEE_NSD_12_GLOBAL__N_110callback_tERSK_EENS8_INS9_IKSI_NSL_9env_var_tERSP_EENS9_ISP_NSL_13description_tESR_EEEEEENS0_7keywordINSL_15default_value_tELb0EEEEET_RKT0_T1_S10_
FNA:19,1,_ZN5boost3nfp7opt_getINSt7__cxx1112basic_stringIcSt11char_traitsIcESaIcEEENS0_23named_parameter_combineINS0_15named_parameterIKZNS_9unit_test14runtime_config12_GLOBAL__N_1L19register_parametersERNS_7runtime16parameters_storeEEUlNSA_13basic_cstringIKcEEE_NSD_12_GLOBAL__N_110callback_tERSK_EENS8_INS9_IKSI_NSL_9env_var_tERSP_EENS9_ISP_NSL_13description_tESR_EEEEEENS0_7keywordINSL_16optional_value_tELb0EEEEET_RKT0_T1_S10_
FNA:19,7,_ZN5boost3nfp7opt_getINSt7__cxx1112basic_stringIcSt11char_traitsIcESaIcEEENS0_23named_parameter_combineINS0_15named_parameterIKbNS_7runtime12_GLOBAL__N_115default_value_tERSA_EENS8_INS9_ISA_NSC_16optional_value_tESE_EENS8_INS9_IKNS_9unit_test13basic_cstringIKcEENSC_6help_tERSM_EENS8_INS9_ISM_NSC_9env_var_tESO_EENS9_ISM_NSC_13description_tESO_EEEEEEEEEENS0_13typed_keywordISL_NSC_12value_hint_tELb0EEEEET_RKT0_T1_S11_
FNA:19,7,_ZN5boost3nfp7opt_getINSt7__cxx1112basic_stringIcSt11char_traitsIcESaIcEEENS0_23named_parameter_combineINS0_15named_parameterIKbNS_7runtime12_GLOBAL__N_115default_value_tERSA_EENS8_INS9_ISA_NSC_16optional_value_tESE_EENS8_INS9_IKNS_9unit_test13basic_cstringIKcEENSC_6help_tERSM_EENS8_INS9_ISM_NSC_9env_var_tESO_EENS9_ISM_NSC_13description_tESO_EEEEEEEEEENS0_13typed_keywordISL_SN_Lb0EEEEET_RKT0_T1_S10_
FNA:19,7,_ZN5boost3nfp7opt_getINSt7__cxx1112basic_stringIcSt11char_traitsIcESaIcEEENS0_23named_parameter_combineINS0_15named_parameterIKbNS_7runtime12_GLOBAL__N_115default_value_tERSA_EENS8_INS9_ISA_NSC_16optional_value_tESE_EENS8_INS9_IKNS_9unit_test13basic_cstringIKcEENSC_6help_tERSM_EENS8_INS9_ISM_NSC_9env_var_tESO_EENS9_ISM_NSC_13description_tESO_EEEEEEEEEENS0_13typed_keywordISL_SQ_Lb0EEEEET_RKT0_T1_S10_
FNA:19,7,_ZN5boost3nfp7opt_getINSt7__cxx1112basic_stringIcSt11char_traitsIcESaIcEEENS0_23named_parameter_combineINS0_15named_parameterIKbNS_7runtime12_GLOBAL__N_115default_value_tERSA_EENS8_INS9_ISA_NSC_16optional_value_tESE_EENS8_INS9_IKNS_9unit_test13basic_cstringIKcEENSC_6help_tERSM_EENS8_INS9_ISM_NSC_9env_var_tESO_EENS9_ISM_NSC_13description_tESO_EEEEEEEEEENS0_13typed_keywordISL_SS_Lb0EEEEET_RKT0_T1_S10_
FNA:19,2,_ZN5boost3nfp7opt_getINSt7__cxx1112basic_stringIcSt11char_traitsIcESaIcEEENS0_23named_parameter_combineINS0_15named_parameterIKbNS_7runtime12_GLOBAL__N_115default_value_tERSA_EENS8_INS9_ISA_NSC_16optional_value_tESE_EENS9_IKNS_9unit_test13basic_cstringIKcEENSC_13description_tERSM_EEEEEENS0_13typed_keywordISL_NSC_12value_hint_tELb0EEEEET_RKT0_T1_SV_
FNA:19,2,_ZN5boost3nfp7opt_getINSt7__cxx1112basic_stringIcSt11char_traitsIcESaIcEEENS0_23named_parameter_combineINS0_15named_parameterIKbNS_7runtime12_GLOBAL__N_115default_value_tERSA_EENS8_INS9_ISA_NSC_16optional_value_tESE_EENS9_IKNS_9unit_test13basic_cstringIKcEENSC_13description_tERSM_EEEEEENS0_13typed_keywordISL_NSC_6help_tELb0EEEEET_RKT0_T1_SV_
FNA:19,2,_ZN5boost3nfp7opt_getINSt7__cxx1112basic_stringIcSt11char_traitsIcESaIcEEENS0_23named_parameter_combineINS0_15named_parameterIKbNS_7runtime12_GLOBAL__N_115default_value_tERSA_EENS8_INS9_ISA_NSC_16optional_value_tESE_EENS9_IKNS_9unit_test13basic_cstringIKcEENSC_13description_tERSM_EEEEEENS0_13typed_keywordISL_NSC_9env_var_tELb0EEEEET_RKT0_T1_SV_
FNA:19,2,_ZN5boost3nfp7opt_getINSt7__cxx1112basic_stringIcSt11char_traitsIcESaIcEEENS0_23named_parameter_combineINS0_15named_parameterIKbNS_7runtime12_GLOBAL__N_115default_value_tERSA_EENS8_INS9_ISA_NSC_16optional_value_tESE_EENS9_IKNS_9unit_test13basic_cstringIKcEENSC_13description_tERSM_EEEEEENS0_13typed_keywordISL_SN_Lb0EEEEET_RKT0_T1_SU_
FNA:19,4,_ZN5boost3nfp7opt_getINSt7__cxx1112basic_stringIcSt11char_traitsIcESaIcEEENS0_23named_parameter_combineINS0_15named_parameterIKbNS_7runtime12_GLOBAL__N_116optional_value_tERSA_EENS8_INS9_IKNS_9unit_test13basic_cstringIKcEENSC_6help_tERSK_EENS8_INS9_ISA_NSC_15default_value_tESE_EENS8_INS9_ISK_NSC_9env_var_tESM_EENS9_ISK_NSC_13description_tESM_EEEEEEEEEENS0_13typed_keywordISJ_NSC_12value_hint_tELb0EEEEET_RKT0_T1_S11_
FNA:19,4,_ZN5boost3nfp7opt_getINSt7__cxx1112basic_stringIcSt11char_traitsIcESaIcEEENS0_23named_parameter_combineINS0_15named_parameterIKbNS_7runtime12_GLOBAL__N_116optional_value_tERSA_EENS8_INS9_IKNS_9unit_test13basic_cstringIKcEENSC_6help_tERSK_EENS8_INS9_ISA_NSC_15default_value_tESE_EENS8_INS9_ISK_NSC_9env_var_tESM_EENS9_ISK_NSC_13description_tESM_EEEEEEEEEENS0_13typed_keywordISJ_SL_Lb0EEEEET_RKT0_T1_S10_
FNA:19,4,_ZN5boost3nfp7opt_getINSt7__cxx1112basic_stringIcSt11char_traitsIcESaIcEEENS0_23named_parameter_combineINS0_15named_parameterIKbNS_7runtime12_GLOBAL__N_116optional_value_tERSA_EENS8_INS9_IKNS_9unit_test13basic_cstringIKcEENSC_6help_tERSK_EENS8_INS9_ISA_NSC_15default_value_tESE_EENS8_INS9_ISK_NSC_9env_var_tESM_EENS9_ISK_NSC_13description_tESM_EEEEEEEEEENS0_13typed_keywordISJ_SQ_Lb0EEEEET_RKT0_T1_S10_
FNA:19,4,_ZN5boost3nfp7opt_getINSt7__cxx1112basic_stringIcSt11char_traitsIcESaIcEEENS0_23named_parameter_combineINS0_15named_parameterIKbNS_7runtime12_GLOBAL__N_116optional_value_tERSA_EENS8_INS9_IKNS_9unit_test13basic_cstringIKcEENSC_6help_tERSK_EENS8_INS9_ISA_NSC_15default_value_tESE_EENS8_INS9_ISK_NSC_9env_var_tESM_EENS9_ISK_NSC_13description_tESM_EEEEEEEEEENS0_13typed_keywordISJ_SS_Lb0EEEEET_RKT0_T1_S10_
FNA:19,7,_ZN5boost3nfp7opt_getIbNS0_23named_parameter_combineINS0_15named_parameterIKbNS_7runtime12_GLOBAL__N_115default_value_tERS4_EENS2_INS3_IS4_NS6_16optional_value_tES8_EENS2_INS3_IKNS_9unit_test13basic_cstringIKcEENS6_6help_tERSG_EENS2_INS3_ISG_NS6_9env_var_tESI_EENS3_ISG_NS6_13description_tESI_EEEEEEEEEENS0_7keywordIS7_Lb0EEEEET_RKT0_T1_SU_
FNA:19,7,_ZN5boost3nfp7opt_getIbNS0_23named_parameter_combineINS0_15named_parameterIKbNS_7runtime12_GLOBAL__N_115default_value_tERS4_EENS2_INS3_IS4_NS6_16optional_value_tES8_EENS2_INS3_IKNS_9unit_test13basic_cstringIKcEENS6_6help_tERSG_EENS2_INS3_ISG_NS6_9env_var_tESI_EENS3_ISG_NS6_13description_tESI_EEEEEEEEEENS0_7keywordISA_Lb0EEEEET_RKT0_T1_SU_
FNA:19,2,_ZN5boost3nfp7opt_getIbNS0_23named_parameter_combineINS0_15named_parameterIKbNS_7runtime12_GLOBAL__N_115default_value_tERS4_EENS2_INS3_IS4_NS6_16optional_value_tES8_EENS3_IKNS_9unit_test13basic_cstringIKcEENS6_13description_tERSG_EEEEEENS0_7keywordIS7_Lb0EEEEET_RKT0_T1_SO_
FNA:19,2,_ZN5boost3nfp7opt_getIbNS0_23named_parameter_combineINS0_15named_parameterIKbNS_7runtime12_GLOBAL__N_115default_value_tERS4_EENS2_INS3_IS4_NS6_16optional_value_tES8_EENS3_IKNS_9unit_test13basic_cstringIKcEENS6_13description_tERSG_EEEEEENS0_7keywordISA_Lb0EEEEET_RKT0_T1_SO_
FNA:19,4,_ZN5boost3nfp7opt_getIbNS0_23named_parameter_combineINS0_15named_parameterIKbNS_7runtime12_GLOBAL__N_116optional_value_tERS4_EENS2_INS3_IKNS_9unit_test13basic_cstringIKcEENS6_6help_tERSE_EENS2_INS3_IS4_NS6_15default_value_tES8_EENS2_INS3_ISE_NS6_9env_var_tESG_EENS3_ISE_NS6_13description_tESG_EEEEEEEEEENS0_7keywordIS7_Lb0EEEEET_RKT0_T1_SU_
FNA:19,4,_ZN5boost3nfp7opt_getIbNS0_23named_parameter_combineINS0_15named_parameterIKbNS_7runtime12_GLOBAL__N_116optional_value_tERS4_EENS2_INS3_IKNS_9unit_test13basic_cstringIKcEENS6_6help_tERSE_EENS2_INS3_IS4_NS6_15default_value_tES8_EENS2_INS3_ISE_NS6_9env_var_tESG_EENS3_ISE_NS6_13description_tESG_EEEEEEEEEENS0_7keywordISI_Lb0EEEEET_RKT0_T1_SU_
FNA:19,1,_ZN5boost3nfp7opt_getIjNS0_23named_parameter_combineINS0_15named_parameterIKNS_9unit_test13basic_cstringIKcEENS_7runtime12_GLOBAL__N_16help_tERS8_EENS2_INS3_IS8_NSA_12value_hint_tESC_EENS2_INS3_IKjNSA_16optional_value_tERSG_EENS2_INS3_ISG_NSA_15default_value_tESI_EENS2_INS3_IS8_NSA_9env_var_tESC_EENS3_IS8_NSA_13description_tESC_EEEEEEEEEEEENS0_7keywordISH_Lb0EEEEET_RKT0_T1_SX_
FNA:19,1,_ZN5boost3nfp7opt_getIjNS0_23named_parameter_combineINS0_15named_parameterIKNS_9unit_test13basic_cstringIKcEENS_7runtime12_GLOBAL__N_16help_tERS8_EENS2_INS3_IS8_NSA_12value_hint_tESC_EENS2_INS3_IKjNSA_16optional_value_tERSG_EENS2_INS3_ISG_NSA_15default_value_tESI_EENS2_INS3_IS8_NSA_9env_var_tESC_EENS3_IS8_NSA_13description_tESC_EEEEEEEEEEEENS0_7keywordISK_Lb0EEEEET_RKT0_T1_SX_
FNA:19,1,_ZN5boost3nfp7opt_getImNS0_23named_parameter_combineINS0_15named_parameterIKNS_9unit_test13basic_cstringIKcEENS_7runtime12_GLOBAL__N_16help_tERS8_EENS2_INS3_IS8_NSA_12value_hint_tESC_EENS2_INS3_IKlNSA_16optional_value_tERSG_EENS2_INS3_ISG_NSA_15default_value_tESI_EENS2_INS3_IS8_NSA_9env_var_tESC_EENS3_IS8_NSA_13description_tESC_EEEEEEEEEEEENS0_7keywordISH_Lb0EEEEET_RKT0_T1_SX_
FNA:19,1,_ZN5boost3nfp7opt_getImNS0_23named_parameter_combineINS0_15named_parameterIKNS_9unit_test13basic_cstringIKcEENS_7runtime12_GLOBAL__N_16help_tERS8_EENS2_INS3_IS8_NSA_12value_hint_tESC_EENS2_INS3_IKlNSA_16optional_value_tERSG_EENS2_INS3_ISG_NSA_15default_value_tESI_EENS2_INS3_IS8_NSA_9env_var_tESC_EENS3_IS8_NSA_13description_tESC_EEEEEEEEEEEENS0_7keywordISK_Lb0EEEEET_RKT0_T1_SX_
FNL:20,369,372
FNA:20,4,_ZN5boost3nfp10opt_appendINS0_15named_parameterIKNS_9unit_test13basic_cstringIKcEENS_7runtime12_GLOBAL__N_113description_tERS7_EENS2_IKbNS9_16optional_value_tERSD_EEEENS_11enable_if_cIXntsrNS0_9has_paramIT_NS0_7keywordINT0_2idELb0EEEEE5valueENS0_23named_parameter_combineISL_SJ_EEE4typeERKSJ_RKSL_
FNA:20,8,_ZN5boost3nfp10opt_appendINS0_23named_parameter_combineINS0_15named_parameterIKNS_9unit_test13basic_cstringIKcEENS_7runtime12_GLOBAL__N_16help_tERS8_EENS2_INS3_IKbNSA_15default_value_tERSE_EENS2_INS3_IS8_NSA_9env_var_tESC_EENS3_IS8_NSA_13description_tESC_EEEEEEEENS3_ISE_NSA_16optional_value_tESG_EEEENS_11enable_if_cIXntsrNS0_9has_paramIT_NS0_7keywordINT0_2idELb0EEEEE5valueENS2_ISV_ST_EEE4typeERKST_RKSV_
FNA:20,14,_ZN5boost3nfp10opt_appendINS0_23named_parameter_combineINS0_15named_parameterIKNS_9unit_test13basic_cstringIKcEENS_7runtime12_GLOBAL__N_16help_tERS8_EENS2_INS3_IS8_NSA_9env_var_tESC_EENS3_IS8_NSA_13description_tESC_EEEEEENS3_IKbNSA_16optional_value_tERSK_EEEENS_11enable_if_cIXntsrNS0_9has_paramIT_NS0_7keywordINT0_2idELb0EEEEE5valueENS2_ISS_SQ_EEE4typeERKSQ_RKSS_
FNA:20,14,_ZN5boost3nfp10opt_appendINS0_23named_parameter_combineINS0_15named_parameterIKbNS_7runtime12_GLOBAL__N_116optional_value_tERS4_EENS2_INS3_IKNS_9unit_test13basic_cstringIKcEENS6_6help_tERSE_EENS2_INS3_ISE_NS6_9env_var_tESG_EENS3_ISE_NS6_13description_tESG_EEEEEEEENS3_IS4_NS6_15default_value_tES8_EEEENS_11enable_if_cIXntsrNS0_9has_paramIT_NS0_7keywordINT0_2idELb0EEEEE5valueENS2_ISV_ST_EEE4typeERKST_RKSV_
FNA:20,4,_ZN5boost3nfp10opt_appendINS0_23named_parameter_combineINS0_15named_parameterIKbNS_7runtime12_GLOBAL__N_116optional_value_tERS4_EENS3_IKNS_9unit_test13basic_cstringIKcEENS6_13description_tERSE_EEEENS3_IS4_NS6_15default_value_tES8_EEEENS_11enable_if_cIXntsrNS0_9has_paramIT_NS0_7keywordINT0_2idELb0EEEEE5valueENS2_ISP_SN_EEE4typeERKSN_RKSP_
FNL:21,378,381
FNA:21,8,_ZN5boost3nfp10opt_appendINS0_23named_parameter_combineINS0_15named_parameterIKbNS_7runtime12_GLOBAL__N_116optional_value_tERS4_EENS2_INS3_IKNS_9unit_test13basic_cstringIKcEENS6_6help_tERSE_EENS2_INS3_IS4_NS6_15default_value_tES8_EENS2_INS3_ISE_NS6_9env_var_tESG_EENS3_ISE_NS6_13description_tESG_EEEEEEEEEESJ_EENS_11enable_if_cIXsrNS0_9has_paramIT_NS0_7keywordINT0_2idELb0EEEEE5valueESU_E4typeERKSU_RKSW_
FNF:22
FNH:17
DA:116,0
DA:118,0
DA:119,0
DA:137,0
DA:138,0
DA:156,0
DA:158,0
DA:171,126
DA:188,126
DA:190,126
DA:192,126
DA:196,110
DA:199,50
DA:233,165
DA:234,165
DA:235,165
DA:236,165
DA:237,488
DA:238,488
DA:239,488
DA:240,488
DA:244,139
DA:248,50
DA:250,36
DA:289,69
DA:296,0
DA:308,94
DA:322,1
DA:334,67
DA:336,67
DA:342,127
DA:346,127
DA:347,127
DA:355,192
DA:357,192
DA:359,192
DA:369,44
DA:371,44
DA:378,8
DA:380,8
LF:40
LH:32
end_of_record
TN:
SF:/usr/include/boost/test/utils/rtti.hpp
FNL:0,35,35
FNA:0,2,_ZN5boost4rtti11rtti_detail12rttid_holderINS_9unit_test12report_levelEE2idEv
FNA:0,6,_ZN5boost4rtti11rtti_detail12rttid_holderINS_9unit_test13output_formatEE2idEv
FNA:0,2,_ZN5boost4rtti11rtti_detail12rttid_holderINS_9unit_test9log_levelEE2idEv
FNA:0,2,_ZN5boost4rtti11rtti_detail12rttid_holderINSt7__cxx1112basic_stringIcSt11char_traitsIcESaIcEEEE2idEv
FNA:0,4,_ZN5boost4rtti11rtti_detail12rttid_holderISt6vectorINSt7__cxx1112basic_stringIcSt11char_traitsIcESaIcEEESaIS9_EEE2idEv
FNA:0,215,_ZN5boost4rtti11rtti_detail12rttid_holderIbE2idEv
FNA:0,10,_ZN5boost4rtti11rtti_detail12rttid_holderIjE2idEv
FNA:0,2,_ZN5boost4rtti11rtti_detail12rttid_holderImE2idEv
FNL:1,40,40
FNA:1,2,_ZN5boost4rtti11rtti_detail12rttid_holderINS_9unit_test12report_levelEE4instEv
FNA:1,6,_ZN5boost4rtti11rtti_detail12rttid_holderINS_9unit_test13output_formatEE4instEv
FNA:1,2,_ZN5boost4rtti11rtti_detail12rttid_holderINS_9unit_test9log_levelEE4instEv
FNA:1,2,_ZN5boost4rtti11rtti_detail12rttid_holderINSt7__cxx1112basic_stringIcSt11char_traitsIcESaIcEEEE4instEv
FNA:1,4,_ZN5boost4rtti11rtti_detail12rttid_holderISt6vectorINSt7__cxx1112basic_stringIcSt11char_traitsIcESaIcEEESaIS9_EEE4instEv
FNA:1,215,_ZN5boost4rtti11rtti_detail12rttid_holderIbE4instEv
FNA:1,10,_ZN5boost4rtti11rtti_detail12rttid_holderIjE4instEv
FNA:1,2,_ZN5boost4rtti11rtti_detail12rttid_holderImE4instEv
FNL:2,49,52
FNA:2,2,_ZN5boost4rtti7type_idINS_9unit_test12report_levelEEElv
FNA:2,6,_ZN5boost4rtti7type_idINS_9unit_test13output_formatEEElv
FNA:2,2,_ZN5boost4rtti7type_idINS_9unit_test9log_levelEEElv
FNA:2,2,_ZN5boost4rtti7type_idINSt7__cxx1112basic_stringIcSt11char_traitsIcESaIcEEEEElv
FNA:2,4,_ZN5boost4rtti7type_idISt6vectorINSt7__cxx1112basic_stringIcSt11char_traitsIcESaIcEEESaIS8_EEEElv
FNA:2,215,_ZN5boost4rtti7type_idIbEElv
FNA:2,10,_ZN5boost4rtti7type_idIjEElv
FNA:2,2,_ZN5boost4rtti7type_idImEElv
FNF:3
FNH:3
DA:35,243
DA:40,243
DA:49,243
DA:51,243
LF:4
LH:4
end_of_record
TN:
SF:/usr/include/boost/test/utils/runtime/argument.hpp
FNL:0,116,119
FNA:0,1,_ZN5boost7runtime15arguments_store3setINS_9unit_test12report_levelEEEvNS3_13basic_cstringIKcEERKT_
FNA:0,3,_ZN5boost7runtime15arguments_store3setINS_9unit_test13output_formatEEEvNS3_13basic_cstringIKcEERKT_
FNA:0,1,_ZN5boost7runtime15arguments_store3setINS_9unit_test9log_levelEEEvNS3_13basic_cstringIKcEERKT_
FNA:0,1,_ZN5boost7runtime15arguments_store3setINSt7__cxx1112basic_stringIcSt11char_traitsIcESaIcEEEEEvNS_9unit_test13basic_cstringIKcEERKT_
FNA:0,2,_ZN5boost7runtime15arguments_store3setISt6vectorINSt7__cxx1112basic_stringIcSt11char_traitsIcESaIcEEESaIS9_EEEEvNS_9unit_test13basic_cstringIKcEERKT_
FNA:0,13,_ZN5boost7runtime15arguments_store3setIbEEvNS_9unit_test13basic_cstringIKcEERKT_
FNA:0,1,_ZN5boost7runtime15arguments_store3setIjEEvNS_9unit_test13basic_cstringIKcEERKT_
FNA:0,1,_ZN5boost7runtime15arguments_store3setImEEvNS_9unit_test13basic_cstringIKcEERKT_
FNL:1,43,45
FNA:1,23,_ZN5boost7runtime8argumentC2El
FNL:2,48,48
FNA:2,0,_ZN5boost7runtime8argumentD0Ev
FNA:2,23,_ZN5boost7runtime8argumentD2Ev
FNL:3,62,65
FNA:3,1,_ZN5boost7runtime14typed_argumentINS_9unit_test12report_levelEEC2ERKS3_
FNA:3,3,_ZN5boost7runtime14typed_argumentINS_9unit_test13output_formatEEC2ERKS3_
FNA:3,1,_ZN5boost7runtime14typed_argumentINS_9unit_test9log_levelEEC2ERKS3_
FNA:3,1,_ZN5boost7runtime14typed_argumentINSt7__cxx1112basic_stringIcSt11char_traitsIcESaIcEEEEC2ERKS7_
FNA:3,2,_ZN5boost7runtime14typed_argumentISt6vectorINSt7__cxx1112basic_stringIcSt11char_traitsIcESaIcEEESaIS8_EEEC2ERKSA_
FNA:3,13,_ZN5boost7runtime14typed_argumentIbEC2ERKb
FNA:3,1,_ZN5boost7runtime14typed_argumentIjEC2ERKj
FNA:3,1,_ZN5boost7runtime14typed_argumentImEC2ERKm
FNL:4,82,82
FNA:4,1,_ZN5boost7runtime15arguments_store5clearEv
FNL:5,85,88
FNA:5,118,_ZNK5boost7runtime15arguments_store3hasENS_9unit_test13basic_cstringIKcEE
FNL:6,92,94
FNA:6,1,_ZNK5boost7runtime15arguments_store3getINS_9unit_test12report_levelEEERKT_NS3_13basic_cstringIKcEE
FNA:6,3,_ZNK5boost7runtime15arguments_store3getINS_9unit_test13output_formatEEERKT_NS3_13basic_cstringIKcEE
FNA:6,1,_ZNK5boost7runtime15arguments_store3getINS_9unit_test9log_levelEEERKT_NS3_13basic_cstringIKcEE
FNA:6,1,_ZNK5boost7runtime15arguments_store3getINSt7__cxx1112basic_stringIcSt11char_traitsIcESaIcEEEEERKT_NS_9unit_test13basic_cstringIKcEE
FNA:6,2,_ZNK5boost7runtime15arguments_store3getISt6vectorINSt7__cxx1112basic_stringIcSt11char_traitsIcESaIcEEESaIS9_EEEERKT_NS_9unit_test13basic_cstringIKcEE
FNA:6,202,_ZNK5boost7runtime15arguments_store3getIbEERKT_NS_9unit_test13basic_cstringIKcEE
FNA:6,9,_ZNK5boost7runtime15arguments_store3getIjEERKT_NS_9unit_test13basic_cstringIKcEE
FNA:6,1,_ZNK5boost7runtime15arguments_store3getImEERKT_NS_9unit_test13basic_cstringIKcEE
FNL:7,97,112
FNA:7,1,_ZN5boost7runtime15arguments_store3getINS_9unit_test12report_levelEEERT_NS3_13basic_cstringIKcEE
FNA:7,3,_ZN5boost7runtime15arguments_store3getINS_9unit_test13output_formatEEERT_NS3_13basic_cstringIKcEE
FNA:7,1,_ZN5boost7runtime15arguments_store3getINS_9unit_test9log_levelEEERT_NS3_13basic_cstringIKcEE
FNA:7,1,_ZN5boost7runtime15arguments_store3getINSt7__cxx1112basic_stringIcSt11char_traitsIcESaIcEEEEERT_NS_9unit_test13basic_cstringIKcEE
FNA:7,2,_ZN5boost7runtime15arguments_store3getISt6vectorINSt7__cxx1112basic_stringIcSt11char_traitsIcESaIcEEESaIS9_EEEERT_NS_9unit_test13basic_cstringIKcEE
FNA:7,202,_ZN5boost7runtime15arguments_store3getIbEERT_NS_9unit_test13basic_cstringIKcEE
FNA:7,9,_ZN5boost7runtime15arguments_store3getIjEERT_NS_9unit_test13basic_cstringIKcEE
FNA:7,1,_ZN5boost7runtime15arguments_store3getImEERT_NS_9unit_test13basic_cstringIKcEE
FNF:8
FNH:8
DA:43,23
DA:44,23
DA:45,23
DA:48,23
DA:62,23
DA:64,23
DA:65,23
DA:82,1
DA:85,118
DA:87,118
DA:92,220
DA:93,220
DA:97,220
DA:98,220
DA:99,220
DA:104,220
DA:106,220
DA:111,440
DA:112,220
DA:116,23
DA:118,23
DA:119,23
LF:22
LH:22
end_of_record
TN:
SF:/usr/include/boost/test/utils/runtime/argument_factory.hpp
FNL:0,131,135
FNA:0,1,_ZN5boost7runtime17value_interpreterINS_9unit_test12report_levelELb1EEC2INS_3nfp23named_parameter_combineINS6_15named_parameterIKNS2_13basic_cstringIKcEENS0_12_GLOBAL__N_16help_tERSC_EENS7_INS8_IKSt16initializer_listISt4pairISC_S3_EENSD_13enum_values_tERSL_EENS7_INS8_IKS3_NSD_15default_value_tERSP_EENS7_INS8_ISC_NSD_9env_var_tESF_EENS8_ISC_NSD_13description_tESF_EEEEEEEEEEEERKT_
FNA:0,2,_ZN5boost7runtime17value_interpreterINS_9unit_test13output_formatELb1EEC2INS_3nfp23named_parameter_combineINS6_15named_parameterIKNS2_13basic_cstringIKcEENS0_12_GLOBAL__N_16help_tERSC_EENS7_INS8_IKSt16initializer_listISt4pairISC_S3_EENSD_13enum_values_tERSL_EENS7_INS8_IKS3_NSD_15default_value_tERSP_EENS7_INS8_ISC_NSD_9env_var_tESF_EENS8_ISC_NSD_13description_tESF_EEEEEEEEEEEERKT_
FNA:0,1,_ZN5boost7runtime17value_interpreterINS_9unit_test13output_formatELb1EEC2INS_3nfp23named_parameter_combineINS6_15named_parameterIKNS2_13basic_cstringIKcEENS0_12_GLOBAL__N_16help_tERSC_EENS7_INS8_IKSt16initializer_listISt4pairISC_S3_EENSD_13enum_values_tERSL_EENS7_INS8_IKS3_NSD_16optional_value_tERSP_EENS7_INS8_ISP_NSD_15default_value_tESR_EENS7_INS8_ISC_NSD_9env_var_tESF_EENS8_ISC_NSD_13description_tESF_EEEEEEEEEEEEEERKT_
FNA:0,1,_ZN5boost7runtime17value_interpreterINS_9unit_test13output_formatELb1EEC2INS_3nfp23named_parameter_combineINS6_15named_parameterIKNS2_13basic_cstringIKcEENS0_12_GLOBAL__N_16help_tERSC_EENS7_INS8_IKSt16initializer_listISt4pairISC_S3_EENSD_13enum_values_tERSL_EENS7_INS8_ISC_NSD_9env_var_tESF_EENS8_ISC_NSD_13description_tESF_EEEEEEEEEERKT_
FNA:0,1,_ZN5boost7runtime17value_interpreterINS_9unit_test9log_levelELb1EEC2INS_3nfp23named_parameter_combineINS6_15named_parameterIKNS2_13basic_cstringIKcEENS0_12_GLOBAL__N_16help_tERSC_EENS7_INS8_IKSt16initializer_listISt4pairISC_S3_EENSD_13enum_values_tERSL_EENS7_INS8_IKS3_NSD_15default_value_tERSP_EENS7_INS8_ISC_NSD_9env_var_tESF_EENS8_ISC_NSD_13description_tESF_EEEEEEEEEEEERKT_
FNL:1,144,153
FNA:1,0,_ZNK5boost7runtime17value_interpreterINS_9unit_test12report_levelELb1EE9interpretENS2_13basic_cstringIKcEES7_
FNA:1,0,_ZNK5boost7runtime17value_interpreterINS_9unit_test13output_formatELb1EE9interpretENS2_13basic_cstringIKcEES7_
FNA:1,0,_ZNK5boost7runtime17value_interpreterINS_9unit_test9log_levelELb1EE9interpretENS2_13basic_cstringIKcEES7_
FNL:2,175,180
FNA:2,1,_ZN5boost7runtime16argument_factoryINS_9unit_test12report_levelELb1ELb0EEC2INS_3nfp23named_parameter_combineINS6_15named_parameterIKNS2_13basic_cstringIKcEENS0_12_GLOBAL__N_16help_tERSC_EENS7_INS8_IKSt16initializer_listISt4pairISC_S3_EENSD_13enum_values_tERSL_EENS7_INS8_IKS3_NSD_15default_value_tERSP_EENS7_INS8_ISC_NSD_9env_var_tESF_EENS8_ISC_NSD_13description_tESF_EEEEEEEEEEEERKT_
FNA:2,2,_ZN5boost7runtime16argument_factoryINS_9unit_test13output_formatELb1ELb0EEC2INS_3nfp23named_parameter_combineINS6_15named_parameterIKNS2_13basic_cstringIKcEENS0_12_GLOBAL__N_16help_tERSC_EENS7_INS8_IKSt16initializer_listISt4pairISC_S3_EENSD_13enum_values_tERSL_EENS7_INS8_IKS3_NSD_15default_value_tERSP_EENS7_INS8_ISC_NSD_9env_var_tESF_EENS8_ISC_NSD_13description_tESF_EEEEEEEEEEEERKT_
FNA:2,1,_ZN5boost7runtime16argument_factoryINS_9unit_test13output_formatELb1ELb0EEC2INS_3nfp23named_parameter_combineINS6_15named_parameterIKNS2_13basic_cstringIKcEENS0_12_GLOBAL__N_16help_tERSC_EENS7_INS8_IKSt16initializer_listISt4pairISC_S3_EENSD_13enum_values_tERSL_EENS7_INS8_IKS3_NSD_16optional_value_tERSP_EENS7_INS8_ISP_NSD_15default_value_tESR_EENS7_INS8_ISC_NSD_9env_var_tESF_EENS8_ISC_NSD_13description_tESF_EEEEEEEEEEEEEERKT_
FNA:2,1,_ZN5boost7runtime16argument_factoryINS_9unit_test13output_formatELb1ELb0EEC2INS_3nfp23named_parameter_combineINS6_15named_parameterIKNS2_13basic_cstringIKcEENS0_12_GLOBAL__N_16help_tERSC_EENS7_INS8_IKSt16initializer_listISt4pairISC_S3_EENSD_13enum_values_tERSL_EENS7_INS8_ISC_NSD_9env_var_tESF_EENS8_ISC_NSD_13description_tESF_EEEEEEEEEERKT_
FNA:2,1,_ZN5boost7runtime16argument_factoryINS_9unit_test9log_levelELb1ELb0EEC2INS_3nfp23named_parameter_combineINS6_15named_parameterIKNS2_13basic_cstringIKcEENS0_12_GLOBAL__N_16help_tERSC_EENS7_INS8_IKSt16initializer_listISt4pairISC_S3_EENSD_13enum_values_tERSL_EENS7_INS8_IKS3_NSD_15default_value_tERSP_EENS7_INS8_ISC_NSD_9env_var_tESF_EENS8_ISC_NSD_13description_tESF_EEEEEEEEEEEERKT_
